   1              		.syntax unified
   2              		.cpu cortex-m4
   3              		.eabi_attribute 27, 1
   4              		.eabi_attribute 28, 1
   5              		.fpu fpv4-sp-d16
   6              		.eabi_attribute 20, 1
   7              		.eabi_attribute 21, 1
   8              		.eabi_attribute 23, 3
   9              		.eabi_attribute 24, 1
  10              		.eabi_attribute 25, 1
  11              		.eabi_attribute 26, 1
  12              		.eabi_attribute 30, 6
  13              		.eabi_attribute 34, 1
  14              		.eabi_attribute 18, 4
  15              		.thumb
  16              		.file	"tasks.c"
  17              		.text
  18              	.Ltext0:
  19              		.cfi_sections	.debug_frame
  20              		.global	pxCurrentTCB
  21              		.section	.bss.pxCurrentTCB,"aw",%nobits
  22              		.align	2
  25              	pxCurrentTCB:
  26 0000 00000000 		.space	4
  27              		.section	.bss.pxReadyTasksLists,"aw",%nobits
  28              		.align	2
  31              	pxReadyTasksLists:
  32 0000 00000000 		.space	160
  32      00000000 
  32      00000000 
  32      00000000 
  32      00000000 
  33              		.section	.bss.xDelayedTaskList1,"aw",%nobits
  34              		.align	2
  37              	xDelayedTaskList1:
  38 0000 00000000 		.space	20
  38      00000000 
  38      00000000 
  38      00000000 
  38      00000000 
  39              		.section	.bss.xDelayedTaskList2,"aw",%nobits
  40              		.align	2
  43              	xDelayedTaskList2:
  44 0000 00000000 		.space	20
  44      00000000 
  44      00000000 
  44      00000000 
  44      00000000 
  45              		.section	.bss.pxDelayedTaskList,"aw",%nobits
  46              		.align	2
  49              	pxDelayedTaskList:
  50 0000 00000000 		.space	4
  51              		.section	.bss.pxOverflowDelayedTaskList,"aw",%nobits
  52              		.align	2
  55              	pxOverflowDelayedTaskList:
  56 0000 00000000 		.space	4
  57              		.section	.bss.xPendingReadyList,"aw",%nobits
  58              		.align	2
  61              	xPendingReadyList:
  62 0000 00000000 		.space	20
  62      00000000 
  62      00000000 
  62      00000000 
  62      00000000 
  63              		.section	.bss.xTasksWaitingTermination,"aw",%nobits
  64              		.align	2
  67              	xTasksWaitingTermination:
  68 0000 00000000 		.space	20
  68      00000000 
  68      00000000 
  68      00000000 
  68      00000000 
  69              		.section	.bss.uxTasksDeleted,"aw",%nobits
  70              		.align	2
  73              	uxTasksDeleted:
  74 0000 00000000 		.space	4
  75              		.section	.bss.xSuspendedTaskList,"aw",%nobits
  76              		.align	2
  79              	xSuspendedTaskList:
  80 0000 00000000 		.space	20
  80      00000000 
  80      00000000 
  80      00000000 
  80      00000000 
  81              		.section	.bss.uxCurrentNumberOfTasks,"aw",%nobits
  82              		.align	2
  85              	uxCurrentNumberOfTasks:
  86 0000 00000000 		.space	4
  87              		.section	.bss.xTickCount,"aw",%nobits
  88              		.align	2
  91              	xTickCount:
  92 0000 00000000 		.space	4
  93              		.section	.bss.uxTopReadyPriority,"aw",%nobits
  94              		.align	2
  97              	uxTopReadyPriority:
  98 0000 00000000 		.space	4
  99              		.section	.bss.xSchedulerRunning,"aw",%nobits
 100              		.align	2
 103              	xSchedulerRunning:
 104 0000 00000000 		.space	4
 105              		.section	.bss.uxPendedTicks,"aw",%nobits
 106              		.align	2
 109              	uxPendedTicks:
 110 0000 00000000 		.space	4
 111              		.section	.bss.xYieldPending,"aw",%nobits
 112              		.align	2
 115              	xYieldPending:
 116 0000 00000000 		.space	4
 117              		.section	.bss.xNumOfOverflows,"aw",%nobits
 118              		.align	2
 121              	xNumOfOverflows:
 122 0000 00000000 		.space	4
 123              		.section	.bss.uxTaskNumber,"aw",%nobits
 124              		.align	2
 127              	uxTaskNumber:
 128 0000 00000000 		.space	4
 129              		.section	.bss.xNextTaskUnblockTime,"aw",%nobits
 130              		.align	2
 133              	xNextTaskUnblockTime:
 134 0000 00000000 		.space	4
 135              		.section	.bss.uxSchedulerSuspended,"aw",%nobits
 136              		.align	2
 139              	uxSchedulerSuspended:
 140 0000 00000000 		.space	4
 141              		.section	.text.xTaskGenericCreate,"ax",%progbits
 142              		.align	2
 143              		.global	xTaskGenericCreate
 144              		.thumb
 145              		.thumb_func
 147              	xTaskGenericCreate:
 148              	.LFB4:
 149              		.file 1 "../FreeRTOS/tasks.c"
   1:../FreeRTOS/tasks.c **** /*
   2:../FreeRTOS/tasks.c ****     FreeRTOS V8.2.1 - Copyright (C) 2015 Real Time Engineers Ltd.
   3:../FreeRTOS/tasks.c ****     All rights reserved
   4:../FreeRTOS/tasks.c **** 
   5:../FreeRTOS/tasks.c ****     VISIT http://www.FreeRTOS.org TO ENSURE YOU ARE USING THE LATEST VERSION.
   6:../FreeRTOS/tasks.c **** 
   7:../FreeRTOS/tasks.c ****     This file is part of the FreeRTOS distribution.
   8:../FreeRTOS/tasks.c **** 
   9:../FreeRTOS/tasks.c ****     FreeRTOS is free software; you can redistribute it and/or modify it under
  10:../FreeRTOS/tasks.c ****     the terms of the GNU General Public License (version 2) as published by the
  11:../FreeRTOS/tasks.c ****     Free Software Foundation >>!AND MODIFIED BY!<< the FreeRTOS exception.
  12:../FreeRTOS/tasks.c **** 
  13:../FreeRTOS/tasks.c ****     ***************************************************************************
  14:../FreeRTOS/tasks.c ****     >>!   NOTE: The modification to the GPL is included to allow you to     !<<
  15:../FreeRTOS/tasks.c ****     >>!   distribute a combined work that includes FreeRTOS without being   !<<
  16:../FreeRTOS/tasks.c ****     >>!   obliged to provide the source code for proprietary components     !<<
  17:../FreeRTOS/tasks.c ****     >>!   outside of the FreeRTOS kernel.                                   !<<
  18:../FreeRTOS/tasks.c ****     ***************************************************************************
  19:../FreeRTOS/tasks.c **** 
  20:../FreeRTOS/tasks.c ****     FreeRTOS is distributed in the hope that it will be useful, but WITHOUT ANY
  21:../FreeRTOS/tasks.c ****     WARRANTY; without even the implied warranty of MERCHANTABILITY or FITNESS
  22:../FreeRTOS/tasks.c ****     FOR A PARTICULAR PURPOSE.  Full license text is available on the following
  23:../FreeRTOS/tasks.c ****     link: http://www.freertos.org/a00114.html
  24:../FreeRTOS/tasks.c **** 
  25:../FreeRTOS/tasks.c ****     ***************************************************************************
  26:../FreeRTOS/tasks.c ****      *                                                                       *
  27:../FreeRTOS/tasks.c ****      *    FreeRTOS provides completely free yet professionally developed,    *
  28:../FreeRTOS/tasks.c ****      *    robust, strictly quality controlled, supported, and cross          *
  29:../FreeRTOS/tasks.c ****      *    platform software that is more than just the market leader, it     *
  30:../FreeRTOS/tasks.c ****      *    is the industry's de facto standard.                               *
  31:../FreeRTOS/tasks.c ****      *                                                                       *
  32:../FreeRTOS/tasks.c ****      *    Help yourself get started quickly while simultaneously helping     *
  33:../FreeRTOS/tasks.c ****      *    to support the FreeRTOS project by purchasing a FreeRTOS           *
  34:../FreeRTOS/tasks.c ****      *    tutorial book, reference manual, or both:                          *
  35:../FreeRTOS/tasks.c ****      *    http://www.FreeRTOS.org/Documentation                              *
  36:../FreeRTOS/tasks.c ****      *                                                                       *
  37:../FreeRTOS/tasks.c ****     ***************************************************************************
  38:../FreeRTOS/tasks.c **** 
  39:../FreeRTOS/tasks.c ****     http://www.FreeRTOS.org/FAQHelp.html - Having a problem?  Start by reading
  40:../FreeRTOS/tasks.c ****     the FAQ page "My application does not run, what could be wrong?".  Have you
  41:../FreeRTOS/tasks.c ****     defined configASSERT()?
  42:../FreeRTOS/tasks.c **** 
  43:../FreeRTOS/tasks.c ****     http://www.FreeRTOS.org/support - In return for receiving this top quality
  44:../FreeRTOS/tasks.c ****     embedded software for free we request you assist our global community by
  45:../FreeRTOS/tasks.c ****     participating in the support forum.
  46:../FreeRTOS/tasks.c **** 
  47:../FreeRTOS/tasks.c ****     http://www.FreeRTOS.org/training - Investing in training allows your team to
  48:../FreeRTOS/tasks.c ****     be as productive as possible as early as possible.  Now you can receive
  49:../FreeRTOS/tasks.c ****     FreeRTOS training directly from Richard Barry, CEO of Real Time Engineers
  50:../FreeRTOS/tasks.c ****     Ltd, and the world's leading authority on the world's leading RTOS.
  51:../FreeRTOS/tasks.c **** 
  52:../FreeRTOS/tasks.c ****     http://www.FreeRTOS.org/plus - A selection of FreeRTOS ecosystem products,
  53:../FreeRTOS/tasks.c ****     including FreeRTOS+Trace - an indispensable productivity tool, a DOS
  54:../FreeRTOS/tasks.c ****     compatible FAT file system, and our tiny thread aware UDP/IP stack.
  55:../FreeRTOS/tasks.c **** 
  56:../FreeRTOS/tasks.c ****     http://www.FreeRTOS.org/labs - Where new FreeRTOS products go to incubate.
  57:../FreeRTOS/tasks.c ****     Come and try FreeRTOS+TCP, our new open source TCP/IP stack for FreeRTOS.
  58:../FreeRTOS/tasks.c **** 
  59:../FreeRTOS/tasks.c ****     http://www.OpenRTOS.com - Real Time Engineers ltd. license FreeRTOS to High
  60:../FreeRTOS/tasks.c ****     Integrity Systems ltd. to sell under the OpenRTOS brand.  Low cost OpenRTOS
  61:../FreeRTOS/tasks.c ****     licenses offer ticketed support, indemnification and commercial middleware.
  62:../FreeRTOS/tasks.c **** 
  63:../FreeRTOS/tasks.c ****     http://www.SafeRTOS.com - High Integrity Systems also provide a safety
  64:../FreeRTOS/tasks.c ****     engineered and independently SIL3 certified version for use in safety and
  65:../FreeRTOS/tasks.c ****     mission critical applications that require provable dependability.
  66:../FreeRTOS/tasks.c **** 
  67:../FreeRTOS/tasks.c ****     1 tab == 4 spaces!
  68:../FreeRTOS/tasks.c **** */
  69:../FreeRTOS/tasks.c **** 
  70:../FreeRTOS/tasks.c **** /* Standard includes. */
  71:../FreeRTOS/tasks.c **** #include <stdlib.h>
  72:../FreeRTOS/tasks.c **** #include <string.h>
  73:../FreeRTOS/tasks.c **** 
  74:../FreeRTOS/tasks.c **** /* Defining MPU_WRAPPERS_INCLUDED_FROM_API_FILE prevents task.h from redefining
  75:../FreeRTOS/tasks.c **** all the API functions to use the MPU wrappers.  That should only be done when
  76:../FreeRTOS/tasks.c **** task.h is included from an application file. */
  77:../FreeRTOS/tasks.c **** #define MPU_WRAPPERS_INCLUDED_FROM_API_FILE
  78:../FreeRTOS/tasks.c **** 
  79:../FreeRTOS/tasks.c **** /* FreeRTOS includes. */
  80:../FreeRTOS/tasks.c **** #include "FreeRTOS.h"
  81:../FreeRTOS/tasks.c **** #include "task.h"
  82:../FreeRTOS/tasks.c **** #include "timers.h"
  83:../FreeRTOS/tasks.c **** #include "StackMacros.h"
  84:../FreeRTOS/tasks.c **** 
  85:../FreeRTOS/tasks.c **** /* Lint e961 and e750 are suppressed as a MISRA exception justified because the
  86:../FreeRTOS/tasks.c **** MPU ports require MPU_WRAPPERS_INCLUDED_FROM_API_FILE to be defined for the
  87:../FreeRTOS/tasks.c **** header files above, but not in this file, in order to generate the correct
  88:../FreeRTOS/tasks.c **** privileged Vs unprivileged linkage and placement. */
  89:../FreeRTOS/tasks.c **** #undef MPU_WRAPPERS_INCLUDED_FROM_API_FILE /*lint !e961 !e750. */
  90:../FreeRTOS/tasks.c **** 
  91:../FreeRTOS/tasks.c **** /* Set configUSE_STATS_FORMATTING_FUNCTIONS to 2 to include the stats formatting
  92:../FreeRTOS/tasks.c **** functions but without including stdio.h here. */
  93:../FreeRTOS/tasks.c **** #if ( configUSE_STATS_FORMATTING_FUNCTIONS == 1 )
  94:../FreeRTOS/tasks.c **** 	/* At the bottom of this file are two optional functions that can be used
  95:../FreeRTOS/tasks.c **** 	to generate human readable text from the raw data generated by the
  96:../FreeRTOS/tasks.c **** 	uxTaskGetSystemState() function.  Note the formatting functions are provided
  97:../FreeRTOS/tasks.c **** 	for convenience only, and are NOT considered part of the kernel. */
  98:../FreeRTOS/tasks.c **** 	#include <stdio.h>
  99:../FreeRTOS/tasks.c **** #endif /* configUSE_STATS_FORMATTING_FUNCTIONS == 1 ) */
 100:../FreeRTOS/tasks.c **** 
 101:../FreeRTOS/tasks.c **** /* Sanity check the configuration. */
 102:../FreeRTOS/tasks.c **** #if( configUSE_TICKLESS_IDLE != 0 )
 103:../FreeRTOS/tasks.c **** 	#if( INCLUDE_vTaskSuspend != 1 )
 104:../FreeRTOS/tasks.c **** 		#error INCLUDE_vTaskSuspend must be set to 1 if configUSE_TICKLESS_IDLE is not set to 0
 105:../FreeRTOS/tasks.c **** 	#endif /* INCLUDE_vTaskSuspend */
 106:../FreeRTOS/tasks.c **** #endif /* configUSE_TICKLESS_IDLE */
 107:../FreeRTOS/tasks.c **** 
 108:../FreeRTOS/tasks.c **** /*
 109:../FreeRTOS/tasks.c ****  * Defines the size, in words, of the stack allocated to the idle task.
 110:../FreeRTOS/tasks.c ****  */
 111:../FreeRTOS/tasks.c **** #define tskIDLE_STACK_SIZE	configMINIMAL_STACK_SIZE
 112:../FreeRTOS/tasks.c **** 
 113:../FreeRTOS/tasks.c **** #if( configUSE_PREEMPTION == 0 )
 114:../FreeRTOS/tasks.c **** 	/* If the cooperative scheduler is being used then a yield should not be
 115:../FreeRTOS/tasks.c **** 	performed just because a higher priority task has been woken. */
 116:../FreeRTOS/tasks.c **** 	#define taskYIELD_IF_USING_PREEMPTION()
 117:../FreeRTOS/tasks.c **** #else
 118:../FreeRTOS/tasks.c **** 	#define taskYIELD_IF_USING_PREEMPTION() portYIELD_WITHIN_API()
 119:../FreeRTOS/tasks.c **** #endif
 120:../FreeRTOS/tasks.c **** 
 121:../FreeRTOS/tasks.c **** /* Value that can be assigned to the eNotifyState member of the TCB. */
 122:../FreeRTOS/tasks.c **** typedef enum
 123:../FreeRTOS/tasks.c **** {
 124:../FreeRTOS/tasks.c **** 	eNotWaitingNotification = 0,
 125:../FreeRTOS/tasks.c **** 	eWaitingNotification,
 126:../FreeRTOS/tasks.c **** 	eNotified
 127:../FreeRTOS/tasks.c **** } eNotifyValue;
 128:../FreeRTOS/tasks.c **** 
 129:../FreeRTOS/tasks.c **** /*
 130:../FreeRTOS/tasks.c ****  * Task control block.  A task control block (TCB) is allocated for each task,
 131:../FreeRTOS/tasks.c ****  * and stores task state information, including a pointer to the task's context
 132:../FreeRTOS/tasks.c ****  * (the task's run time environment, including register values)
 133:../FreeRTOS/tasks.c ****  */
 134:../FreeRTOS/tasks.c **** typedef struct tskTaskControlBlock
 135:../FreeRTOS/tasks.c **** {
 136:../FreeRTOS/tasks.c **** 	volatile StackType_t	*pxTopOfStack;	/*< Points to the location of the last item placed on the task
 137:../FreeRTOS/tasks.c **** 
 138:../FreeRTOS/tasks.c **** 	#if ( portUSING_MPU_WRAPPERS == 1 )
 139:../FreeRTOS/tasks.c **** 		xMPU_SETTINGS	xMPUSettings;		/*< The MPU settings are defined as part of the port layer.  THIS MU
 140:../FreeRTOS/tasks.c **** 		BaseType_t		xUsingStaticallyAllocatedStack; /* Set to pdTRUE if the stack is a statically allocat
 141:../FreeRTOS/tasks.c **** 	#endif
 142:../FreeRTOS/tasks.c **** 
 143:../FreeRTOS/tasks.c **** 	ListItem_t			xGenericListItem;	/*< The list that the state list item of a task is reference from d
 144:../FreeRTOS/tasks.c **** 	ListItem_t			xEventListItem;		/*< Used to reference a task from an event list. */
 145:../FreeRTOS/tasks.c **** 	UBaseType_t			uxPriority;			/*< The priority of the task.  0 is the lowest priority. */
 146:../FreeRTOS/tasks.c **** 	StackType_t			*pxStack;			/*< Points to the start of the stack. */
 147:../FreeRTOS/tasks.c **** 	char				pcTaskName[ configMAX_TASK_NAME_LEN ];/*< Descriptive name given to the task when created.
 148:../FreeRTOS/tasks.c **** 
 149:../FreeRTOS/tasks.c **** 	#if ( portSTACK_GROWTH > 0 )
 150:../FreeRTOS/tasks.c **** 		StackType_t		*pxEndOfStack;		/*< Points to the end of the stack on architectures where the stack 
 151:../FreeRTOS/tasks.c **** 	#endif
 152:../FreeRTOS/tasks.c **** 
 153:../FreeRTOS/tasks.c **** 	#if ( portCRITICAL_NESTING_IN_TCB == 1 )
 154:../FreeRTOS/tasks.c **** 		UBaseType_t 	uxCriticalNesting; 	/*< Holds the critical section nesting depth for ports that do n
 155:../FreeRTOS/tasks.c **** 	#endif
 156:../FreeRTOS/tasks.c **** 
 157:../FreeRTOS/tasks.c **** 	#if ( configUSE_TRACE_FACILITY == 1 )
 158:../FreeRTOS/tasks.c **** 		UBaseType_t		uxTCBNumber;		/*< Stores a number that increments each time a TCB is created.  It al
 159:../FreeRTOS/tasks.c **** 		UBaseType_t  	uxTaskNumber;		/*< Stores a number specifically for use by third party trace code. 
 160:../FreeRTOS/tasks.c **** 	#endif
 161:../FreeRTOS/tasks.c **** 
 162:../FreeRTOS/tasks.c **** 	#if ( configUSE_MUTEXES == 1 )
 163:../FreeRTOS/tasks.c **** 		UBaseType_t 	uxBasePriority;		/*< The priority last assigned to the task - used by the priority i
 164:../FreeRTOS/tasks.c **** 		UBaseType_t 	uxMutexesHeld;
 165:../FreeRTOS/tasks.c **** 	#endif
 166:../FreeRTOS/tasks.c **** 
 167:../FreeRTOS/tasks.c **** 	#if ( configUSE_APPLICATION_TASK_TAG == 1 )
 168:../FreeRTOS/tasks.c **** 		TaskHookFunction_t pxTaskTag;
 169:../FreeRTOS/tasks.c **** 	#endif
 170:../FreeRTOS/tasks.c **** 
 171:../FreeRTOS/tasks.c **** 	#if( configNUM_THREAD_LOCAL_STORAGE_POINTERS > 0 )
 172:../FreeRTOS/tasks.c **** 		void *pvThreadLocalStoragePointers[ configNUM_THREAD_LOCAL_STORAGE_POINTERS ];
 173:../FreeRTOS/tasks.c **** 	#endif
 174:../FreeRTOS/tasks.c **** 
 175:../FreeRTOS/tasks.c **** 	#if ( configGENERATE_RUN_TIME_STATS == 1 )
 176:../FreeRTOS/tasks.c **** 		uint32_t		ulRunTimeCounter;	/*< Stores the amount of time the task has spent in the Running state
 177:../FreeRTOS/tasks.c **** 	#endif
 178:../FreeRTOS/tasks.c **** 
 179:../FreeRTOS/tasks.c **** 	#if ( configUSE_NEWLIB_REENTRANT == 1 )
 180:../FreeRTOS/tasks.c **** 		/* Allocate a Newlib reent structure that is specific to this task.
 181:../FreeRTOS/tasks.c **** 		Note Newlib support has been included by popular demand, but is not
 182:../FreeRTOS/tasks.c **** 		used by the FreeRTOS maintainers themselves.  FreeRTOS is not
 183:../FreeRTOS/tasks.c **** 		responsible for resulting newlib operation.  User must be familiar with
 184:../FreeRTOS/tasks.c **** 		newlib and must provide system-wide implementations of the necessary
 185:../FreeRTOS/tasks.c **** 		stubs. Be warned that (at the time of writing) the current newlib design
 186:../FreeRTOS/tasks.c **** 		implements a system-wide malloc() that must be provided with locks. */
 187:../FreeRTOS/tasks.c **** 		struct 	_reent xNewLib_reent;
 188:../FreeRTOS/tasks.c **** 	#endif
 189:../FreeRTOS/tasks.c **** 
 190:../FreeRTOS/tasks.c **** 	#if ( configUSE_TASK_NOTIFICATIONS == 1 )
 191:../FreeRTOS/tasks.c **** 		volatile uint32_t ulNotifiedValue;
 192:../FreeRTOS/tasks.c **** 		volatile eNotifyValue eNotifyState;
 193:../FreeRTOS/tasks.c **** 	#endif
 194:../FreeRTOS/tasks.c **** 
 195:../FreeRTOS/tasks.c **** } tskTCB;
 196:../FreeRTOS/tasks.c **** 
 197:../FreeRTOS/tasks.c **** /* The old tskTCB name is maintained above then typedefed to the new TCB_t name
 198:../FreeRTOS/tasks.c **** below to enable the use of older kernel aware debuggers. */
 199:../FreeRTOS/tasks.c **** typedef tskTCB TCB_t;
 200:../FreeRTOS/tasks.c **** 
 201:../FreeRTOS/tasks.c **** /*
 202:../FreeRTOS/tasks.c ****  * Some kernel aware debuggers require the data the debugger needs access to to
 203:../FreeRTOS/tasks.c ****  * be global, rather than file scope.
 204:../FreeRTOS/tasks.c ****  */
 205:../FreeRTOS/tasks.c **** #ifdef portREMOVE_STATIC_QUALIFIER
 206:../FreeRTOS/tasks.c **** 	#define static
 207:../FreeRTOS/tasks.c **** #endif
 208:../FreeRTOS/tasks.c **** 
 209:../FreeRTOS/tasks.c **** /*lint -e956 A manual analysis and inspection has been used to determine which
 210:../FreeRTOS/tasks.c **** static variables must be declared volatile. */
 211:../FreeRTOS/tasks.c **** 
 212:../FreeRTOS/tasks.c **** PRIVILEGED_DATA TCB_t * volatile pxCurrentTCB = NULL;
 213:../FreeRTOS/tasks.c **** 
 214:../FreeRTOS/tasks.c **** /* Lists for ready and blocked tasks. --------------------*/
 215:../FreeRTOS/tasks.c **** PRIVILEGED_DATA static List_t pxReadyTasksLists[ configMAX_PRIORITIES ];/*< Prioritised ready tasks
 216:../FreeRTOS/tasks.c **** PRIVILEGED_DATA static List_t xDelayedTaskList1;						/*< Delayed tasks. */
 217:../FreeRTOS/tasks.c **** PRIVILEGED_DATA static List_t xDelayedTaskList2;						/*< Delayed tasks (two lists are used - one f
 218:../FreeRTOS/tasks.c **** PRIVILEGED_DATA static List_t * volatile pxDelayedTaskList;				/*< Points to the delayed task list 
 219:../FreeRTOS/tasks.c **** PRIVILEGED_DATA static List_t * volatile pxOverflowDelayedTaskList;		/*< Points to the delayed task
 220:../FreeRTOS/tasks.c **** PRIVILEGED_DATA static List_t xPendingReadyList;						/*< Tasks that have been readied while the sc
 221:../FreeRTOS/tasks.c **** 
 222:../FreeRTOS/tasks.c **** #if ( INCLUDE_vTaskDelete == 1 )
 223:../FreeRTOS/tasks.c **** 
 224:../FreeRTOS/tasks.c **** 	PRIVILEGED_DATA static List_t xTasksWaitingTermination;				/*< Tasks that have been deleted - but 
 225:../FreeRTOS/tasks.c **** 	PRIVILEGED_DATA static volatile UBaseType_t uxTasksDeleted = ( UBaseType_t ) 0U;
 226:../FreeRTOS/tasks.c **** 
 227:../FreeRTOS/tasks.c **** #endif
 228:../FreeRTOS/tasks.c **** 
 229:../FreeRTOS/tasks.c **** #if ( INCLUDE_vTaskSuspend == 1 )
 230:../FreeRTOS/tasks.c **** 
 231:../FreeRTOS/tasks.c **** 	PRIVILEGED_DATA static List_t xSuspendedTaskList;					/*< Tasks that are currently suspended. */
 232:../FreeRTOS/tasks.c **** 
 233:../FreeRTOS/tasks.c **** #endif
 234:../FreeRTOS/tasks.c **** 
 235:../FreeRTOS/tasks.c **** #if ( INCLUDE_xTaskGetIdleTaskHandle == 1 )
 236:../FreeRTOS/tasks.c **** 
 237:../FreeRTOS/tasks.c **** 	PRIVILEGED_DATA static TaskHandle_t xIdleTaskHandle = NULL;			/*< Holds the handle of the idle tas
 238:../FreeRTOS/tasks.c **** 
 239:../FreeRTOS/tasks.c **** #endif
 240:../FreeRTOS/tasks.c **** 
 241:../FreeRTOS/tasks.c **** /* Other file private variables. --------------------------------*/
 242:../FreeRTOS/tasks.c **** PRIVILEGED_DATA static volatile UBaseType_t uxCurrentNumberOfTasks 	= ( UBaseType_t ) 0U;
 243:../FreeRTOS/tasks.c **** PRIVILEGED_DATA static volatile TickType_t xTickCount 				= ( TickType_t ) 0U;
 244:../FreeRTOS/tasks.c **** PRIVILEGED_DATA static volatile UBaseType_t uxTopReadyPriority 		= tskIDLE_PRIORITY;
 245:../FreeRTOS/tasks.c **** PRIVILEGED_DATA static volatile BaseType_t xSchedulerRunning 		= pdFALSE;
 246:../FreeRTOS/tasks.c **** PRIVILEGED_DATA static volatile UBaseType_t uxPendedTicks 			= ( UBaseType_t ) 0U;
 247:../FreeRTOS/tasks.c **** PRIVILEGED_DATA static volatile BaseType_t xYieldPending 			= pdFALSE;
 248:../FreeRTOS/tasks.c **** PRIVILEGED_DATA static volatile BaseType_t xNumOfOverflows 			= ( BaseType_t ) 0;
 249:../FreeRTOS/tasks.c **** PRIVILEGED_DATA static UBaseType_t uxTaskNumber 					= ( UBaseType_t ) 0U;
 250:../FreeRTOS/tasks.c **** PRIVILEGED_DATA static volatile TickType_t xNextTaskUnblockTime		= ( TickType_t ) 0U; /* Initialise
 251:../FreeRTOS/tasks.c **** 
 252:../FreeRTOS/tasks.c **** /* Context switches are held pending while the scheduler is suspended.  Also,
 253:../FreeRTOS/tasks.c **** interrupts must not manipulate the xGenericListItem of a TCB, or any of the
 254:../FreeRTOS/tasks.c **** lists the xGenericListItem can be referenced from, if the scheduler is suspended.
 255:../FreeRTOS/tasks.c **** If an interrupt needs to unblock a task while the scheduler is suspended then it
 256:../FreeRTOS/tasks.c **** moves the task's event list item into the xPendingReadyList, ready for the
 257:../FreeRTOS/tasks.c **** kernel to move the task from the pending ready list into the real ready list
 258:../FreeRTOS/tasks.c **** when the scheduler is unsuspended.  The pending ready list itself can only be
 259:../FreeRTOS/tasks.c **** accessed from a critical section. */
 260:../FreeRTOS/tasks.c **** PRIVILEGED_DATA static volatile UBaseType_t uxSchedulerSuspended	= ( UBaseType_t ) pdFALSE;
 261:../FreeRTOS/tasks.c **** 
 262:../FreeRTOS/tasks.c **** #if ( configGENERATE_RUN_TIME_STATS == 1 )
 263:../FreeRTOS/tasks.c **** 
 264:../FreeRTOS/tasks.c **** 	PRIVILEGED_DATA static uint32_t ulTaskSwitchedInTime = 0UL;	/*< Holds the value of a timer/counter
 265:../FreeRTOS/tasks.c **** 	PRIVILEGED_DATA static uint32_t ulTotalRunTime = 0UL;		/*< Holds the total amount of execution tim
 266:../FreeRTOS/tasks.c **** 
 267:../FreeRTOS/tasks.c **** #endif
 268:../FreeRTOS/tasks.c **** 
 269:../FreeRTOS/tasks.c **** /*lint +e956 */
 270:../FreeRTOS/tasks.c **** 
 271:../FreeRTOS/tasks.c **** /* Debugging and trace facilities private variables and macros. ------------*/
 272:../FreeRTOS/tasks.c **** 
 273:../FreeRTOS/tasks.c **** /*
 274:../FreeRTOS/tasks.c ****  * The value used to fill the stack of a task when the task is created.  This
 275:../FreeRTOS/tasks.c ****  * is used purely for checking the high water mark for tasks.
 276:../FreeRTOS/tasks.c ****  */
 277:../FreeRTOS/tasks.c **** #define tskSTACK_FILL_BYTE	( 0xa5U )
 278:../FreeRTOS/tasks.c **** 
 279:../FreeRTOS/tasks.c **** /*
 280:../FreeRTOS/tasks.c ****  * Macros used by vListTask to indicate which state a task is in.
 281:../FreeRTOS/tasks.c ****  */
 282:../FreeRTOS/tasks.c **** #define tskBLOCKED_CHAR		( 'B' )
 283:../FreeRTOS/tasks.c **** #define tskREADY_CHAR		( 'R' )
 284:../FreeRTOS/tasks.c **** #define tskDELETED_CHAR		( 'D' )
 285:../FreeRTOS/tasks.c **** #define tskSUSPENDED_CHAR	( 'S' )
 286:../FreeRTOS/tasks.c **** 
 287:../FreeRTOS/tasks.c **** /*-----------------------------------------------------------*/
 288:../FreeRTOS/tasks.c **** 
 289:../FreeRTOS/tasks.c **** #if ( configUSE_PORT_OPTIMISED_TASK_SELECTION == 0 )
 290:../FreeRTOS/tasks.c **** 
 291:../FreeRTOS/tasks.c **** 	/* If configUSE_PORT_OPTIMISED_TASK_SELECTION is 0 then task selection is
 292:../FreeRTOS/tasks.c **** 	performed in a generic way that is not optimised to any particular
 293:../FreeRTOS/tasks.c **** 	microcontroller architecture. */
 294:../FreeRTOS/tasks.c **** 
 295:../FreeRTOS/tasks.c **** 	/* uxTopReadyPriority holds the priority of the highest priority ready
 296:../FreeRTOS/tasks.c **** 	state task. */
 297:../FreeRTOS/tasks.c **** 	#define taskRECORD_READY_PRIORITY( uxPriority )														\
 298:../FreeRTOS/tasks.c **** 	{																									\
 299:../FreeRTOS/tasks.c **** 		if( ( uxPriority ) > uxTopReadyPriority )														\
 300:../FreeRTOS/tasks.c **** 		{																								\
 301:../FreeRTOS/tasks.c **** 			uxTopReadyPriority = ( uxPriority );														\
 302:../FreeRTOS/tasks.c **** 		}																								\
 303:../FreeRTOS/tasks.c **** 	} /* taskRECORD_READY_PRIORITY */
 304:../FreeRTOS/tasks.c **** 
 305:../FreeRTOS/tasks.c **** 	/*-----------------------------------------------------------*/
 306:../FreeRTOS/tasks.c **** 
 307:../FreeRTOS/tasks.c **** 	#define taskSELECT_HIGHEST_PRIORITY_TASK()															\
 308:../FreeRTOS/tasks.c **** 	{																									\
 309:../FreeRTOS/tasks.c **** 		/* Find the highest priority queue that contains ready tasks. */								\
 310:../FreeRTOS/tasks.c **** 		while( listLIST_IS_EMPTY( &( pxReadyTasksLists[ uxTopReadyPriority ] ) ) )						\
 311:../FreeRTOS/tasks.c **** 		{																								\
 312:../FreeRTOS/tasks.c **** 			configASSERT( uxTopReadyPriority );															\
 313:../FreeRTOS/tasks.c **** 			--uxTopReadyPriority;																		\
 314:../FreeRTOS/tasks.c **** 		}																								\
 315:../FreeRTOS/tasks.c **** 																										\
 316:../FreeRTOS/tasks.c **** 		/* listGET_OWNER_OF_NEXT_ENTRY indexes through the list, so the tasks of						\
 317:../FreeRTOS/tasks.c **** 		the	same priority get an equal share of the processor time. */									\
 318:../FreeRTOS/tasks.c **** 		listGET_OWNER_OF_NEXT_ENTRY( pxCurrentTCB, &( pxReadyTasksLists[ uxTopReadyPriority ] ) );		\
 319:../FreeRTOS/tasks.c **** 	} /* taskSELECT_HIGHEST_PRIORITY_TASK */
 320:../FreeRTOS/tasks.c **** 
 321:../FreeRTOS/tasks.c **** 	/*-----------------------------------------------------------*/
 322:../FreeRTOS/tasks.c **** 
 323:../FreeRTOS/tasks.c **** 	/* Define away taskRESET_READY_PRIORITY() and portRESET_READY_PRIORITY() as
 324:../FreeRTOS/tasks.c **** 	they are only required when a port optimised method of task selection is
 325:../FreeRTOS/tasks.c **** 	being used. */
 326:../FreeRTOS/tasks.c **** 	#define taskRESET_READY_PRIORITY( uxPriority )
 327:../FreeRTOS/tasks.c **** 	#define portRESET_READY_PRIORITY( uxPriority, uxTopReadyPriority )
 328:../FreeRTOS/tasks.c **** 
 329:../FreeRTOS/tasks.c **** #else /* configUSE_PORT_OPTIMISED_TASK_SELECTION */
 330:../FreeRTOS/tasks.c **** 
 331:../FreeRTOS/tasks.c **** 	/* If configUSE_PORT_OPTIMISED_TASK_SELECTION is 1 then task selection is
 332:../FreeRTOS/tasks.c **** 	performed in a way that is tailored to the particular microcontroller
 333:../FreeRTOS/tasks.c **** 	architecture being used. */
 334:../FreeRTOS/tasks.c **** 
 335:../FreeRTOS/tasks.c **** 	/* A port optimised version is provided.  Call the port defined macros. */
 336:../FreeRTOS/tasks.c **** 	#define taskRECORD_READY_PRIORITY( uxPriority )	portRECORD_READY_PRIORITY( uxPriority, uxTopReadyP
 337:../FreeRTOS/tasks.c **** 
 338:../FreeRTOS/tasks.c **** 	/*-----------------------------------------------------------*/
 339:../FreeRTOS/tasks.c **** 
 340:../FreeRTOS/tasks.c **** 	#define taskSELECT_HIGHEST_PRIORITY_TASK()														\
 341:../FreeRTOS/tasks.c **** 	{																								\
 342:../FreeRTOS/tasks.c **** 	UBaseType_t uxTopPriority;																		\
 343:../FreeRTOS/tasks.c **** 																									\
 344:../FreeRTOS/tasks.c **** 		/* Find the highest priority queue that contains ready tasks. */							\
 345:../FreeRTOS/tasks.c **** 		portGET_HIGHEST_PRIORITY( uxTopPriority, uxTopReadyPriority );								\
 346:../FreeRTOS/tasks.c **** 		configASSERT( listCURRENT_LIST_LENGTH( &( pxReadyTasksLists[ uxTopPriority ] ) ) > 0 );		\
 347:../FreeRTOS/tasks.c **** 		listGET_OWNER_OF_NEXT_ENTRY( pxCurrentTCB, &( pxReadyTasksLists[ uxTopPriority ] ) );		\
 348:../FreeRTOS/tasks.c **** 	} /* taskSELECT_HIGHEST_PRIORITY_TASK() */
 349:../FreeRTOS/tasks.c **** 
 350:../FreeRTOS/tasks.c **** 	/*-----------------------------------------------------------*/
 351:../FreeRTOS/tasks.c **** 
 352:../FreeRTOS/tasks.c **** 	/* A port optimised version is provided, call it only if the TCB being reset
 353:../FreeRTOS/tasks.c **** 	is being referenced from a ready list.  If it is referenced from a delayed
 354:../FreeRTOS/tasks.c **** 	or suspended list then it won't be in a ready list. */
 355:../FreeRTOS/tasks.c **** 	#define taskRESET_READY_PRIORITY( uxPriority )														\
 356:../FreeRTOS/tasks.c **** 	{																									\
 357:../FreeRTOS/tasks.c **** 		if( listCURRENT_LIST_LENGTH( &( pxReadyTasksLists[ ( uxPriority ) ] ) ) == ( UBaseType_t ) 0 )	\
 358:../FreeRTOS/tasks.c **** 		{																								\
 359:../FreeRTOS/tasks.c **** 			portRESET_READY_PRIORITY( ( uxPriority ), ( uxTopReadyPriority ) );							\
 360:../FreeRTOS/tasks.c **** 		}																								\
 361:../FreeRTOS/tasks.c **** 	}
 362:../FreeRTOS/tasks.c **** 
 363:../FreeRTOS/tasks.c **** #endif /* configUSE_PORT_OPTIMISED_TASK_SELECTION */
 364:../FreeRTOS/tasks.c **** 
 365:../FreeRTOS/tasks.c **** /*-----------------------------------------------------------*/
 366:../FreeRTOS/tasks.c **** 
 367:../FreeRTOS/tasks.c **** /* pxDelayedTaskList and pxOverflowDelayedTaskList are switched when the tick
 368:../FreeRTOS/tasks.c **** count overflows. */
 369:../FreeRTOS/tasks.c **** #define taskSWITCH_DELAYED_LISTS()																	\
 370:../FreeRTOS/tasks.c **** {																									\
 371:../FreeRTOS/tasks.c **** 	List_t *pxTemp;																					\
 372:../FreeRTOS/tasks.c **** 																									\
 373:../FreeRTOS/tasks.c **** 	/* The delayed tasks list should be empty when the lists are switched. */						\
 374:../FreeRTOS/tasks.c **** 	configASSERT( ( listLIST_IS_EMPTY( pxDelayedTaskList ) ) );										\
 375:../FreeRTOS/tasks.c **** 																									\
 376:../FreeRTOS/tasks.c **** 	pxTemp = pxDelayedTaskList;																		\
 377:../FreeRTOS/tasks.c **** 	pxDelayedTaskList = pxOverflowDelayedTaskList;													\
 378:../FreeRTOS/tasks.c **** 	pxOverflowDelayedTaskList = pxTemp;																\
 379:../FreeRTOS/tasks.c **** 	xNumOfOverflows++;																				\
 380:../FreeRTOS/tasks.c **** 	prvResetNextTaskUnblockTime();																	\
 381:../FreeRTOS/tasks.c **** }
 382:../FreeRTOS/tasks.c **** 
 383:../FreeRTOS/tasks.c **** /*-----------------------------------------------------------*/
 384:../FreeRTOS/tasks.c **** 
 385:../FreeRTOS/tasks.c **** /*
 386:../FreeRTOS/tasks.c ****  * Place the task represented by pxTCB into the appropriate ready list for
 387:../FreeRTOS/tasks.c ****  * the task.  It is inserted at the end of the list.
 388:../FreeRTOS/tasks.c ****  */
 389:../FreeRTOS/tasks.c **** #define prvAddTaskToReadyList( pxTCB )																\
 390:../FreeRTOS/tasks.c **** 	traceMOVED_TASK_TO_READY_STATE( pxTCB );														\
 391:../FreeRTOS/tasks.c **** 	taskRECORD_READY_PRIORITY( ( pxTCB )->uxPriority );												\
 392:../FreeRTOS/tasks.c **** 	vListInsertEnd( &( pxReadyTasksLists[ ( pxTCB )->uxPriority ] ), &( ( pxTCB )->xGenericListItem ) 
 393:../FreeRTOS/tasks.c **** /*-----------------------------------------------------------*/
 394:../FreeRTOS/tasks.c **** 
 395:../FreeRTOS/tasks.c **** /*
 396:../FreeRTOS/tasks.c ****  * Several functions take an TaskHandle_t parameter that can optionally be NULL,
 397:../FreeRTOS/tasks.c ****  * where NULL is used to indicate that the handle of the currently executing
 398:../FreeRTOS/tasks.c ****  * task should be used in place of the parameter.  This macro simply checks to
 399:../FreeRTOS/tasks.c ****  * see if the parameter is NULL and returns a pointer to the appropriate TCB.
 400:../FreeRTOS/tasks.c ****  */
 401:../FreeRTOS/tasks.c **** #define prvGetTCBFromHandle( pxHandle ) ( ( ( pxHandle ) == NULL ) ? ( TCB_t * ) pxCurrentTCB : ( T
 402:../FreeRTOS/tasks.c **** 
 403:../FreeRTOS/tasks.c **** /* The item value of the event list item is normally used to hold the priority
 404:../FreeRTOS/tasks.c **** of the task to which it belongs (coded to allow it to be held in reverse
 405:../FreeRTOS/tasks.c **** priority order).  However, it is occasionally borrowed for other purposes.  It
 406:../FreeRTOS/tasks.c **** is important its value is not updated due to a task priority change while it is
 407:../FreeRTOS/tasks.c **** being used for another purpose.  The following bit definition is used to inform
 408:../FreeRTOS/tasks.c **** the scheduler that the value should not be changed - in which case it is the
 409:../FreeRTOS/tasks.c **** responsibility of whichever module is using the value to ensure it gets set back
 410:../FreeRTOS/tasks.c **** to its original value when it is released. */
 411:../FreeRTOS/tasks.c **** #if configUSE_16_BIT_TICKS == 1
 412:../FreeRTOS/tasks.c **** 	#define taskEVENT_LIST_ITEM_VALUE_IN_USE	0x8000U
 413:../FreeRTOS/tasks.c **** #else
 414:../FreeRTOS/tasks.c **** 	#define taskEVENT_LIST_ITEM_VALUE_IN_USE	0x80000000UL
 415:../FreeRTOS/tasks.c **** #endif
 416:../FreeRTOS/tasks.c **** 
 417:../FreeRTOS/tasks.c **** /* Callback function prototypes. --------------------------*/
 418:../FreeRTOS/tasks.c **** #if configCHECK_FOR_STACK_OVERFLOW > 0
 419:../FreeRTOS/tasks.c **** 	extern void vApplicationStackOverflowHook( TaskHandle_t xTask, char *pcTaskName );
 420:../FreeRTOS/tasks.c **** #endif
 421:../FreeRTOS/tasks.c **** 
 422:../FreeRTOS/tasks.c **** #if configUSE_TICK_HOOK > 0
 423:../FreeRTOS/tasks.c **** 	extern void vApplicationTickHook( void );
 424:../FreeRTOS/tasks.c **** #endif
 425:../FreeRTOS/tasks.c **** 
 426:../FreeRTOS/tasks.c **** /* File private functions. --------------------------------*/
 427:../FreeRTOS/tasks.c **** 
 428:../FreeRTOS/tasks.c **** /*
 429:../FreeRTOS/tasks.c ****  * Utility to ready a TCB for a given task.  Mainly just copies the parameters
 430:../FreeRTOS/tasks.c ****  * into the TCB structure.
 431:../FreeRTOS/tasks.c ****  */
 432:../FreeRTOS/tasks.c **** static void prvInitialiseTCBVariables( TCB_t * const pxTCB, const char * const pcName, UBaseType_t 
 433:../FreeRTOS/tasks.c **** 
 434:../FreeRTOS/tasks.c **** /**
 435:../FreeRTOS/tasks.c ****  * Utility task that simply returns pdTRUE if the task referenced by xTask is
 436:../FreeRTOS/tasks.c ****  * currently in the Suspended state, or pdFALSE if the task referenced by xTask
 437:../FreeRTOS/tasks.c ****  * is in any other state.
 438:../FreeRTOS/tasks.c ****  */
 439:../FreeRTOS/tasks.c **** #if ( INCLUDE_vTaskSuspend == 1 )
 440:../FreeRTOS/tasks.c **** 	static BaseType_t prvTaskIsTaskSuspended( const TaskHandle_t xTask ) PRIVILEGED_FUNCTION;
 441:../FreeRTOS/tasks.c **** #endif /* INCLUDE_vTaskSuspend */
 442:../FreeRTOS/tasks.c **** 
 443:../FreeRTOS/tasks.c **** /*
 444:../FreeRTOS/tasks.c ****  * Utility to ready all the lists used by the scheduler.  This is called
 445:../FreeRTOS/tasks.c ****  * automatically upon the creation of the first task.
 446:../FreeRTOS/tasks.c ****  */
 447:../FreeRTOS/tasks.c **** static void prvInitialiseTaskLists( void ) PRIVILEGED_FUNCTION;
 448:../FreeRTOS/tasks.c **** 
 449:../FreeRTOS/tasks.c **** /*
 450:../FreeRTOS/tasks.c ****  * The idle task, which as all tasks is implemented as a never ending loop.
 451:../FreeRTOS/tasks.c ****  * The idle task is automatically created and added to the ready lists upon
 452:../FreeRTOS/tasks.c ****  * creation of the first user task.
 453:../FreeRTOS/tasks.c ****  *
 454:../FreeRTOS/tasks.c ****  * The portTASK_FUNCTION_PROTO() macro is used to allow port/compiler specific
 455:../FreeRTOS/tasks.c ****  * language extensions.  The equivalent prototype for this function is:
 456:../FreeRTOS/tasks.c ****  *
 457:../FreeRTOS/tasks.c ****  * void prvIdleTask( void *pvParameters );
 458:../FreeRTOS/tasks.c ****  *
 459:../FreeRTOS/tasks.c ****  */
 460:../FreeRTOS/tasks.c **** static portTASK_FUNCTION_PROTO( prvIdleTask, pvParameters );
 461:../FreeRTOS/tasks.c **** 
 462:../FreeRTOS/tasks.c **** /*
 463:../FreeRTOS/tasks.c ****  * Utility to free all memory allocated by the scheduler to hold a TCB,
 464:../FreeRTOS/tasks.c ****  * including the stack pointed to by the TCB.
 465:../FreeRTOS/tasks.c ****  *
 466:../FreeRTOS/tasks.c ****  * This does not free memory allocated by the task itself (i.e. memory
 467:../FreeRTOS/tasks.c ****  * allocated by calls to pvPortMalloc from within the tasks application code).
 468:../FreeRTOS/tasks.c ****  */
 469:../FreeRTOS/tasks.c **** #if ( INCLUDE_vTaskDelete == 1 )
 470:../FreeRTOS/tasks.c **** 
 471:../FreeRTOS/tasks.c **** 	static void prvDeleteTCB( TCB_t *pxTCB ) PRIVILEGED_FUNCTION;
 472:../FreeRTOS/tasks.c **** 
 473:../FreeRTOS/tasks.c **** #endif
 474:../FreeRTOS/tasks.c **** 
 475:../FreeRTOS/tasks.c **** /*
 476:../FreeRTOS/tasks.c ****  * Used only by the idle task.  This checks to see if anything has been placed
 477:../FreeRTOS/tasks.c ****  * in the list of tasks waiting to be deleted.  If so the task is cleaned up
 478:../FreeRTOS/tasks.c ****  * and its TCB deleted.
 479:../FreeRTOS/tasks.c ****  */
 480:../FreeRTOS/tasks.c **** static void prvCheckTasksWaitingTermination( void ) PRIVILEGED_FUNCTION;
 481:../FreeRTOS/tasks.c **** 
 482:../FreeRTOS/tasks.c **** /*
 483:../FreeRTOS/tasks.c ****  * The currently executing task is entering the Blocked state.  Add the task to
 484:../FreeRTOS/tasks.c ****  * either the current or the overflow delayed task list.
 485:../FreeRTOS/tasks.c ****  */
 486:../FreeRTOS/tasks.c **** static void prvAddCurrentTaskToDelayedList( const TickType_t xTimeToWake ) PRIVILEGED_FUNCTION;
 487:../FreeRTOS/tasks.c **** 
 488:../FreeRTOS/tasks.c **** /*
 489:../FreeRTOS/tasks.c ****  * Allocates memory from the heap for a TCB and associated stack.  Checks the
 490:../FreeRTOS/tasks.c ****  * allocation was successful.
 491:../FreeRTOS/tasks.c ****  */
 492:../FreeRTOS/tasks.c **** static TCB_t *prvAllocateTCBAndStack( const uint16_t usStackDepth, StackType_t * const puxStackBuff
 493:../FreeRTOS/tasks.c **** 
 494:../FreeRTOS/tasks.c **** /*
 495:../FreeRTOS/tasks.c ****  * Fills an TaskStatus_t structure with information on each task that is
 496:../FreeRTOS/tasks.c ****  * referenced from the pxList list (which may be a ready list, a delayed list,
 497:../FreeRTOS/tasks.c ****  * a suspended list, etc.).
 498:../FreeRTOS/tasks.c ****  *
 499:../FreeRTOS/tasks.c ****  * THIS FUNCTION IS INTENDED FOR DEBUGGING ONLY, AND SHOULD NOT BE CALLED FROM
 500:../FreeRTOS/tasks.c ****  * NORMAL APPLICATION CODE.
 501:../FreeRTOS/tasks.c ****  */
 502:../FreeRTOS/tasks.c **** #if ( configUSE_TRACE_FACILITY == 1 )
 503:../FreeRTOS/tasks.c **** 
 504:../FreeRTOS/tasks.c **** 	static UBaseType_t prvListTaskWithinSingleList( TaskStatus_t *pxTaskStatusArray, List_t *pxList, e
 505:../FreeRTOS/tasks.c **** 
 506:../FreeRTOS/tasks.c **** #endif
 507:../FreeRTOS/tasks.c **** 
 508:../FreeRTOS/tasks.c **** /*
 509:../FreeRTOS/tasks.c ****  * When a task is created, the stack of the task is filled with a known value.
 510:../FreeRTOS/tasks.c ****  * This function determines the 'high water mark' of the task stack by
 511:../FreeRTOS/tasks.c ****  * determining how much of the stack remains at the original preset value.
 512:../FreeRTOS/tasks.c ****  */
 513:../FreeRTOS/tasks.c **** #if ( ( configUSE_TRACE_FACILITY == 1 ) || ( INCLUDE_uxTaskGetStackHighWaterMark == 1 ) )
 514:../FreeRTOS/tasks.c **** 
 515:../FreeRTOS/tasks.c **** 	static uint16_t prvTaskCheckFreeStackSpace( const uint8_t * pucStackByte ) PRIVILEGED_FUNCTION;
 516:../FreeRTOS/tasks.c **** 
 517:../FreeRTOS/tasks.c **** #endif
 518:../FreeRTOS/tasks.c **** 
 519:../FreeRTOS/tasks.c **** /*
 520:../FreeRTOS/tasks.c ****  * Return the amount of time, in ticks, that will pass before the kernel will
 521:../FreeRTOS/tasks.c ****  * next move a task from the Blocked state to the Running state.
 522:../FreeRTOS/tasks.c ****  *
 523:../FreeRTOS/tasks.c ****  * This conditional compilation should use inequality to 0, not equality to 1.
 524:../FreeRTOS/tasks.c ****  * This is to ensure portSUPPRESS_TICKS_AND_SLEEP() can be called when user
 525:../FreeRTOS/tasks.c ****  * defined low power mode implementations require configUSE_TICKLESS_IDLE to be
 526:../FreeRTOS/tasks.c ****  * set to a value other than 1.
 527:../FreeRTOS/tasks.c ****  */
 528:../FreeRTOS/tasks.c **** #if ( configUSE_TICKLESS_IDLE != 0 )
 529:../FreeRTOS/tasks.c **** 
 530:../FreeRTOS/tasks.c **** 	static TickType_t prvGetExpectedIdleTime( void ) PRIVILEGED_FUNCTION;
 531:../FreeRTOS/tasks.c **** 
 532:../FreeRTOS/tasks.c **** #endif
 533:../FreeRTOS/tasks.c **** 
 534:../FreeRTOS/tasks.c **** /*
 535:../FreeRTOS/tasks.c ****  * Set xNextTaskUnblockTime to the time at which the next Blocked state task
 536:../FreeRTOS/tasks.c ****  * will exit the Blocked state.
 537:../FreeRTOS/tasks.c ****  */
 538:../FreeRTOS/tasks.c **** static void prvResetNextTaskUnblockTime( void );
 539:../FreeRTOS/tasks.c **** 
 540:../FreeRTOS/tasks.c **** #if ( ( configUSE_TRACE_FACILITY == 1 ) && ( configUSE_STATS_FORMATTING_FUNCTIONS > 0 ) )
 541:../FreeRTOS/tasks.c **** 
 542:../FreeRTOS/tasks.c **** 	/*
 543:../FreeRTOS/tasks.c **** 	 * Helper function used to pad task names with spaces when printing out
 544:../FreeRTOS/tasks.c **** 	 * human readable tables of task information.
 545:../FreeRTOS/tasks.c **** 	 */
 546:../FreeRTOS/tasks.c **** 	static char *prvWriteNameToBuffer( char *pcBuffer, const char *pcTaskName );
 547:../FreeRTOS/tasks.c **** 
 548:../FreeRTOS/tasks.c **** #endif
 549:../FreeRTOS/tasks.c **** /*-----------------------------------------------------------*/
 550:../FreeRTOS/tasks.c **** 
 551:../FreeRTOS/tasks.c **** BaseType_t xTaskGenericCreate( TaskFunction_t pxTaskCode, const char * const pcName, const uint16_t
 552:../FreeRTOS/tasks.c **** {
 150              		.loc 1 552 0
 151              		.cfi_startproc
 152              		@ args = 16, pretend = 0, frame = 40
 153              		@ frame_needed = 1, uses_anonymous_args = 0
 154 0000 80B5     		push	{r7, lr}
 155              		.cfi_def_cfa_offset 8
 156              		.cfi_offset 7, -8
 157              		.cfi_offset 14, -4
 158 0002 8CB0     		sub	sp, sp, #48
 159              		.cfi_def_cfa_offset 56
 160 0004 02AF     		add	r7, sp, #8
 161              		.cfi_def_cfa 7, 48
 162 0006 F860     		str	r0, [r7, #12]
 163 0008 B960     		str	r1, [r7, #8]
 164 000a 3B60     		str	r3, [r7]
 165 000c 1346     		mov	r3, r2	@ movhi
 166 000e FB80     		strh	r3, [r7, #6]	@ movhi
 553:../FreeRTOS/tasks.c **** BaseType_t xReturn;
 554:../FreeRTOS/tasks.c **** TCB_t * pxNewTCB;
 555:../FreeRTOS/tasks.c **** StackType_t *pxTopOfStack;
 556:../FreeRTOS/tasks.c **** 
 557:../FreeRTOS/tasks.c **** 	configASSERT( pxTaskCode );
 167              		.loc 1 557 0
 168 0010 FB68     		ldr	r3, [r7, #12]
 169 0012 002B     		cmp	r3, #0
 170 0014 09D1     		bne	.L2
 171              	.LBB102:
 172              	.LBB103:
 173              		.file 2 "/home/houxd/workspaceS32DS.ARM.V20/dp1000/FreeRTOS/include/../../FreeRTOS/include/../../F
   1:/home/houxd/workspaceS32DS.ARM.V20/dp1000/FreeRTOS/include/../../FreeRTOS/include/../../FreeRTOS/portable/GCC/ARM_CM4F/portmacro.h **** /*
   2:/home/houxd/workspaceS32DS.ARM.V20/dp1000/FreeRTOS/include/../../FreeRTOS/include/../../FreeRTOS/portable/GCC/ARM_CM4F/portmacro.h ****     FreeRTOS V8.2.1 - Copyright (C) 2015 Real Time Engineers Ltd.
   3:/home/houxd/workspaceS32DS.ARM.V20/dp1000/FreeRTOS/include/../../FreeRTOS/include/../../FreeRTOS/portable/GCC/ARM_CM4F/portmacro.h ****     All rights reserved
   4:/home/houxd/workspaceS32DS.ARM.V20/dp1000/FreeRTOS/include/../../FreeRTOS/include/../../FreeRTOS/portable/GCC/ARM_CM4F/portmacro.h **** 
   5:/home/houxd/workspaceS32DS.ARM.V20/dp1000/FreeRTOS/include/../../FreeRTOS/include/../../FreeRTOS/portable/GCC/ARM_CM4F/portmacro.h ****     VISIT http://www.FreeRTOS.org TO ENSURE YOU ARE USING THE LATEST VERSION.
   6:/home/houxd/workspaceS32DS.ARM.V20/dp1000/FreeRTOS/include/../../FreeRTOS/include/../../FreeRTOS/portable/GCC/ARM_CM4F/portmacro.h **** 
   7:/home/houxd/workspaceS32DS.ARM.V20/dp1000/FreeRTOS/include/../../FreeRTOS/include/../../FreeRTOS/portable/GCC/ARM_CM4F/portmacro.h ****     This file is part of the FreeRTOS distribution.
   8:/home/houxd/workspaceS32DS.ARM.V20/dp1000/FreeRTOS/include/../../FreeRTOS/include/../../FreeRTOS/portable/GCC/ARM_CM4F/portmacro.h **** 
   9:/home/houxd/workspaceS32DS.ARM.V20/dp1000/FreeRTOS/include/../../FreeRTOS/include/../../FreeRTOS/portable/GCC/ARM_CM4F/portmacro.h ****     FreeRTOS is free software; you can redistribute it and/or modify it under
  10:/home/houxd/workspaceS32DS.ARM.V20/dp1000/FreeRTOS/include/../../FreeRTOS/include/../../FreeRTOS/portable/GCC/ARM_CM4F/portmacro.h ****     the terms of the GNU General Public License (version 2) as published by the
  11:/home/houxd/workspaceS32DS.ARM.V20/dp1000/FreeRTOS/include/../../FreeRTOS/include/../../FreeRTOS/portable/GCC/ARM_CM4F/portmacro.h ****     Free Software Foundation >>!AND MODIFIED BY!<< the FreeRTOS exception.
  12:/home/houxd/workspaceS32DS.ARM.V20/dp1000/FreeRTOS/include/../../FreeRTOS/include/../../FreeRTOS/portable/GCC/ARM_CM4F/portmacro.h **** 
  13:/home/houxd/workspaceS32DS.ARM.V20/dp1000/FreeRTOS/include/../../FreeRTOS/include/../../FreeRTOS/portable/GCC/ARM_CM4F/portmacro.h ****     ***************************************************************************
  14:/home/houxd/workspaceS32DS.ARM.V20/dp1000/FreeRTOS/include/../../FreeRTOS/include/../../FreeRTOS/portable/GCC/ARM_CM4F/portmacro.h ****     >>!   NOTE: The modification to the GPL is included to allow you to     !<<
  15:/home/houxd/workspaceS32DS.ARM.V20/dp1000/FreeRTOS/include/../../FreeRTOS/include/../../FreeRTOS/portable/GCC/ARM_CM4F/portmacro.h ****     >>!   distribute a combined work that includes FreeRTOS without being   !<<
  16:/home/houxd/workspaceS32DS.ARM.V20/dp1000/FreeRTOS/include/../../FreeRTOS/include/../../FreeRTOS/portable/GCC/ARM_CM4F/portmacro.h ****     >>!   obliged to provide the source code for proprietary components     !<<
  17:/home/houxd/workspaceS32DS.ARM.V20/dp1000/FreeRTOS/include/../../FreeRTOS/include/../../FreeRTOS/portable/GCC/ARM_CM4F/portmacro.h ****     >>!   outside of the FreeRTOS kernel.                                   !<<
  18:/home/houxd/workspaceS32DS.ARM.V20/dp1000/FreeRTOS/include/../../FreeRTOS/include/../../FreeRTOS/portable/GCC/ARM_CM4F/portmacro.h ****     ***************************************************************************
  19:/home/houxd/workspaceS32DS.ARM.V20/dp1000/FreeRTOS/include/../../FreeRTOS/include/../../FreeRTOS/portable/GCC/ARM_CM4F/portmacro.h **** 
  20:/home/houxd/workspaceS32DS.ARM.V20/dp1000/FreeRTOS/include/../../FreeRTOS/include/../../FreeRTOS/portable/GCC/ARM_CM4F/portmacro.h ****     FreeRTOS is distributed in the hope that it will be useful, but WITHOUT ANY
  21:/home/houxd/workspaceS32DS.ARM.V20/dp1000/FreeRTOS/include/../../FreeRTOS/include/../../FreeRTOS/portable/GCC/ARM_CM4F/portmacro.h ****     WARRANTY; without even the implied warranty of MERCHANTABILITY or FITNESS
  22:/home/houxd/workspaceS32DS.ARM.V20/dp1000/FreeRTOS/include/../../FreeRTOS/include/../../FreeRTOS/portable/GCC/ARM_CM4F/portmacro.h ****     FOR A PARTICULAR PURPOSE.  Full license text is available on the following
  23:/home/houxd/workspaceS32DS.ARM.V20/dp1000/FreeRTOS/include/../../FreeRTOS/include/../../FreeRTOS/portable/GCC/ARM_CM4F/portmacro.h ****     link: http://www.freertos.org/a00114.html
  24:/home/houxd/workspaceS32DS.ARM.V20/dp1000/FreeRTOS/include/../../FreeRTOS/include/../../FreeRTOS/portable/GCC/ARM_CM4F/portmacro.h **** 
  25:/home/houxd/workspaceS32DS.ARM.V20/dp1000/FreeRTOS/include/../../FreeRTOS/include/../../FreeRTOS/portable/GCC/ARM_CM4F/portmacro.h ****     ***************************************************************************
  26:/home/houxd/workspaceS32DS.ARM.V20/dp1000/FreeRTOS/include/../../FreeRTOS/include/../../FreeRTOS/portable/GCC/ARM_CM4F/portmacro.h ****      *                                                                       *
  27:/home/houxd/workspaceS32DS.ARM.V20/dp1000/FreeRTOS/include/../../FreeRTOS/include/../../FreeRTOS/portable/GCC/ARM_CM4F/portmacro.h ****      *    FreeRTOS provides completely free yet professionally developed,    *
  28:/home/houxd/workspaceS32DS.ARM.V20/dp1000/FreeRTOS/include/../../FreeRTOS/include/../../FreeRTOS/portable/GCC/ARM_CM4F/portmacro.h ****      *    robust, strictly quality controlled, supported, and cross          *
  29:/home/houxd/workspaceS32DS.ARM.V20/dp1000/FreeRTOS/include/../../FreeRTOS/include/../../FreeRTOS/portable/GCC/ARM_CM4F/portmacro.h ****      *    platform software that is more than just the market leader, it     *
  30:/home/houxd/workspaceS32DS.ARM.V20/dp1000/FreeRTOS/include/../../FreeRTOS/include/../../FreeRTOS/portable/GCC/ARM_CM4F/portmacro.h ****      *    is the industry's de facto standard.                               *
  31:/home/houxd/workspaceS32DS.ARM.V20/dp1000/FreeRTOS/include/../../FreeRTOS/include/../../FreeRTOS/portable/GCC/ARM_CM4F/portmacro.h ****      *                                                                       *
  32:/home/houxd/workspaceS32DS.ARM.V20/dp1000/FreeRTOS/include/../../FreeRTOS/include/../../FreeRTOS/portable/GCC/ARM_CM4F/portmacro.h ****      *    Help yourself get started quickly while simultaneously helping     *
  33:/home/houxd/workspaceS32DS.ARM.V20/dp1000/FreeRTOS/include/../../FreeRTOS/include/../../FreeRTOS/portable/GCC/ARM_CM4F/portmacro.h ****      *    to support the FreeRTOS project by purchasing a FreeRTOS           *
  34:/home/houxd/workspaceS32DS.ARM.V20/dp1000/FreeRTOS/include/../../FreeRTOS/include/../../FreeRTOS/portable/GCC/ARM_CM4F/portmacro.h ****      *    tutorial book, reference manual, or both:                          *
  35:/home/houxd/workspaceS32DS.ARM.V20/dp1000/FreeRTOS/include/../../FreeRTOS/include/../../FreeRTOS/portable/GCC/ARM_CM4F/portmacro.h ****      *    http://www.FreeRTOS.org/Documentation                              *
  36:/home/houxd/workspaceS32DS.ARM.V20/dp1000/FreeRTOS/include/../../FreeRTOS/include/../../FreeRTOS/portable/GCC/ARM_CM4F/portmacro.h ****      *                                                                       *
  37:/home/houxd/workspaceS32DS.ARM.V20/dp1000/FreeRTOS/include/../../FreeRTOS/include/../../FreeRTOS/portable/GCC/ARM_CM4F/portmacro.h ****     ***************************************************************************
  38:/home/houxd/workspaceS32DS.ARM.V20/dp1000/FreeRTOS/include/../../FreeRTOS/include/../../FreeRTOS/portable/GCC/ARM_CM4F/portmacro.h **** 
  39:/home/houxd/workspaceS32DS.ARM.V20/dp1000/FreeRTOS/include/../../FreeRTOS/include/../../FreeRTOS/portable/GCC/ARM_CM4F/portmacro.h ****     http://www.FreeRTOS.org/FAQHelp.html - Having a problem?  Start by reading
  40:/home/houxd/workspaceS32DS.ARM.V20/dp1000/FreeRTOS/include/../../FreeRTOS/include/../../FreeRTOS/portable/GCC/ARM_CM4F/portmacro.h ****     the FAQ page "My application does not run, what could be wrong?".  Have you
  41:/home/houxd/workspaceS32DS.ARM.V20/dp1000/FreeRTOS/include/../../FreeRTOS/include/../../FreeRTOS/portable/GCC/ARM_CM4F/portmacro.h ****     defined configASSERT()?
  42:/home/houxd/workspaceS32DS.ARM.V20/dp1000/FreeRTOS/include/../../FreeRTOS/include/../../FreeRTOS/portable/GCC/ARM_CM4F/portmacro.h **** 
  43:/home/houxd/workspaceS32DS.ARM.V20/dp1000/FreeRTOS/include/../../FreeRTOS/include/../../FreeRTOS/portable/GCC/ARM_CM4F/portmacro.h ****     http://www.FreeRTOS.org/support - In return for receiving this top quality
  44:/home/houxd/workspaceS32DS.ARM.V20/dp1000/FreeRTOS/include/../../FreeRTOS/include/../../FreeRTOS/portable/GCC/ARM_CM4F/portmacro.h ****     embedded software for free we request you assist our global community by
  45:/home/houxd/workspaceS32DS.ARM.V20/dp1000/FreeRTOS/include/../../FreeRTOS/include/../../FreeRTOS/portable/GCC/ARM_CM4F/portmacro.h ****     participating in the support forum.
  46:/home/houxd/workspaceS32DS.ARM.V20/dp1000/FreeRTOS/include/../../FreeRTOS/include/../../FreeRTOS/portable/GCC/ARM_CM4F/portmacro.h **** 
  47:/home/houxd/workspaceS32DS.ARM.V20/dp1000/FreeRTOS/include/../../FreeRTOS/include/../../FreeRTOS/portable/GCC/ARM_CM4F/portmacro.h ****     http://www.FreeRTOS.org/training - Investing in training allows your team to
  48:/home/houxd/workspaceS32DS.ARM.V20/dp1000/FreeRTOS/include/../../FreeRTOS/include/../../FreeRTOS/portable/GCC/ARM_CM4F/portmacro.h ****     be as productive as possible as early as possible.  Now you can receive
  49:/home/houxd/workspaceS32DS.ARM.V20/dp1000/FreeRTOS/include/../../FreeRTOS/include/../../FreeRTOS/portable/GCC/ARM_CM4F/portmacro.h ****     FreeRTOS training directly from Richard Barry, CEO of Real Time Engineers
  50:/home/houxd/workspaceS32DS.ARM.V20/dp1000/FreeRTOS/include/../../FreeRTOS/include/../../FreeRTOS/portable/GCC/ARM_CM4F/portmacro.h ****     Ltd, and the world's leading authority on the world's leading RTOS.
  51:/home/houxd/workspaceS32DS.ARM.V20/dp1000/FreeRTOS/include/../../FreeRTOS/include/../../FreeRTOS/portable/GCC/ARM_CM4F/portmacro.h **** 
  52:/home/houxd/workspaceS32DS.ARM.V20/dp1000/FreeRTOS/include/../../FreeRTOS/include/../../FreeRTOS/portable/GCC/ARM_CM4F/portmacro.h ****     http://www.FreeRTOS.org/plus - A selection of FreeRTOS ecosystem products,
  53:/home/houxd/workspaceS32DS.ARM.V20/dp1000/FreeRTOS/include/../../FreeRTOS/include/../../FreeRTOS/portable/GCC/ARM_CM4F/portmacro.h ****     including FreeRTOS+Trace - an indispensable productivity tool, a DOS
  54:/home/houxd/workspaceS32DS.ARM.V20/dp1000/FreeRTOS/include/../../FreeRTOS/include/../../FreeRTOS/portable/GCC/ARM_CM4F/portmacro.h ****     compatible FAT file system, and our tiny thread aware UDP/IP stack.
  55:/home/houxd/workspaceS32DS.ARM.V20/dp1000/FreeRTOS/include/../../FreeRTOS/include/../../FreeRTOS/portable/GCC/ARM_CM4F/portmacro.h **** 
  56:/home/houxd/workspaceS32DS.ARM.V20/dp1000/FreeRTOS/include/../../FreeRTOS/include/../../FreeRTOS/portable/GCC/ARM_CM4F/portmacro.h ****     http://www.FreeRTOS.org/labs - Where new FreeRTOS products go to incubate.
  57:/home/houxd/workspaceS32DS.ARM.V20/dp1000/FreeRTOS/include/../../FreeRTOS/include/../../FreeRTOS/portable/GCC/ARM_CM4F/portmacro.h ****     Come and try FreeRTOS+TCP, our new open source TCP/IP stack for FreeRTOS.
  58:/home/houxd/workspaceS32DS.ARM.V20/dp1000/FreeRTOS/include/../../FreeRTOS/include/../../FreeRTOS/portable/GCC/ARM_CM4F/portmacro.h **** 
  59:/home/houxd/workspaceS32DS.ARM.V20/dp1000/FreeRTOS/include/../../FreeRTOS/include/../../FreeRTOS/portable/GCC/ARM_CM4F/portmacro.h ****     http://www.OpenRTOS.com - Real Time Engineers ltd. license FreeRTOS to High
  60:/home/houxd/workspaceS32DS.ARM.V20/dp1000/FreeRTOS/include/../../FreeRTOS/include/../../FreeRTOS/portable/GCC/ARM_CM4F/portmacro.h ****     Integrity Systems ltd. to sell under the OpenRTOS brand.  Low cost OpenRTOS
  61:/home/houxd/workspaceS32DS.ARM.V20/dp1000/FreeRTOS/include/../../FreeRTOS/include/../../FreeRTOS/portable/GCC/ARM_CM4F/portmacro.h ****     licenses offer ticketed support, indemnification and commercial middleware.
  62:/home/houxd/workspaceS32DS.ARM.V20/dp1000/FreeRTOS/include/../../FreeRTOS/include/../../FreeRTOS/portable/GCC/ARM_CM4F/portmacro.h **** 
  63:/home/houxd/workspaceS32DS.ARM.V20/dp1000/FreeRTOS/include/../../FreeRTOS/include/../../FreeRTOS/portable/GCC/ARM_CM4F/portmacro.h ****     http://www.SafeRTOS.com - High Integrity Systems also provide a safety
  64:/home/houxd/workspaceS32DS.ARM.V20/dp1000/FreeRTOS/include/../../FreeRTOS/include/../../FreeRTOS/portable/GCC/ARM_CM4F/portmacro.h ****     engineered and independently SIL3 certified version for use in safety and
  65:/home/houxd/workspaceS32DS.ARM.V20/dp1000/FreeRTOS/include/../../FreeRTOS/include/../../FreeRTOS/portable/GCC/ARM_CM4F/portmacro.h ****     mission critical applications that require provable dependability.
  66:/home/houxd/workspaceS32DS.ARM.V20/dp1000/FreeRTOS/include/../../FreeRTOS/include/../../FreeRTOS/portable/GCC/ARM_CM4F/portmacro.h **** 
  67:/home/houxd/workspaceS32DS.ARM.V20/dp1000/FreeRTOS/include/../../FreeRTOS/include/../../FreeRTOS/portable/GCC/ARM_CM4F/portmacro.h ****     1 tab == 4 spaces!
  68:/home/houxd/workspaceS32DS.ARM.V20/dp1000/FreeRTOS/include/../../FreeRTOS/include/../../FreeRTOS/portable/GCC/ARM_CM4F/portmacro.h **** */
  69:/home/houxd/workspaceS32DS.ARM.V20/dp1000/FreeRTOS/include/../../FreeRTOS/include/../../FreeRTOS/portable/GCC/ARM_CM4F/portmacro.h **** 
  70:/home/houxd/workspaceS32DS.ARM.V20/dp1000/FreeRTOS/include/../../FreeRTOS/include/../../FreeRTOS/portable/GCC/ARM_CM4F/portmacro.h **** 
  71:/home/houxd/workspaceS32DS.ARM.V20/dp1000/FreeRTOS/include/../../FreeRTOS/include/../../FreeRTOS/portable/GCC/ARM_CM4F/portmacro.h **** #ifndef PORTMACRO_H
  72:/home/houxd/workspaceS32DS.ARM.V20/dp1000/FreeRTOS/include/../../FreeRTOS/include/../../FreeRTOS/portable/GCC/ARM_CM4F/portmacro.h **** #define PORTMACRO_H
  73:/home/houxd/workspaceS32DS.ARM.V20/dp1000/FreeRTOS/include/../../FreeRTOS/include/../../FreeRTOS/portable/GCC/ARM_CM4F/portmacro.h **** 
  74:/home/houxd/workspaceS32DS.ARM.V20/dp1000/FreeRTOS/include/../../FreeRTOS/include/../../FreeRTOS/portable/GCC/ARM_CM4F/portmacro.h **** #ifdef __cplusplus
  75:/home/houxd/workspaceS32DS.ARM.V20/dp1000/FreeRTOS/include/../../FreeRTOS/include/../../FreeRTOS/portable/GCC/ARM_CM4F/portmacro.h **** extern "C" {
  76:/home/houxd/workspaceS32DS.ARM.V20/dp1000/FreeRTOS/include/../../FreeRTOS/include/../../FreeRTOS/portable/GCC/ARM_CM4F/portmacro.h **** #endif
  77:/home/houxd/workspaceS32DS.ARM.V20/dp1000/FreeRTOS/include/../../FreeRTOS/include/../../FreeRTOS/portable/GCC/ARM_CM4F/portmacro.h **** 
  78:/home/houxd/workspaceS32DS.ARM.V20/dp1000/FreeRTOS/include/../../FreeRTOS/include/../../FreeRTOS/portable/GCC/ARM_CM4F/portmacro.h **** /*-----------------------------------------------------------
  79:/home/houxd/workspaceS32DS.ARM.V20/dp1000/FreeRTOS/include/../../FreeRTOS/include/../../FreeRTOS/portable/GCC/ARM_CM4F/portmacro.h ****  * Port specific definitions.
  80:/home/houxd/workspaceS32DS.ARM.V20/dp1000/FreeRTOS/include/../../FreeRTOS/include/../../FreeRTOS/portable/GCC/ARM_CM4F/portmacro.h ****  *
  81:/home/houxd/workspaceS32DS.ARM.V20/dp1000/FreeRTOS/include/../../FreeRTOS/include/../../FreeRTOS/portable/GCC/ARM_CM4F/portmacro.h ****  * The settings in this file configure FreeRTOS correctly for the
  82:/home/houxd/workspaceS32DS.ARM.V20/dp1000/FreeRTOS/include/../../FreeRTOS/include/../../FreeRTOS/portable/GCC/ARM_CM4F/portmacro.h ****  * given hardware and compiler.
  83:/home/houxd/workspaceS32DS.ARM.V20/dp1000/FreeRTOS/include/../../FreeRTOS/include/../../FreeRTOS/portable/GCC/ARM_CM4F/portmacro.h ****  *
  84:/home/houxd/workspaceS32DS.ARM.V20/dp1000/FreeRTOS/include/../../FreeRTOS/include/../../FreeRTOS/portable/GCC/ARM_CM4F/portmacro.h ****  * These settings should not be altered.
  85:/home/houxd/workspaceS32DS.ARM.V20/dp1000/FreeRTOS/include/../../FreeRTOS/include/../../FreeRTOS/portable/GCC/ARM_CM4F/portmacro.h ****  *-----------------------------------------------------------
  86:/home/houxd/workspaceS32DS.ARM.V20/dp1000/FreeRTOS/include/../../FreeRTOS/include/../../FreeRTOS/portable/GCC/ARM_CM4F/portmacro.h ****  */
  87:/home/houxd/workspaceS32DS.ARM.V20/dp1000/FreeRTOS/include/../../FreeRTOS/include/../../FreeRTOS/portable/GCC/ARM_CM4F/portmacro.h **** 
  88:/home/houxd/workspaceS32DS.ARM.V20/dp1000/FreeRTOS/include/../../FreeRTOS/include/../../FreeRTOS/portable/GCC/ARM_CM4F/portmacro.h **** /* Type definitions. */
  89:/home/houxd/workspaceS32DS.ARM.V20/dp1000/FreeRTOS/include/../../FreeRTOS/include/../../FreeRTOS/portable/GCC/ARM_CM4F/portmacro.h **** #define portCHAR		char
  90:/home/houxd/workspaceS32DS.ARM.V20/dp1000/FreeRTOS/include/../../FreeRTOS/include/../../FreeRTOS/portable/GCC/ARM_CM4F/portmacro.h **** #define portFLOAT		float
  91:/home/houxd/workspaceS32DS.ARM.V20/dp1000/FreeRTOS/include/../../FreeRTOS/include/../../FreeRTOS/portable/GCC/ARM_CM4F/portmacro.h **** #define portDOUBLE		double
  92:/home/houxd/workspaceS32DS.ARM.V20/dp1000/FreeRTOS/include/../../FreeRTOS/include/../../FreeRTOS/portable/GCC/ARM_CM4F/portmacro.h **** #define portLONG		long
  93:/home/houxd/workspaceS32DS.ARM.V20/dp1000/FreeRTOS/include/../../FreeRTOS/include/../../FreeRTOS/portable/GCC/ARM_CM4F/portmacro.h **** #define portSHORT		short
  94:/home/houxd/workspaceS32DS.ARM.V20/dp1000/FreeRTOS/include/../../FreeRTOS/include/../../FreeRTOS/portable/GCC/ARM_CM4F/portmacro.h **** #define portSTACK_TYPE	uint32_t
  95:/home/houxd/workspaceS32DS.ARM.V20/dp1000/FreeRTOS/include/../../FreeRTOS/include/../../FreeRTOS/portable/GCC/ARM_CM4F/portmacro.h **** #define portBASE_TYPE	long
  96:/home/houxd/workspaceS32DS.ARM.V20/dp1000/FreeRTOS/include/../../FreeRTOS/include/../../FreeRTOS/portable/GCC/ARM_CM4F/portmacro.h **** 
  97:/home/houxd/workspaceS32DS.ARM.V20/dp1000/FreeRTOS/include/../../FreeRTOS/include/../../FreeRTOS/portable/GCC/ARM_CM4F/portmacro.h **** typedef portSTACK_TYPE StackType_t;
  98:/home/houxd/workspaceS32DS.ARM.V20/dp1000/FreeRTOS/include/../../FreeRTOS/include/../../FreeRTOS/portable/GCC/ARM_CM4F/portmacro.h **** typedef long BaseType_t;
  99:/home/houxd/workspaceS32DS.ARM.V20/dp1000/FreeRTOS/include/../../FreeRTOS/include/../../FreeRTOS/portable/GCC/ARM_CM4F/portmacro.h **** typedef unsigned long UBaseType_t;
 100:/home/houxd/workspaceS32DS.ARM.V20/dp1000/FreeRTOS/include/../../FreeRTOS/include/../../FreeRTOS/portable/GCC/ARM_CM4F/portmacro.h **** 
 101:/home/houxd/workspaceS32DS.ARM.V20/dp1000/FreeRTOS/include/../../FreeRTOS/include/../../FreeRTOS/portable/GCC/ARM_CM4F/portmacro.h **** #if( configUSE_16_BIT_TICKS == 1 )
 102:/home/houxd/workspaceS32DS.ARM.V20/dp1000/FreeRTOS/include/../../FreeRTOS/include/../../FreeRTOS/portable/GCC/ARM_CM4F/portmacro.h **** 	typedef uint16_t TickType_t;
 103:/home/houxd/workspaceS32DS.ARM.V20/dp1000/FreeRTOS/include/../../FreeRTOS/include/../../FreeRTOS/portable/GCC/ARM_CM4F/portmacro.h **** 	#define portMAX_DELAY ( TickType_t ) 0xffff
 104:/home/houxd/workspaceS32DS.ARM.V20/dp1000/FreeRTOS/include/../../FreeRTOS/include/../../FreeRTOS/portable/GCC/ARM_CM4F/portmacro.h **** #else
 105:/home/houxd/workspaceS32DS.ARM.V20/dp1000/FreeRTOS/include/../../FreeRTOS/include/../../FreeRTOS/portable/GCC/ARM_CM4F/portmacro.h **** 	typedef uint32_t TickType_t;
 106:/home/houxd/workspaceS32DS.ARM.V20/dp1000/FreeRTOS/include/../../FreeRTOS/include/../../FreeRTOS/portable/GCC/ARM_CM4F/portmacro.h **** 	#define portMAX_DELAY ( TickType_t ) 0xffffffffUL
 107:/home/houxd/workspaceS32DS.ARM.V20/dp1000/FreeRTOS/include/../../FreeRTOS/include/../../FreeRTOS/portable/GCC/ARM_CM4F/portmacro.h **** 
 108:/home/houxd/workspaceS32DS.ARM.V20/dp1000/FreeRTOS/include/../../FreeRTOS/include/../../FreeRTOS/portable/GCC/ARM_CM4F/portmacro.h **** 	/* 32-bit tick type on a 32-bit architecture, so reads of the tick count do
 109:/home/houxd/workspaceS32DS.ARM.V20/dp1000/FreeRTOS/include/../../FreeRTOS/include/../../FreeRTOS/portable/GCC/ARM_CM4F/portmacro.h **** 	not need to be guarded with a critical section. */
 110:/home/houxd/workspaceS32DS.ARM.V20/dp1000/FreeRTOS/include/../../FreeRTOS/include/../../FreeRTOS/portable/GCC/ARM_CM4F/portmacro.h **** 	#define portTICK_TYPE_IS_ATOMIC 1
 111:/home/houxd/workspaceS32DS.ARM.V20/dp1000/FreeRTOS/include/../../FreeRTOS/include/../../FreeRTOS/portable/GCC/ARM_CM4F/portmacro.h **** #endif
 112:/home/houxd/workspaceS32DS.ARM.V20/dp1000/FreeRTOS/include/../../FreeRTOS/include/../../FreeRTOS/portable/GCC/ARM_CM4F/portmacro.h **** /*-----------------------------------------------------------*/
 113:/home/houxd/workspaceS32DS.ARM.V20/dp1000/FreeRTOS/include/../../FreeRTOS/include/../../FreeRTOS/portable/GCC/ARM_CM4F/portmacro.h **** 
 114:/home/houxd/workspaceS32DS.ARM.V20/dp1000/FreeRTOS/include/../../FreeRTOS/include/../../FreeRTOS/portable/GCC/ARM_CM4F/portmacro.h **** /* Architecture specifics. */
 115:/home/houxd/workspaceS32DS.ARM.V20/dp1000/FreeRTOS/include/../../FreeRTOS/include/../../FreeRTOS/portable/GCC/ARM_CM4F/portmacro.h **** #define portSTACK_GROWTH			( -1 )
 116:/home/houxd/workspaceS32DS.ARM.V20/dp1000/FreeRTOS/include/../../FreeRTOS/include/../../FreeRTOS/portable/GCC/ARM_CM4F/portmacro.h **** #define portTICK_PERIOD_MS			( ( TickType_t ) 1000 / configTICK_RATE_HZ )
 117:/home/houxd/workspaceS32DS.ARM.V20/dp1000/FreeRTOS/include/../../FreeRTOS/include/../../FreeRTOS/portable/GCC/ARM_CM4F/portmacro.h **** #define portBYTE_ALIGNMENT			8
 118:/home/houxd/workspaceS32DS.ARM.V20/dp1000/FreeRTOS/include/../../FreeRTOS/include/../../FreeRTOS/portable/GCC/ARM_CM4F/portmacro.h **** /*-----------------------------------------------------------*/
 119:/home/houxd/workspaceS32DS.ARM.V20/dp1000/FreeRTOS/include/../../FreeRTOS/include/../../FreeRTOS/portable/GCC/ARM_CM4F/portmacro.h **** 
 120:/home/houxd/workspaceS32DS.ARM.V20/dp1000/FreeRTOS/include/../../FreeRTOS/include/../../FreeRTOS/portable/GCC/ARM_CM4F/portmacro.h **** /* Scheduler utilities. */
 121:/home/houxd/workspaceS32DS.ARM.V20/dp1000/FreeRTOS/include/../../FreeRTOS/include/../../FreeRTOS/portable/GCC/ARM_CM4F/portmacro.h **** #define portYIELD() 															\
 122:/home/houxd/workspaceS32DS.ARM.V20/dp1000/FreeRTOS/include/../../FreeRTOS/include/../../FreeRTOS/portable/GCC/ARM_CM4F/portmacro.h **** {																				\
 123:/home/houxd/workspaceS32DS.ARM.V20/dp1000/FreeRTOS/include/../../FreeRTOS/include/../../FreeRTOS/portable/GCC/ARM_CM4F/portmacro.h **** 	/* Set a PendSV to request a context switch. */								\
 124:/home/houxd/workspaceS32DS.ARM.V20/dp1000/FreeRTOS/include/../../FreeRTOS/include/../../FreeRTOS/portable/GCC/ARM_CM4F/portmacro.h **** 	portNVIC_INT_CTRL_REG = portNVIC_PENDSVSET_BIT;								\
 125:/home/houxd/workspaceS32DS.ARM.V20/dp1000/FreeRTOS/include/../../FreeRTOS/include/../../FreeRTOS/portable/GCC/ARM_CM4F/portmacro.h **** 																				\
 126:/home/houxd/workspaceS32DS.ARM.V20/dp1000/FreeRTOS/include/../../FreeRTOS/include/../../FreeRTOS/portable/GCC/ARM_CM4F/portmacro.h **** 	/* Barriers are normally not required but do ensure the code is completely	\
 127:/home/houxd/workspaceS32DS.ARM.V20/dp1000/FreeRTOS/include/../../FreeRTOS/include/../../FreeRTOS/portable/GCC/ARM_CM4F/portmacro.h **** 	within the specified behaviour for the architecture. */						\
 128:/home/houxd/workspaceS32DS.ARM.V20/dp1000/FreeRTOS/include/../../FreeRTOS/include/../../FreeRTOS/portable/GCC/ARM_CM4F/portmacro.h **** 	__asm volatile( "dsb" );													\
 129:/home/houxd/workspaceS32DS.ARM.V20/dp1000/FreeRTOS/include/../../FreeRTOS/include/../../FreeRTOS/portable/GCC/ARM_CM4F/portmacro.h **** 	__asm volatile( "isb" );													\
 130:/home/houxd/workspaceS32DS.ARM.V20/dp1000/FreeRTOS/include/../../FreeRTOS/include/../../FreeRTOS/portable/GCC/ARM_CM4F/portmacro.h **** }
 131:/home/houxd/workspaceS32DS.ARM.V20/dp1000/FreeRTOS/include/../../FreeRTOS/include/../../FreeRTOS/portable/GCC/ARM_CM4F/portmacro.h **** 
 132:/home/houxd/workspaceS32DS.ARM.V20/dp1000/FreeRTOS/include/../../FreeRTOS/include/../../FreeRTOS/portable/GCC/ARM_CM4F/portmacro.h **** #define portNVIC_INT_CTRL_REG		( * ( ( volatile uint32_t * ) 0xe000ed04 ) )
 133:/home/houxd/workspaceS32DS.ARM.V20/dp1000/FreeRTOS/include/../../FreeRTOS/include/../../FreeRTOS/portable/GCC/ARM_CM4F/portmacro.h **** #define portNVIC_PENDSVSET_BIT		( 1UL << 28UL )
 134:/home/houxd/workspaceS32DS.ARM.V20/dp1000/FreeRTOS/include/../../FreeRTOS/include/../../FreeRTOS/portable/GCC/ARM_CM4F/portmacro.h **** #define portEND_SWITCHING_ISR( xSwitchRequired ) if( xSwitchRequired != pdFALSE ) portYIELD()
 135:/home/houxd/workspaceS32DS.ARM.V20/dp1000/FreeRTOS/include/../../FreeRTOS/include/../../FreeRTOS/portable/GCC/ARM_CM4F/portmacro.h **** #define portYIELD_FROM_ISR( x ) portEND_SWITCHING_ISR( x )
 136:/home/houxd/workspaceS32DS.ARM.V20/dp1000/FreeRTOS/include/../../FreeRTOS/include/../../FreeRTOS/portable/GCC/ARM_CM4F/portmacro.h **** /*-----------------------------------------------------------*/
 137:/home/houxd/workspaceS32DS.ARM.V20/dp1000/FreeRTOS/include/../../FreeRTOS/include/../../FreeRTOS/portable/GCC/ARM_CM4F/portmacro.h **** 
 138:/home/houxd/workspaceS32DS.ARM.V20/dp1000/FreeRTOS/include/../../FreeRTOS/include/../../FreeRTOS/portable/GCC/ARM_CM4F/portmacro.h **** /* Critical section management. */
 139:/home/houxd/workspaceS32DS.ARM.V20/dp1000/FreeRTOS/include/../../FreeRTOS/include/../../FreeRTOS/portable/GCC/ARM_CM4F/portmacro.h **** extern void vPortEnterCritical( void );
 140:/home/houxd/workspaceS32DS.ARM.V20/dp1000/FreeRTOS/include/../../FreeRTOS/include/../../FreeRTOS/portable/GCC/ARM_CM4F/portmacro.h **** extern void vPortExitCritical( void );
 141:/home/houxd/workspaceS32DS.ARM.V20/dp1000/FreeRTOS/include/../../FreeRTOS/include/../../FreeRTOS/portable/GCC/ARM_CM4F/portmacro.h **** #define portSET_INTERRUPT_MASK_FROM_ISR()		ulPortRaiseBASEPRI()
 142:/home/houxd/workspaceS32DS.ARM.V20/dp1000/FreeRTOS/include/../../FreeRTOS/include/../../FreeRTOS/portable/GCC/ARM_CM4F/portmacro.h **** #define portCLEAR_INTERRUPT_MASK_FROM_ISR(x)	vPortSetBASEPRI(x)
 143:/home/houxd/workspaceS32DS.ARM.V20/dp1000/FreeRTOS/include/../../FreeRTOS/include/../../FreeRTOS/portable/GCC/ARM_CM4F/portmacro.h **** #define portDISABLE_INTERRUPTS()				vPortRaiseBASEPRI()
 144:/home/houxd/workspaceS32DS.ARM.V20/dp1000/FreeRTOS/include/../../FreeRTOS/include/../../FreeRTOS/portable/GCC/ARM_CM4F/portmacro.h **** #define portENABLE_INTERRUPTS()					vPortSetBASEPRI(0)
 145:/home/houxd/workspaceS32DS.ARM.V20/dp1000/FreeRTOS/include/../../FreeRTOS/include/../../FreeRTOS/portable/GCC/ARM_CM4F/portmacro.h **** #define portENTER_CRITICAL()					vPortEnterCritical()
 146:/home/houxd/workspaceS32DS.ARM.V20/dp1000/FreeRTOS/include/../../FreeRTOS/include/../../FreeRTOS/portable/GCC/ARM_CM4F/portmacro.h **** #define portEXIT_CRITICAL()						vPortExitCritical()
 147:/home/houxd/workspaceS32DS.ARM.V20/dp1000/FreeRTOS/include/../../FreeRTOS/include/../../FreeRTOS/portable/GCC/ARM_CM4F/portmacro.h **** 
 148:/home/houxd/workspaceS32DS.ARM.V20/dp1000/FreeRTOS/include/../../FreeRTOS/include/../../FreeRTOS/portable/GCC/ARM_CM4F/portmacro.h **** /*-----------------------------------------------------------*/
 149:/home/houxd/workspaceS32DS.ARM.V20/dp1000/FreeRTOS/include/../../FreeRTOS/include/../../FreeRTOS/portable/GCC/ARM_CM4F/portmacro.h **** 
 150:/home/houxd/workspaceS32DS.ARM.V20/dp1000/FreeRTOS/include/../../FreeRTOS/include/../../FreeRTOS/portable/GCC/ARM_CM4F/portmacro.h **** /* Task function macros as described on the FreeRTOS.org WEB site.  These are
 151:/home/houxd/workspaceS32DS.ARM.V20/dp1000/FreeRTOS/include/../../FreeRTOS/include/../../FreeRTOS/portable/GCC/ARM_CM4F/portmacro.h **** not necessary for to use this port.  They are defined so the common demo files
 152:/home/houxd/workspaceS32DS.ARM.V20/dp1000/FreeRTOS/include/../../FreeRTOS/include/../../FreeRTOS/portable/GCC/ARM_CM4F/portmacro.h **** (which build with all the ports) will build. */
 153:/home/houxd/workspaceS32DS.ARM.V20/dp1000/FreeRTOS/include/../../FreeRTOS/include/../../FreeRTOS/portable/GCC/ARM_CM4F/portmacro.h **** #define portTASK_FUNCTION_PROTO( vFunction, pvParameters ) void vFunction( void *pvParameters )
 154:/home/houxd/workspaceS32DS.ARM.V20/dp1000/FreeRTOS/include/../../FreeRTOS/include/../../FreeRTOS/portable/GCC/ARM_CM4F/portmacro.h **** #define portTASK_FUNCTION( vFunction, pvParameters ) void vFunction( void *pvParameters )
 155:/home/houxd/workspaceS32DS.ARM.V20/dp1000/FreeRTOS/include/../../FreeRTOS/include/../../FreeRTOS/portable/GCC/ARM_CM4F/portmacro.h **** /*-----------------------------------------------------------*/
 156:/home/houxd/workspaceS32DS.ARM.V20/dp1000/FreeRTOS/include/../../FreeRTOS/include/../../FreeRTOS/portable/GCC/ARM_CM4F/portmacro.h **** 
 157:/home/houxd/workspaceS32DS.ARM.V20/dp1000/FreeRTOS/include/../../FreeRTOS/include/../../FreeRTOS/portable/GCC/ARM_CM4F/portmacro.h **** /* Tickless idle/low power functionality. */
 158:/home/houxd/workspaceS32DS.ARM.V20/dp1000/FreeRTOS/include/../../FreeRTOS/include/../../FreeRTOS/portable/GCC/ARM_CM4F/portmacro.h **** #ifndef portSUPPRESS_TICKS_AND_SLEEP
 159:/home/houxd/workspaceS32DS.ARM.V20/dp1000/FreeRTOS/include/../../FreeRTOS/include/../../FreeRTOS/portable/GCC/ARM_CM4F/portmacro.h **** 	extern void vPortSuppressTicksAndSleep( TickType_t xExpectedIdleTime );
 160:/home/houxd/workspaceS32DS.ARM.V20/dp1000/FreeRTOS/include/../../FreeRTOS/include/../../FreeRTOS/portable/GCC/ARM_CM4F/portmacro.h **** 	#define portSUPPRESS_TICKS_AND_SLEEP( xExpectedIdleTime ) vPortSuppressTicksAndSleep( xExpectedIdl
 161:/home/houxd/workspaceS32DS.ARM.V20/dp1000/FreeRTOS/include/../../FreeRTOS/include/../../FreeRTOS/portable/GCC/ARM_CM4F/portmacro.h **** #endif
 162:/home/houxd/workspaceS32DS.ARM.V20/dp1000/FreeRTOS/include/../../FreeRTOS/include/../../FreeRTOS/portable/GCC/ARM_CM4F/portmacro.h **** /*-----------------------------------------------------------*/
 163:/home/houxd/workspaceS32DS.ARM.V20/dp1000/FreeRTOS/include/../../FreeRTOS/include/../../FreeRTOS/portable/GCC/ARM_CM4F/portmacro.h **** 
 164:/home/houxd/workspaceS32DS.ARM.V20/dp1000/FreeRTOS/include/../../FreeRTOS/include/../../FreeRTOS/portable/GCC/ARM_CM4F/portmacro.h **** /* Architecture specific optimisations. */
 165:/home/houxd/workspaceS32DS.ARM.V20/dp1000/FreeRTOS/include/../../FreeRTOS/include/../../FreeRTOS/portable/GCC/ARM_CM4F/portmacro.h **** #ifndef configUSE_PORT_OPTIMISED_TASK_SELECTION
 166:/home/houxd/workspaceS32DS.ARM.V20/dp1000/FreeRTOS/include/../../FreeRTOS/include/../../FreeRTOS/portable/GCC/ARM_CM4F/portmacro.h **** 	#define configUSE_PORT_OPTIMISED_TASK_SELECTION 1
 167:/home/houxd/workspaceS32DS.ARM.V20/dp1000/FreeRTOS/include/../../FreeRTOS/include/../../FreeRTOS/portable/GCC/ARM_CM4F/portmacro.h **** #endif
 168:/home/houxd/workspaceS32DS.ARM.V20/dp1000/FreeRTOS/include/../../FreeRTOS/include/../../FreeRTOS/portable/GCC/ARM_CM4F/portmacro.h **** 
 169:/home/houxd/workspaceS32DS.ARM.V20/dp1000/FreeRTOS/include/../../FreeRTOS/include/../../FreeRTOS/portable/GCC/ARM_CM4F/portmacro.h **** #if configUSE_PORT_OPTIMISED_TASK_SELECTION == 1
 170:/home/houxd/workspaceS32DS.ARM.V20/dp1000/FreeRTOS/include/../../FreeRTOS/include/../../FreeRTOS/portable/GCC/ARM_CM4F/portmacro.h **** 
 171:/home/houxd/workspaceS32DS.ARM.V20/dp1000/FreeRTOS/include/../../FreeRTOS/include/../../FreeRTOS/portable/GCC/ARM_CM4F/portmacro.h **** 	/* Generic helper function. */
 172:/home/houxd/workspaceS32DS.ARM.V20/dp1000/FreeRTOS/include/../../FreeRTOS/include/../../FreeRTOS/portable/GCC/ARM_CM4F/portmacro.h **** 	__attribute__( ( always_inline ) ) static inline uint8_t ucPortCountLeadingZeros( uint32_t ulBitma
 173:/home/houxd/workspaceS32DS.ARM.V20/dp1000/FreeRTOS/include/../../FreeRTOS/include/../../FreeRTOS/portable/GCC/ARM_CM4F/portmacro.h **** 	{
 174:/home/houxd/workspaceS32DS.ARM.V20/dp1000/FreeRTOS/include/../../FreeRTOS/include/../../FreeRTOS/portable/GCC/ARM_CM4F/portmacro.h **** 	uint8_t ucReturn;
 175:/home/houxd/workspaceS32DS.ARM.V20/dp1000/FreeRTOS/include/../../FreeRTOS/include/../../FreeRTOS/portable/GCC/ARM_CM4F/portmacro.h **** 
 176:/home/houxd/workspaceS32DS.ARM.V20/dp1000/FreeRTOS/include/../../FreeRTOS/include/../../FreeRTOS/portable/GCC/ARM_CM4F/portmacro.h **** 		__asm volatile ( "clz %0, %1" : "=r" ( ucReturn ) : "r" ( ulBitmap ) );
 177:/home/houxd/workspaceS32DS.ARM.V20/dp1000/FreeRTOS/include/../../FreeRTOS/include/../../FreeRTOS/portable/GCC/ARM_CM4F/portmacro.h **** 		return ucReturn;
 178:/home/houxd/workspaceS32DS.ARM.V20/dp1000/FreeRTOS/include/../../FreeRTOS/include/../../FreeRTOS/portable/GCC/ARM_CM4F/portmacro.h **** 	}
 179:/home/houxd/workspaceS32DS.ARM.V20/dp1000/FreeRTOS/include/../../FreeRTOS/include/../../FreeRTOS/portable/GCC/ARM_CM4F/portmacro.h **** 
 180:/home/houxd/workspaceS32DS.ARM.V20/dp1000/FreeRTOS/include/../../FreeRTOS/include/../../FreeRTOS/portable/GCC/ARM_CM4F/portmacro.h **** 	/* Check the configuration. */
 181:/home/houxd/workspaceS32DS.ARM.V20/dp1000/FreeRTOS/include/../../FreeRTOS/include/../../FreeRTOS/portable/GCC/ARM_CM4F/portmacro.h **** 	#if( configMAX_PRIORITIES > 32 )
 182:/home/houxd/workspaceS32DS.ARM.V20/dp1000/FreeRTOS/include/../../FreeRTOS/include/../../FreeRTOS/portable/GCC/ARM_CM4F/portmacro.h **** 		#error configUSE_PORT_OPTIMISED_TASK_SELECTION can only be set to 1 when configMAX_PRIORITIES is 
 183:/home/houxd/workspaceS32DS.ARM.V20/dp1000/FreeRTOS/include/../../FreeRTOS/include/../../FreeRTOS/portable/GCC/ARM_CM4F/portmacro.h **** 	#endif
 184:/home/houxd/workspaceS32DS.ARM.V20/dp1000/FreeRTOS/include/../../FreeRTOS/include/../../FreeRTOS/portable/GCC/ARM_CM4F/portmacro.h **** 
 185:/home/houxd/workspaceS32DS.ARM.V20/dp1000/FreeRTOS/include/../../FreeRTOS/include/../../FreeRTOS/portable/GCC/ARM_CM4F/portmacro.h **** 	/* Store/clear the ready priorities in a bit map. */
 186:/home/houxd/workspaceS32DS.ARM.V20/dp1000/FreeRTOS/include/../../FreeRTOS/include/../../FreeRTOS/portable/GCC/ARM_CM4F/portmacro.h **** 	#define portRECORD_READY_PRIORITY( uxPriority, uxReadyPriorities ) ( uxReadyPriorities ) |= ( 1UL 
 187:/home/houxd/workspaceS32DS.ARM.V20/dp1000/FreeRTOS/include/../../FreeRTOS/include/../../FreeRTOS/portable/GCC/ARM_CM4F/portmacro.h **** 	#define portRESET_READY_PRIORITY( uxPriority, uxReadyPriorities ) ( uxReadyPriorities ) &= ~( 1UL 
 188:/home/houxd/workspaceS32DS.ARM.V20/dp1000/FreeRTOS/include/../../FreeRTOS/include/../../FreeRTOS/portable/GCC/ARM_CM4F/portmacro.h **** 
 189:/home/houxd/workspaceS32DS.ARM.V20/dp1000/FreeRTOS/include/../../FreeRTOS/include/../../FreeRTOS/portable/GCC/ARM_CM4F/portmacro.h **** 	/*-----------------------------------------------------------*/
 190:/home/houxd/workspaceS32DS.ARM.V20/dp1000/FreeRTOS/include/../../FreeRTOS/include/../../FreeRTOS/portable/GCC/ARM_CM4F/portmacro.h **** 
 191:/home/houxd/workspaceS32DS.ARM.V20/dp1000/FreeRTOS/include/../../FreeRTOS/include/../../FreeRTOS/portable/GCC/ARM_CM4F/portmacro.h **** 	#define portGET_HIGHEST_PRIORITY( uxTopPriority, uxReadyPriorities ) uxTopPriority = ( 31 - ucPort
 192:/home/houxd/workspaceS32DS.ARM.V20/dp1000/FreeRTOS/include/../../FreeRTOS/include/../../FreeRTOS/portable/GCC/ARM_CM4F/portmacro.h **** 
 193:/home/houxd/workspaceS32DS.ARM.V20/dp1000/FreeRTOS/include/../../FreeRTOS/include/../../FreeRTOS/portable/GCC/ARM_CM4F/portmacro.h **** #endif /* configUSE_PORT_OPTIMISED_TASK_SELECTION */
 194:/home/houxd/workspaceS32DS.ARM.V20/dp1000/FreeRTOS/include/../../FreeRTOS/include/../../FreeRTOS/portable/GCC/ARM_CM4F/portmacro.h **** 
 195:/home/houxd/workspaceS32DS.ARM.V20/dp1000/FreeRTOS/include/../../FreeRTOS/include/../../FreeRTOS/portable/GCC/ARM_CM4F/portmacro.h **** /*-----------------------------------------------------------*/
 196:/home/houxd/workspaceS32DS.ARM.V20/dp1000/FreeRTOS/include/../../FreeRTOS/include/../../FreeRTOS/portable/GCC/ARM_CM4F/portmacro.h **** 
 197:/home/houxd/workspaceS32DS.ARM.V20/dp1000/FreeRTOS/include/../../FreeRTOS/include/../../FreeRTOS/portable/GCC/ARM_CM4F/portmacro.h **** #ifdef configASSERT
 198:/home/houxd/workspaceS32DS.ARM.V20/dp1000/FreeRTOS/include/../../FreeRTOS/include/../../FreeRTOS/portable/GCC/ARM_CM4F/portmacro.h **** 	void vPortValidateInterruptPriority( void );
 199:/home/houxd/workspaceS32DS.ARM.V20/dp1000/FreeRTOS/include/../../FreeRTOS/include/../../FreeRTOS/portable/GCC/ARM_CM4F/portmacro.h **** 	#define portASSERT_IF_INTERRUPT_PRIORITY_INVALID() 	vPortValidateInterruptPriority()
 200:/home/houxd/workspaceS32DS.ARM.V20/dp1000/FreeRTOS/include/../../FreeRTOS/include/../../FreeRTOS/portable/GCC/ARM_CM4F/portmacro.h **** #endif
 201:/home/houxd/workspaceS32DS.ARM.V20/dp1000/FreeRTOS/include/../../FreeRTOS/include/../../FreeRTOS/portable/GCC/ARM_CM4F/portmacro.h **** 
 202:/home/houxd/workspaceS32DS.ARM.V20/dp1000/FreeRTOS/include/../../FreeRTOS/include/../../FreeRTOS/portable/GCC/ARM_CM4F/portmacro.h **** /* portNOP() is not required by this port. */
 203:/home/houxd/workspaceS32DS.ARM.V20/dp1000/FreeRTOS/include/../../FreeRTOS/include/../../FreeRTOS/portable/GCC/ARM_CM4F/portmacro.h **** #define portNOP()
 204:/home/houxd/workspaceS32DS.ARM.V20/dp1000/FreeRTOS/include/../../FreeRTOS/include/../../FreeRTOS/portable/GCC/ARM_CM4F/portmacro.h **** 
 205:/home/houxd/workspaceS32DS.ARM.V20/dp1000/FreeRTOS/include/../../FreeRTOS/include/../../FreeRTOS/portable/GCC/ARM_CM4F/portmacro.h **** #ifndef portFORCE_INLINE
 206:/home/houxd/workspaceS32DS.ARM.V20/dp1000/FreeRTOS/include/../../FreeRTOS/include/../../FreeRTOS/portable/GCC/ARM_CM4F/portmacro.h **** 	#define portFORCE_INLINE inline __attribute__(( always_inline))
 207:/home/houxd/workspaceS32DS.ARM.V20/dp1000/FreeRTOS/include/../../FreeRTOS/include/../../FreeRTOS/portable/GCC/ARM_CM4F/portmacro.h **** #endif
 208:/home/houxd/workspaceS32DS.ARM.V20/dp1000/FreeRTOS/include/../../FreeRTOS/include/../../FreeRTOS/portable/GCC/ARM_CM4F/portmacro.h **** 
 209:/home/houxd/workspaceS32DS.ARM.V20/dp1000/FreeRTOS/include/../../FreeRTOS/include/../../FreeRTOS/portable/GCC/ARM_CM4F/portmacro.h **** /*-----------------------------------------------------------*/
 210:/home/houxd/workspaceS32DS.ARM.V20/dp1000/FreeRTOS/include/../../FreeRTOS/include/../../FreeRTOS/portable/GCC/ARM_CM4F/portmacro.h **** 
 211:/home/houxd/workspaceS32DS.ARM.V20/dp1000/FreeRTOS/include/../../FreeRTOS/include/../../FreeRTOS/portable/GCC/ARM_CM4F/portmacro.h **** portFORCE_INLINE static void vPortRaiseBASEPRI( void )
 212:/home/houxd/workspaceS32DS.ARM.V20/dp1000/FreeRTOS/include/../../FreeRTOS/include/../../FreeRTOS/portable/GCC/ARM_CM4F/portmacro.h **** {
 213:/home/houxd/workspaceS32DS.ARM.V20/dp1000/FreeRTOS/include/../../FreeRTOS/include/../../FreeRTOS/portable/GCC/ARM_CM4F/portmacro.h **** uint32_t ulNewBASEPRI;
 214:/home/houxd/workspaceS32DS.ARM.V20/dp1000/FreeRTOS/include/../../FreeRTOS/include/../../FreeRTOS/portable/GCC/ARM_CM4F/portmacro.h **** 
 215:/home/houxd/workspaceS32DS.ARM.V20/dp1000/FreeRTOS/include/../../FreeRTOS/include/../../FreeRTOS/portable/GCC/ARM_CM4F/portmacro.h **** 	__asm volatile
 174              		.loc 2 215 0 discriminator 1
 175              	@ 215 "/home/houxd/workspaceS32DS.ARM.V20/dp1000/FreeRTOS/include/../../FreeRTOS/include/../../Free
 176 0016 4FF00703 			mov r3, #7												
 177 001a 83F31188 		msr basepri, r3											
 178 001e BFF36F8F 		isb														
 179 0022 BFF34F8F 		dsb														
 180              	
 181              	@ 0 "" 2
 182              		.thumb
 183 0026 BB61     		str	r3, [r7, #24]
 184              	.L3:
 185              	.LBE103:
 186              	.LBE102:
 187              		.loc 1 557 0 discriminator 1
 188 0028 FEE7     		b	.L3
 189              	.L2:
 558:../FreeRTOS/tasks.c **** 	configASSERT( ( ( uxPriority & ( UBaseType_t ) ( ~portPRIVILEGE_BIT ) ) < ( UBaseType_t ) configMA
 190              		.loc 1 558 0
 191 002a 3B6B     		ldr	r3, [r7, #48]
 192 002c 072B     		cmp	r3, #7
 193 002e 09D9     		bls	.L4
 194              	.LBB104:
 195              	.LBB105:
 196              		.loc 2 215 0 discriminator 1
 197              	@ 215 "/home/houxd/workspaceS32DS.ARM.V20/dp1000/FreeRTOS/include/../../FreeRTOS/include/../../Free
 198 0030 4FF00703 			mov r3, #7												
 199 0034 83F31188 		msr basepri, r3											
 200 0038 BFF36F8F 		isb														
 201 003c BFF34F8F 		dsb														
 202              	
 203              	@ 0 "" 2
 204              		.thumb
 205 0040 7B61     		str	r3, [r7, #20]
 206              	.L5:
 207              	.LBE105:
 208              	.LBE104:
 209              		.loc 1 558 0 discriminator 2
 210 0042 FEE7     		b	.L5
 211              	.L4:
 559:../FreeRTOS/tasks.c **** 
 560:../FreeRTOS/tasks.c **** 	/* Allocate the memory required by the TCB and stack for the new task,
 561:../FreeRTOS/tasks.c **** 	checking that the allocation was successful. */
 562:../FreeRTOS/tasks.c **** 	pxNewTCB = prvAllocateTCBAndStack( usStackDepth, puxStackBuffer );
 212              		.loc 1 562 0
 213 0044 FB88     		ldrh	r3, [r7, #6]
 214 0046 1846     		mov	r0, r3
 215 0048 B96B     		ldr	r1, [r7, #56]
 216 004a FFF7FEFF 		bl	prvAllocateTCBAndStack
 217 004e 3862     		str	r0, [r7, #32]
 563:../FreeRTOS/tasks.c **** 
 564:../FreeRTOS/tasks.c **** 	if( pxNewTCB != NULL )
 218              		.loc 1 564 0
 219 0050 3B6A     		ldr	r3, [r7, #32]
 220 0052 002B     		cmp	r3, #0
 221 0054 76D0     		beq	.L6
 565:../FreeRTOS/tasks.c **** 	{
 566:../FreeRTOS/tasks.c **** 		#if( portUSING_MPU_WRAPPERS == 1 )
 567:../FreeRTOS/tasks.c **** 			/* Should the task be created in privileged mode? */
 568:../FreeRTOS/tasks.c **** 			BaseType_t xRunPrivileged;
 569:../FreeRTOS/tasks.c **** 			if( ( uxPriority & portPRIVILEGE_BIT ) != 0U )
 570:../FreeRTOS/tasks.c **** 			{
 571:../FreeRTOS/tasks.c **** 				xRunPrivileged = pdTRUE;
 572:../FreeRTOS/tasks.c **** 			}
 573:../FreeRTOS/tasks.c **** 			else
 574:../FreeRTOS/tasks.c **** 			{
 575:../FreeRTOS/tasks.c **** 				xRunPrivileged = pdFALSE;
 576:../FreeRTOS/tasks.c **** 			}
 577:../FreeRTOS/tasks.c **** 			uxPriority &= ~portPRIVILEGE_BIT;
 578:../FreeRTOS/tasks.c **** 
 579:../FreeRTOS/tasks.c **** 			if( puxStackBuffer != NULL )
 580:../FreeRTOS/tasks.c **** 			{
 581:../FreeRTOS/tasks.c **** 				/* The application provided its own stack.  Note this so no
 582:../FreeRTOS/tasks.c **** 				attempt is made to delete the stack should that task be
 583:../FreeRTOS/tasks.c **** 				deleted. */
 584:../FreeRTOS/tasks.c **** 				pxNewTCB->xUsingStaticallyAllocatedStack = pdTRUE;
 585:../FreeRTOS/tasks.c **** 			}
 586:../FreeRTOS/tasks.c **** 			else
 587:../FreeRTOS/tasks.c **** 			{
 588:../FreeRTOS/tasks.c **** 				/* The stack was allocated dynamically.  Note this so it can be
 589:../FreeRTOS/tasks.c **** 				deleted again if the task is deleted. */
 590:../FreeRTOS/tasks.c **** 				pxNewTCB->xUsingStaticallyAllocatedStack = pdFALSE;
 591:../FreeRTOS/tasks.c **** 			}
 592:../FreeRTOS/tasks.c **** 		#endif /* portUSING_MPU_WRAPPERS == 1 */
 593:../FreeRTOS/tasks.c **** 
 594:../FreeRTOS/tasks.c **** 		/* Calculate the top of stack address.  This depends on whether the
 595:../FreeRTOS/tasks.c **** 		stack grows from high memory to low (as per the 80x86) or vice versa.
 596:../FreeRTOS/tasks.c **** 		portSTACK_GROWTH is used to make the result positive or negative as
 597:../FreeRTOS/tasks.c **** 		required by the port. */
 598:../FreeRTOS/tasks.c **** 		#if( portSTACK_GROWTH < 0 )
 599:../FreeRTOS/tasks.c **** 		{
 600:../FreeRTOS/tasks.c **** 			pxTopOfStack = pxNewTCB->pxStack + ( usStackDepth - ( uint16_t ) 1 );
 222              		.loc 1 600 0
 223 0056 3B6A     		ldr	r3, [r7, #32]
 224 0058 1A6B     		ldr	r2, [r3, #48]
 225 005a FB88     		ldrh	r3, [r7, #6]
 226 005c 03F18043 		add	r3, r3, #1073741824
 227 0060 013B     		subs	r3, r3, #1
 228 0062 9B00     		lsls	r3, r3, #2
 229 0064 1344     		add	r3, r3, r2
 230 0066 FB61     		str	r3, [r7, #28]
 601:../FreeRTOS/tasks.c **** 			pxTopOfStack = ( StackType_t * ) ( ( ( portPOINTER_SIZE_TYPE ) pxTopOfStack ) & ( ~( ( portPOINT
 231              		.loc 1 601 0
 232 0068 FB69     		ldr	r3, [r7, #28]
 233 006a 23F00703 		bic	r3, r3, #7
 234 006e FB61     		str	r3, [r7, #28]
 602:../FreeRTOS/tasks.c **** 
 603:../FreeRTOS/tasks.c **** 			/* Check the alignment of the calculated top of stack is correct. */
 604:../FreeRTOS/tasks.c **** 			configASSERT( ( ( ( portPOINTER_SIZE_TYPE ) pxTopOfStack & ( portPOINTER_SIZE_TYPE ) portBYTE_AL
 235              		.loc 1 604 0
 236 0070 FB69     		ldr	r3, [r7, #28]
 237 0072 03F00703 		and	r3, r3, #7
 238 0076 002B     		cmp	r3, #0
 239 0078 09D0     		beq	.L7
 240              	.LBB106:
 241              	.LBB107:
 242              		.loc 2 215 0 discriminator 1
 243              	@ 215 "/home/houxd/workspaceS32DS.ARM.V20/dp1000/FreeRTOS/include/../../FreeRTOS/include/../../Free
 244 007a 4FF00703 			mov r3, #7												
 245 007e 83F31188 		msr basepri, r3											
 246 0082 BFF36F8F 		isb														
 247 0086 BFF34F8F 		dsb														
 248              	
 249              	@ 0 "" 2
 250              		.thumb
 251 008a 3B61     		str	r3, [r7, #16]
 252              	.L8:
 253              	.LBE107:
 254              	.LBE106:
 255              		.loc 1 604 0 discriminator 3
 256 008c FEE7     		b	.L8
 257              	.L7:
 605:../FreeRTOS/tasks.c **** 		}
 606:../FreeRTOS/tasks.c **** 		#else /* portSTACK_GROWTH */
 607:../FreeRTOS/tasks.c **** 		{
 608:../FreeRTOS/tasks.c **** 			pxTopOfStack = pxNewTCB->pxStack;
 609:../FreeRTOS/tasks.c **** 
 610:../FreeRTOS/tasks.c **** 			/* Check the alignment of the stack buffer is correct. */
 611:../FreeRTOS/tasks.c **** 			configASSERT( ( ( ( portPOINTER_SIZE_TYPE ) pxNewTCB->pxStack & ( portPOINTER_SIZE_TYPE ) portBY
 612:../FreeRTOS/tasks.c **** 
 613:../FreeRTOS/tasks.c **** 			/* If we want to use stack checking on architectures that use
 614:../FreeRTOS/tasks.c **** 			a positive stack growth direction then we also need to store the
 615:../FreeRTOS/tasks.c **** 			other extreme of the stack space. */
 616:../FreeRTOS/tasks.c **** 			pxNewTCB->pxEndOfStack = pxNewTCB->pxStack + ( usStackDepth - 1 );
 617:../FreeRTOS/tasks.c **** 		}
 618:../FreeRTOS/tasks.c **** 		#endif /* portSTACK_GROWTH */
 619:../FreeRTOS/tasks.c **** 
 620:../FreeRTOS/tasks.c **** 		/* Setup the newly allocated TCB with the initial state of the task. */
 621:../FreeRTOS/tasks.c **** 		prvInitialiseTCBVariables( pxNewTCB, pcName, uxPriority, xRegions, usStackDepth );
 258              		.loc 1 621 0
 259 008e FB88     		ldrh	r3, [r7, #6]
 260 0090 0093     		str	r3, [sp]
 261 0092 386A     		ldr	r0, [r7, #32]
 262 0094 B968     		ldr	r1, [r7, #8]
 263 0096 3A6B     		ldr	r2, [r7, #48]
 264 0098 FB6B     		ldr	r3, [r7, #60]
 265 009a FFF7FEFF 		bl	prvInitialiseTCBVariables
 622:../FreeRTOS/tasks.c **** 
 623:../FreeRTOS/tasks.c **** 		/* Initialize the TCB stack to look as if the task was already running,
 624:../FreeRTOS/tasks.c **** 		but had been interrupted by the scheduler.  The return address is set
 625:../FreeRTOS/tasks.c **** 		to the start of the task function. Once the stack has been initialised
 626:../FreeRTOS/tasks.c **** 		the	top of stack variable is updated. */
 627:../FreeRTOS/tasks.c **** 		#if( portUSING_MPU_WRAPPERS == 1 )
 628:../FreeRTOS/tasks.c **** 		{
 629:../FreeRTOS/tasks.c **** 			pxNewTCB->pxTopOfStack = pxPortInitialiseStack( pxTopOfStack, pxTaskCode, pvParameters, xRunPriv
 630:../FreeRTOS/tasks.c **** 		}
 631:../FreeRTOS/tasks.c **** 		#else /* portUSING_MPU_WRAPPERS */
 632:../FreeRTOS/tasks.c **** 		{
 633:../FreeRTOS/tasks.c **** 			pxNewTCB->pxTopOfStack = pxPortInitialiseStack( pxTopOfStack, pxTaskCode, pvParameters );
 266              		.loc 1 633 0
 267 009e F869     		ldr	r0, [r7, #28]
 268 00a0 F968     		ldr	r1, [r7, #12]
 269 00a2 3A68     		ldr	r2, [r7]
 270 00a4 FFF7FEFF 		bl	pxPortInitialiseStack
 271 00a8 0246     		mov	r2, r0
 272 00aa 3B6A     		ldr	r3, [r7, #32]
 273 00ac 1A60     		str	r2, [r3]
 634:../FreeRTOS/tasks.c **** 		}
 635:../FreeRTOS/tasks.c **** 		#endif /* portUSING_MPU_WRAPPERS */
 636:../FreeRTOS/tasks.c **** 
 637:../FreeRTOS/tasks.c **** 		if( ( void * ) pxCreatedTask != NULL )
 274              		.loc 1 637 0
 275 00ae 7B6B     		ldr	r3, [r7, #52]
 276 00b0 002B     		cmp	r3, #0
 277 00b2 02D0     		beq	.L9
 638:../FreeRTOS/tasks.c **** 		{
 639:../FreeRTOS/tasks.c **** 			/* Pass the TCB out - in an anonymous way.  The calling function/
 640:../FreeRTOS/tasks.c **** 			task can use this as a handle to delete the task later if
 641:../FreeRTOS/tasks.c **** 			required.*/
 642:../FreeRTOS/tasks.c **** 			*pxCreatedTask = ( TaskHandle_t ) pxNewTCB;
 278              		.loc 1 642 0
 279 00b4 7B6B     		ldr	r3, [r7, #52]
 280 00b6 3A6A     		ldr	r2, [r7, #32]
 281 00b8 1A60     		str	r2, [r3]
 282              	.L9:
 643:../FreeRTOS/tasks.c **** 		}
 644:../FreeRTOS/tasks.c **** 		else
 645:../FreeRTOS/tasks.c **** 		{
 646:../FreeRTOS/tasks.c **** 			mtCOVERAGE_TEST_MARKER();
 647:../FreeRTOS/tasks.c **** 		}
 648:../FreeRTOS/tasks.c **** 
 649:../FreeRTOS/tasks.c **** 		/* Ensure interrupts don't access the task lists while they are being
 650:../FreeRTOS/tasks.c **** 		updated. */
 651:../FreeRTOS/tasks.c **** 		taskENTER_CRITICAL();
 283              		.loc 1 651 0
 284 00ba FFF7FEFF 		bl	vPortEnterCritical
 652:../FreeRTOS/tasks.c **** 		{
 653:../FreeRTOS/tasks.c **** 			uxCurrentNumberOfTasks++;
 285              		.loc 1 653 0
 286 00be 2A4B     		ldr	r3, .L15
 287 00c0 1B68     		ldr	r3, [r3]
 288 00c2 0133     		adds	r3, r3, #1
 289 00c4 284A     		ldr	r2, .L15
 290 00c6 1360     		str	r3, [r2]
 654:../FreeRTOS/tasks.c **** 			if( pxCurrentTCB == NULL )
 291              		.loc 1 654 0
 292 00c8 284B     		ldr	r3, .L15+4
 293 00ca 1B68     		ldr	r3, [r3]
 294 00cc 002B     		cmp	r3, #0
 295 00ce 09D1     		bne	.L10
 655:../FreeRTOS/tasks.c **** 			{
 656:../FreeRTOS/tasks.c **** 				/* There are no other tasks, or all the other tasks are in
 657:../FreeRTOS/tasks.c **** 				the suspended state - make this the current task. */
 658:../FreeRTOS/tasks.c **** 				pxCurrentTCB =  pxNewTCB;
 296              		.loc 1 658 0
 297 00d0 264A     		ldr	r2, .L15+4
 298 00d2 3B6A     		ldr	r3, [r7, #32]
 299 00d4 1360     		str	r3, [r2]
 659:../FreeRTOS/tasks.c **** 
 660:../FreeRTOS/tasks.c **** 				if( uxCurrentNumberOfTasks == ( UBaseType_t ) 1 )
 300              		.loc 1 660 0
 301 00d6 244B     		ldr	r3, .L15
 302 00d8 1B68     		ldr	r3, [r3]
 303 00da 012B     		cmp	r3, #1
 304 00dc 0FD1     		bne	.L11
 661:../FreeRTOS/tasks.c **** 				{
 662:../FreeRTOS/tasks.c **** 					/* This is the first task to be created so do the preliminary
 663:../FreeRTOS/tasks.c **** 					initialisation required.  We will not recover if this call
 664:../FreeRTOS/tasks.c **** 					fails, but we will report the failure. */
 665:../FreeRTOS/tasks.c **** 					prvInitialiseTaskLists();
 305              		.loc 1 665 0
 306 00de FFF7FEFF 		bl	prvInitialiseTaskLists
 307 00e2 0CE0     		b	.L11
 308              	.L10:
 666:../FreeRTOS/tasks.c **** 				}
 667:../FreeRTOS/tasks.c **** 				else
 668:../FreeRTOS/tasks.c **** 				{
 669:../FreeRTOS/tasks.c **** 					mtCOVERAGE_TEST_MARKER();
 670:../FreeRTOS/tasks.c **** 				}
 671:../FreeRTOS/tasks.c **** 			}
 672:../FreeRTOS/tasks.c **** 			else
 673:../FreeRTOS/tasks.c **** 			{
 674:../FreeRTOS/tasks.c **** 				/* If the scheduler is not already running, make this task the
 675:../FreeRTOS/tasks.c **** 				current task if it is the highest priority task to be created
 676:../FreeRTOS/tasks.c **** 				so far. */
 677:../FreeRTOS/tasks.c **** 				if( xSchedulerRunning == pdFALSE )
 309              		.loc 1 677 0
 310 00e4 224B     		ldr	r3, .L15+8
 311 00e6 1B68     		ldr	r3, [r3]
 312 00e8 002B     		cmp	r3, #0
 313 00ea 08D1     		bne	.L11
 678:../FreeRTOS/tasks.c **** 				{
 679:../FreeRTOS/tasks.c **** 					if( pxCurrentTCB->uxPriority <= uxPriority )
 314              		.loc 1 679 0
 315 00ec 1F4B     		ldr	r3, .L15+4
 316 00ee 1B68     		ldr	r3, [r3]
 317 00f0 DA6A     		ldr	r2, [r3, #44]
 318 00f2 3B6B     		ldr	r3, [r7, #48]
 319 00f4 9A42     		cmp	r2, r3
 320 00f6 02D8     		bhi	.L11
 680:../FreeRTOS/tasks.c **** 					{
 681:../FreeRTOS/tasks.c **** 						pxCurrentTCB = pxNewTCB;
 321              		.loc 1 681 0
 322 00f8 1C4A     		ldr	r2, .L15+4
 323 00fa 3B6A     		ldr	r3, [r7, #32]
 324 00fc 1360     		str	r3, [r2]
 325              	.L11:
 682:../FreeRTOS/tasks.c **** 					}
 683:../FreeRTOS/tasks.c **** 					else
 684:../FreeRTOS/tasks.c **** 					{
 685:../FreeRTOS/tasks.c **** 						mtCOVERAGE_TEST_MARKER();
 686:../FreeRTOS/tasks.c **** 					}
 687:../FreeRTOS/tasks.c **** 				}
 688:../FreeRTOS/tasks.c **** 				else
 689:../FreeRTOS/tasks.c **** 				{
 690:../FreeRTOS/tasks.c **** 					mtCOVERAGE_TEST_MARKER();
 691:../FreeRTOS/tasks.c **** 				}
 692:../FreeRTOS/tasks.c **** 			}
 693:../FreeRTOS/tasks.c **** 
 694:../FreeRTOS/tasks.c **** 			uxTaskNumber++;
 326              		.loc 1 694 0
 327 00fe 1D4B     		ldr	r3, .L15+12
 328 0100 1B68     		ldr	r3, [r3]
 329 0102 0133     		adds	r3, r3, #1
 330 0104 1B4A     		ldr	r2, .L15+12
 331 0106 1360     		str	r3, [r2]
 695:../FreeRTOS/tasks.c **** 
 696:../FreeRTOS/tasks.c **** 			#if ( configUSE_TRACE_FACILITY == 1 )
 697:../FreeRTOS/tasks.c **** 			{
 698:../FreeRTOS/tasks.c **** 				/* Add a counter into the TCB for tracing only. */
 699:../FreeRTOS/tasks.c **** 				pxNewTCB->uxTCBNumber = uxTaskNumber;
 700:../FreeRTOS/tasks.c **** 			}
 701:../FreeRTOS/tasks.c **** 			#endif /* configUSE_TRACE_FACILITY */
 702:../FreeRTOS/tasks.c **** 			traceTASK_CREATE( pxNewTCB );
 703:../FreeRTOS/tasks.c **** 
 704:../FreeRTOS/tasks.c **** 			prvAddTaskToReadyList( pxNewTCB );
 332              		.loc 1 704 0
 333 0108 3B6A     		ldr	r3, [r7, #32]
 334 010a DB6A     		ldr	r3, [r3, #44]
 335 010c 1A46     		mov	r2, r3
 336 010e 0123     		movs	r3, #1
 337 0110 03FA02F2 		lsl	r2, r3, r2
 338 0114 184B     		ldr	r3, .L15+16
 339 0116 1B68     		ldr	r3, [r3]
 340 0118 1343     		orrs	r3, r3, r2
 341 011a 174A     		ldr	r2, .L15+16
 342 011c 1360     		str	r3, [r2]
 343 011e 3B6A     		ldr	r3, [r7, #32]
 344 0120 DA6A     		ldr	r2, [r3, #44]
 345 0122 1346     		mov	r3, r2
 346 0124 9B00     		lsls	r3, r3, #2
 347 0126 1344     		add	r3, r3, r2
 348 0128 9B00     		lsls	r3, r3, #2
 349 012a 144A     		ldr	r2, .L15+20
 350 012c 1A44     		add	r2, r2, r3
 351 012e 3B6A     		ldr	r3, [r7, #32]
 352 0130 0433     		adds	r3, r3, #4
 353 0132 1046     		mov	r0, r2
 354 0134 1946     		mov	r1, r3
 355 0136 FFF7FEFF 		bl	vListInsertEnd
 705:../FreeRTOS/tasks.c **** 
 706:../FreeRTOS/tasks.c **** 			xReturn = pdPASS;
 356              		.loc 1 706 0
 357 013a 0123     		movs	r3, #1
 358 013c 7B62     		str	r3, [r7, #36]
 707:../FreeRTOS/tasks.c **** 			portSETUP_TCB( pxNewTCB );
 708:../FreeRTOS/tasks.c **** 		}
 709:../FreeRTOS/tasks.c **** 		taskEXIT_CRITICAL();
 359              		.loc 1 709 0
 360 013e FFF7FEFF 		bl	vPortExitCritical
 361 0142 02E0     		b	.L12
 362              	.L6:
 710:../FreeRTOS/tasks.c **** 	}
 711:../FreeRTOS/tasks.c **** 	else
 712:../FreeRTOS/tasks.c **** 	{
 713:../FreeRTOS/tasks.c **** 		xReturn = errCOULD_NOT_ALLOCATE_REQUIRED_MEMORY;
 363              		.loc 1 713 0
 364 0144 4FF0FF33 		mov	r3, #-1
 365 0148 7B62     		str	r3, [r7, #36]
 366              	.L12:
 714:../FreeRTOS/tasks.c **** 		traceTASK_CREATE_FAILED();
 715:../FreeRTOS/tasks.c **** 	}
 716:../FreeRTOS/tasks.c **** 
 717:../FreeRTOS/tasks.c **** 	if( xReturn == pdPASS )
 367              		.loc 1 717 0
 368 014a 7B6A     		ldr	r3, [r7, #36]
 369 014c 012B     		cmp	r3, #1
 370 014e 05D1     		bne	.L13
 718:../FreeRTOS/tasks.c **** 	{
 719:../FreeRTOS/tasks.c **** 		if( xSchedulerRunning != pdFALSE )
 371              		.loc 1 719 0
 372 0150 074B     		ldr	r3, .L15+8
 373 0152 1B68     		ldr	r3, [r3]
 374 0154 002B     		cmp	r3, #0
 375 0156 01D0     		beq	.L13
 720:../FreeRTOS/tasks.c **** 		{
 721:../FreeRTOS/tasks.c **** 			/* If the created task is of a higher priority than the current task
 722:../FreeRTOS/tasks.c **** 			then it should run now. */
 723:../FreeRTOS/tasks.c **** 			if( pxCurrentTCB->uxPriority < uxPriority )
 376              		.loc 1 723 0
 377 0158 044B     		ldr	r3, .L15+4
 378 015a 1B68     		ldr	r3, [r3]
 379              	.L13:
 724:../FreeRTOS/tasks.c **** 			{
 725:../FreeRTOS/tasks.c **** 				taskYIELD_IF_USING_PREEMPTION();
 726:../FreeRTOS/tasks.c **** 			}
 727:../FreeRTOS/tasks.c **** 			else
 728:../FreeRTOS/tasks.c **** 			{
 729:../FreeRTOS/tasks.c **** 				mtCOVERAGE_TEST_MARKER();
 730:../FreeRTOS/tasks.c **** 			}
 731:../FreeRTOS/tasks.c **** 		}
 732:../FreeRTOS/tasks.c **** 		else
 733:../FreeRTOS/tasks.c **** 		{
 734:../FreeRTOS/tasks.c **** 			mtCOVERAGE_TEST_MARKER();
 735:../FreeRTOS/tasks.c **** 		}
 736:../FreeRTOS/tasks.c **** 	}
 737:../FreeRTOS/tasks.c **** 
 738:../FreeRTOS/tasks.c **** 	return xReturn;
 380              		.loc 1 738 0
 381 015c 7B6A     		ldr	r3, [r7, #36]
 739:../FreeRTOS/tasks.c **** }
 382              		.loc 1 739 0
 383 015e 1846     		mov	r0, r3
 384 0160 2837     		adds	r7, r7, #40
 385              		.cfi_def_cfa_offset 8
 386 0162 BD46     		mov	sp, r7
 387              		.cfi_def_cfa_register 13
 388              		@ sp needed
 389 0164 80BD     		pop	{r7, pc}
 390              	.L16:
 391 0166 00BF     		.align	2
 392              	.L15:
 393 0168 00000000 		.word	uxCurrentNumberOfTasks
 394 016c 00000000 		.word	pxCurrentTCB
 395 0170 00000000 		.word	xSchedulerRunning
 396 0174 00000000 		.word	uxTaskNumber
 397 0178 00000000 		.word	uxTopReadyPriority
 398 017c 00000000 		.word	pxReadyTasksLists
 399              		.cfi_endproc
 400              	.LFE4:
 402              		.section	.text.vTaskDelete,"ax",%progbits
 403              		.align	2
 404              		.global	vTaskDelete
 405              		.thumb
 406              		.thumb_func
 408              	vTaskDelete:
 409              	.LFB5:
 740:../FreeRTOS/tasks.c **** /*-----------------------------------------------------------*/
 741:../FreeRTOS/tasks.c **** 
 742:../FreeRTOS/tasks.c **** #if ( INCLUDE_vTaskDelete == 1 )
 743:../FreeRTOS/tasks.c **** 
 744:../FreeRTOS/tasks.c **** 	void vTaskDelete( TaskHandle_t xTaskToDelete )
 745:../FreeRTOS/tasks.c **** 	{
 410              		.loc 1 745 0
 411              		.cfi_startproc
 412              		@ args = 0, pretend = 0, frame = 16
 413              		@ frame_needed = 1, uses_anonymous_args = 0
 414 0000 80B5     		push	{r7, lr}
 415              		.cfi_def_cfa_offset 8
 416              		.cfi_offset 7, -8
 417              		.cfi_offset 14, -4
 418 0002 84B0     		sub	sp, sp, #16
 419              		.cfi_def_cfa_offset 24
 420 0004 00AF     		add	r7, sp, #0
 421              		.cfi_def_cfa_register 7
 422 0006 7860     		str	r0, [r7, #4]
 746:../FreeRTOS/tasks.c **** 	TCB_t *pxTCB;
 747:../FreeRTOS/tasks.c **** 
 748:../FreeRTOS/tasks.c **** 		taskENTER_CRITICAL();
 423              		.loc 1 748 0
 424 0008 FFF7FEFF 		bl	vPortEnterCritical
 749:../FreeRTOS/tasks.c **** 		{
 750:../FreeRTOS/tasks.c **** 			/* If null is passed in here then it is the calling task that is
 751:../FreeRTOS/tasks.c **** 			being deleted. */
 752:../FreeRTOS/tasks.c **** 			pxTCB = prvGetTCBFromHandle( xTaskToDelete );
 425              		.loc 1 752 0
 426 000c 7B68     		ldr	r3, [r7, #4]
 427 000e 002B     		cmp	r3, #0
 428 0010 02D1     		bne	.L18
 429              		.loc 1 752 0 is_stmt 0 discriminator 1
 430 0012 334B     		ldr	r3, .L27
 431 0014 1B68     		ldr	r3, [r3]
 432 0016 00E0     		b	.L19
 433              	.L18:
 434              		.loc 1 752 0 discriminator 2
 435 0018 7B68     		ldr	r3, [r7, #4]
 436              	.L19:
 437              		.loc 1 752 0 discriminator 4
 438 001a FB60     		str	r3, [r7, #12]
 753:../FreeRTOS/tasks.c **** 
 754:../FreeRTOS/tasks.c **** 			/* Remove task from the ready list and place in the	termination list.
 755:../FreeRTOS/tasks.c **** 			This will stop the task from be scheduled.  The idle task will check
 756:../FreeRTOS/tasks.c **** 			the termination list and free up any memory allocated by the
 757:../FreeRTOS/tasks.c **** 			scheduler for the TCB and stack. */
 758:../FreeRTOS/tasks.c **** 			if( uxListRemove( &( pxTCB->xGenericListItem ) ) == ( UBaseType_t ) 0 )
 439              		.loc 1 758 0 is_stmt 1 discriminator 4
 440 001c FB68     		ldr	r3, [r7, #12]
 441 001e 0433     		adds	r3, r3, #4
 442 0020 1846     		mov	r0, r3
 443 0022 FFF7FEFF 		bl	uxListRemove
 444 0026 0346     		mov	r3, r0
 445 0028 002B     		cmp	r3, #0
 446 002a 15D1     		bne	.L20
 759:../FreeRTOS/tasks.c **** 			{
 760:../FreeRTOS/tasks.c **** 				taskRESET_READY_PRIORITY( pxTCB->uxPriority );
 447              		.loc 1 760 0
 448 002c FB68     		ldr	r3, [r7, #12]
 449 002e DA6A     		ldr	r2, [r3, #44]
 450 0030 2C49     		ldr	r1, .L27+4
 451 0032 1346     		mov	r3, r2
 452 0034 9B00     		lsls	r3, r3, #2
 453 0036 1344     		add	r3, r3, r2
 454 0038 9B00     		lsls	r3, r3, #2
 455 003a 0B44     		add	r3, r3, r1
 456 003c 1B68     		ldr	r3, [r3]
 457 003e 002B     		cmp	r3, #0
 458 0040 0AD1     		bne	.L20
 459              		.loc 1 760 0 is_stmt 0 discriminator 1
 460 0042 FB68     		ldr	r3, [r7, #12]
 461 0044 DB6A     		ldr	r3, [r3, #44]
 462 0046 1A46     		mov	r2, r3
 463 0048 0123     		movs	r3, #1
 464 004a 9340     		lsls	r3, r3, r2
 465 004c DA43     		mvns	r2, r3
 466 004e 264B     		ldr	r3, .L27+8
 467 0050 1B68     		ldr	r3, [r3]
 468 0052 1340     		ands	r3, r3, r2
 469 0054 244A     		ldr	r2, .L27+8
 470 0056 1360     		str	r3, [r2]
 471              	.L20:
 761:../FreeRTOS/tasks.c **** 			}
 762:../FreeRTOS/tasks.c **** 			else
 763:../FreeRTOS/tasks.c **** 			{
 764:../FreeRTOS/tasks.c **** 				mtCOVERAGE_TEST_MARKER();
 765:../FreeRTOS/tasks.c **** 			}
 766:../FreeRTOS/tasks.c **** 
 767:../FreeRTOS/tasks.c **** 			/* Is the task waiting on an event also? */
 768:../FreeRTOS/tasks.c **** 			if( listLIST_ITEM_CONTAINER( &( pxTCB->xEventListItem ) ) != NULL )
 472              		.loc 1 768 0 is_stmt 1
 473 0058 FB68     		ldr	r3, [r7, #12]
 474 005a 9B6A     		ldr	r3, [r3, #40]
 475 005c 002B     		cmp	r3, #0
 476 005e 04D0     		beq	.L22
 769:../FreeRTOS/tasks.c **** 			{
 770:../FreeRTOS/tasks.c **** 				( void ) uxListRemove( &( pxTCB->xEventListItem ) );
 477              		.loc 1 770 0
 478 0060 FB68     		ldr	r3, [r7, #12]
 479 0062 1833     		adds	r3, r3, #24
 480 0064 1846     		mov	r0, r3
 481 0066 FFF7FEFF 		bl	uxListRemove
 482              	.L22:
 771:../FreeRTOS/tasks.c **** 			}
 772:../FreeRTOS/tasks.c **** 			else
 773:../FreeRTOS/tasks.c **** 			{
 774:../FreeRTOS/tasks.c **** 				mtCOVERAGE_TEST_MARKER();
 775:../FreeRTOS/tasks.c **** 			}
 776:../FreeRTOS/tasks.c **** 
 777:../FreeRTOS/tasks.c **** 			vListInsertEnd( &xTasksWaitingTermination, &( pxTCB->xGenericListItem ) );
 483              		.loc 1 777 0
 484 006a FB68     		ldr	r3, [r7, #12]
 485 006c 0433     		adds	r3, r3, #4
 486 006e 1F48     		ldr	r0, .L27+12
 487 0070 1946     		mov	r1, r3
 488 0072 FFF7FEFF 		bl	vListInsertEnd
 778:../FreeRTOS/tasks.c **** 
 779:../FreeRTOS/tasks.c **** 			/* Increment the ucTasksDeleted variable so the idle task knows
 780:../FreeRTOS/tasks.c **** 			there is a task that has been deleted and that it should therefore
 781:../FreeRTOS/tasks.c **** 			check the xTasksWaitingTermination list. */
 782:../FreeRTOS/tasks.c **** 			++uxTasksDeleted;
 489              		.loc 1 782 0
 490 0076 1E4B     		ldr	r3, .L27+16
 491 0078 1B68     		ldr	r3, [r3]
 492 007a 0133     		adds	r3, r3, #1
 493 007c 1C4A     		ldr	r2, .L27+16
 494 007e 1360     		str	r3, [r2]
 783:../FreeRTOS/tasks.c **** 
 784:../FreeRTOS/tasks.c **** 			/* Increment the uxTaskNumberVariable also so kernel aware debuggers
 785:../FreeRTOS/tasks.c **** 			can detect that the task lists need re-generating. */
 786:../FreeRTOS/tasks.c **** 			uxTaskNumber++;
 495              		.loc 1 786 0
 496 0080 1C4B     		ldr	r3, .L27+20
 497 0082 1B68     		ldr	r3, [r3]
 498 0084 0133     		adds	r3, r3, #1
 499 0086 1B4A     		ldr	r2, .L27+20
 500 0088 1360     		str	r3, [r2]
 787:../FreeRTOS/tasks.c **** 
 788:../FreeRTOS/tasks.c **** 			traceTASK_DELETE( pxTCB );
 789:../FreeRTOS/tasks.c **** 		}
 790:../FreeRTOS/tasks.c **** 		taskEXIT_CRITICAL();
 501              		.loc 1 790 0
 502 008a FFF7FEFF 		bl	vPortExitCritical
 791:../FreeRTOS/tasks.c **** 
 792:../FreeRTOS/tasks.c **** 		/* Force a reschedule if it is the currently running task that has just
 793:../FreeRTOS/tasks.c **** 		been deleted. */
 794:../FreeRTOS/tasks.c **** 		if( xSchedulerRunning != pdFALSE )
 503              		.loc 1 794 0
 504 008e 1A4B     		ldr	r3, .L27+24
 505 0090 1B68     		ldr	r3, [r3]
 506 0092 002B     		cmp	r3, #0
 507 0094 21D0     		beq	.L17
 795:../FreeRTOS/tasks.c **** 		{
 796:../FreeRTOS/tasks.c **** 			if( pxTCB == pxCurrentTCB )
 508              		.loc 1 796 0
 509 0096 124B     		ldr	r3, .L27
 510 0098 1B68     		ldr	r3, [r3]
 511 009a FA68     		ldr	r2, [r7, #12]
 512 009c 9A42     		cmp	r2, r3
 513 009e 16D1     		bne	.L24
 797:../FreeRTOS/tasks.c **** 			{
 798:../FreeRTOS/tasks.c **** 				configASSERT( uxSchedulerSuspended == 0 );
 514              		.loc 1 798 0
 515 00a0 164B     		ldr	r3, .L27+28
 516 00a2 1B68     		ldr	r3, [r3]
 517 00a4 002B     		cmp	r3, #0
 518 00a6 09D0     		beq	.L25
 519              	.LBB108:
 520              	.LBB109:
 521              		.loc 2 215 0 discriminator 1
 522              	@ 215 "/home/houxd/workspaceS32DS.ARM.V20/dp1000/FreeRTOS/include/../../FreeRTOS/include/../../Free
 523 00a8 4FF00703 			mov r3, #7												
 524 00ac 83F31188 		msr basepri, r3											
 525 00b0 BFF36F8F 		isb														
 526 00b4 BFF34F8F 		dsb														
 527              	
 528              	@ 0 "" 2
 529              		.thumb
 530 00b8 BB60     		str	r3, [r7, #8]
 531              	.L26:
 532              	.LBE109:
 533              	.LBE108:
 534              		.loc 1 798 0 discriminator 1
 535 00ba FEE7     		b	.L26
 536              	.L25:
 799:../FreeRTOS/tasks.c **** 
 800:../FreeRTOS/tasks.c **** 				/* The pre-delete hook is primarily for the Windows simulator,
 801:../FreeRTOS/tasks.c **** 				in which Windows specific clean up operations are performed,
 802:../FreeRTOS/tasks.c **** 				after which it is not possible to yield away from this task -
 803:../FreeRTOS/tasks.c **** 				hence xYieldPending is used to latch that a context switch is
 804:../FreeRTOS/tasks.c **** 				required. */
 805:../FreeRTOS/tasks.c **** 				portPRE_TASK_DELETE_HOOK( pxTCB, &xYieldPending );
 806:../FreeRTOS/tasks.c **** 				portYIELD_WITHIN_API();
 537              		.loc 1 806 0
 538 00bc 104B     		ldr	r3, .L27+32
 539 00be 4FF08052 		mov	r2, #268435456
 540 00c2 1A60     		str	r2, [r3]
 541              	@ 806 "../FreeRTOS/tasks.c" 1
 542 00c4 BFF34F8F 		dsb
 543              	@ 0 "" 2
 544              	@ 806 "../FreeRTOS/tasks.c" 1
 545 00c8 BFF36F8F 		isb
 546              	@ 0 "" 2
 547              		.thumb
 548 00cc 05E0     		b	.L17
 549              	.L24:
 807:../FreeRTOS/tasks.c **** 			}
 808:../FreeRTOS/tasks.c **** 			else
 809:../FreeRTOS/tasks.c **** 			{
 810:../FreeRTOS/tasks.c **** 				/* Reset the next expected unblock time in case it referred to
 811:../FreeRTOS/tasks.c **** 				the task that has just been deleted. */
 812:../FreeRTOS/tasks.c **** 				taskENTER_CRITICAL();
 550              		.loc 1 812 0
 551 00ce FFF7FEFF 		bl	vPortEnterCritical
 813:../FreeRTOS/tasks.c **** 				{
 814:../FreeRTOS/tasks.c **** 					prvResetNextTaskUnblockTime();
 552              		.loc 1 814 0
 553 00d2 FFF7FEFF 		bl	prvResetNextTaskUnblockTime
 815:../FreeRTOS/tasks.c **** 				}
 816:../FreeRTOS/tasks.c **** 				taskEXIT_CRITICAL();
 554              		.loc 1 816 0
 555 00d6 FFF7FEFF 		bl	vPortExitCritical
 556              	.L17:
 817:../FreeRTOS/tasks.c **** 			}
 818:../FreeRTOS/tasks.c **** 		}
 819:../FreeRTOS/tasks.c **** 	}
 557              		.loc 1 819 0
 558 00da 1037     		adds	r7, r7, #16
 559              		.cfi_def_cfa_offset 8
 560 00dc BD46     		mov	sp, r7
 561              		.cfi_def_cfa_register 13
 562              		@ sp needed
 563 00de 80BD     		pop	{r7, pc}
 564              	.L28:
 565              		.align	2
 566              	.L27:
 567 00e0 00000000 		.word	pxCurrentTCB
 568 00e4 00000000 		.word	pxReadyTasksLists
 569 00e8 00000000 		.word	uxTopReadyPriority
 570 00ec 00000000 		.word	xTasksWaitingTermination
 571 00f0 00000000 		.word	uxTasksDeleted
 572 00f4 00000000 		.word	uxTaskNumber
 573 00f8 00000000 		.word	xSchedulerRunning
 574 00fc 00000000 		.word	uxSchedulerSuspended
 575 0100 04ED00E0 		.word	-536810236
 576              		.cfi_endproc
 577              	.LFE5:
 579              		.section	.text.vTaskDelayUntil,"ax",%progbits
 580              		.align	2
 581              		.global	vTaskDelayUntil
 582              		.thumb
 583              		.thumb_func
 585              	vTaskDelayUntil:
 586              	.LFB6:
 820:../FreeRTOS/tasks.c **** 
 821:../FreeRTOS/tasks.c **** #endif /* INCLUDE_vTaskDelete */
 822:../FreeRTOS/tasks.c **** /*-----------------------------------------------------------*/
 823:../FreeRTOS/tasks.c **** 
 824:../FreeRTOS/tasks.c **** #if ( INCLUDE_vTaskDelayUntil == 1 )
 825:../FreeRTOS/tasks.c **** 
 826:../FreeRTOS/tasks.c **** 	void vTaskDelayUntil( TickType_t * const pxPreviousWakeTime, const TickType_t xTimeIncrement )
 827:../FreeRTOS/tasks.c **** 	{
 587              		.loc 1 827 0
 588              		.cfi_startproc
 589              		@ args = 0, pretend = 0, frame = 40
 590              		@ frame_needed = 1, uses_anonymous_args = 0
 591 0000 80B5     		push	{r7, lr}
 592              		.cfi_def_cfa_offset 8
 593              		.cfi_offset 7, -8
 594              		.cfi_offset 14, -4
 595 0002 8AB0     		sub	sp, sp, #40
 596              		.cfi_def_cfa_offset 48
 597 0004 00AF     		add	r7, sp, #0
 598              		.cfi_def_cfa_register 7
 599 0006 7860     		str	r0, [r7, #4]
 600 0008 3960     		str	r1, [r7]
 828:../FreeRTOS/tasks.c **** 	TickType_t xTimeToWake;
 829:../FreeRTOS/tasks.c **** 	BaseType_t xAlreadyYielded, xShouldDelay = pdFALSE;
 601              		.loc 1 829 0
 602 000a 0023     		movs	r3, #0
 603 000c 7B62     		str	r3, [r7, #36]
 830:../FreeRTOS/tasks.c **** 
 831:../FreeRTOS/tasks.c **** 		configASSERT( pxPreviousWakeTime );
 604              		.loc 1 831 0
 605 000e 7B68     		ldr	r3, [r7, #4]
 606 0010 002B     		cmp	r3, #0
 607 0012 09D1     		bne	.L30
 608              	.LBB110:
 609              	.LBB111:
 610              		.loc 2 215 0 discriminator 1
 611              	@ 215 "/home/houxd/workspaceS32DS.ARM.V20/dp1000/FreeRTOS/include/../../FreeRTOS/include/../../Free
 612 0014 4FF00703 			mov r3, #7												
 613 0018 83F31188 		msr basepri, r3											
 614 001c BFF36F8F 		isb														
 615 0020 BFF34F8F 		dsb														
 616              	
 617              	@ 0 "" 2
 618              		.thumb
 619 0024 7B61     		str	r3, [r7, #20]
 620              	.L31:
 621              	.LBE111:
 622              	.LBE110:
 623              		.loc 1 831 0 discriminator 1
 624 0026 FEE7     		b	.L31
 625              	.L30:
 832:../FreeRTOS/tasks.c **** 		configASSERT( ( xTimeIncrement > 0U ) );
 626              		.loc 1 832 0
 627 0028 3B68     		ldr	r3, [r7]
 628 002a 002B     		cmp	r3, #0
 629 002c 09D1     		bne	.L32
 630              	.LBB112:
 631              	.LBB113:
 632              		.loc 2 215 0 discriminator 1
 633              	@ 215 "/home/houxd/workspaceS32DS.ARM.V20/dp1000/FreeRTOS/include/../../FreeRTOS/include/../../Free
 634 002e 4FF00703 			mov r3, #7												
 635 0032 83F31188 		msr basepri, r3											
 636 0036 BFF36F8F 		isb														
 637 003a BFF34F8F 		dsb														
 638              	
 639              	@ 0 "" 2
 640              		.thumb
 641 003e 3B61     		str	r3, [r7, #16]
 642              	.L33:
 643              	.LBE113:
 644              	.LBE112:
 645              		.loc 1 832 0 discriminator 2
 646 0040 FEE7     		b	.L33
 647              	.L32:
 833:../FreeRTOS/tasks.c **** 		configASSERT( uxSchedulerSuspended == 0 );
 648              		.loc 1 833 0
 649 0042 314B     		ldr	r3, .L42
 650 0044 1B68     		ldr	r3, [r3]
 651 0046 002B     		cmp	r3, #0
 652 0048 09D0     		beq	.L34
 653              	.LBB114:
 654              	.LBB115:
 655              		.loc 2 215 0 discriminator 1
 656              	@ 215 "/home/houxd/workspaceS32DS.ARM.V20/dp1000/FreeRTOS/include/../../FreeRTOS/include/../../Free
 657 004a 4FF00703 			mov r3, #7												
 658 004e 83F31188 		msr basepri, r3											
 659 0052 BFF36F8F 		isb														
 660 0056 BFF34F8F 		dsb														
 661              	
 662              	@ 0 "" 2
 663              		.thumb
 664 005a FB60     		str	r3, [r7, #12]
 665              	.L35:
 666              	.LBE115:
 667              	.LBE114:
 668              		.loc 1 833 0 discriminator 3
 669 005c FEE7     		b	.L35
 670              	.L34:
 834:../FreeRTOS/tasks.c **** 
 835:../FreeRTOS/tasks.c **** 		vTaskSuspendAll();
 671              		.loc 1 835 0
 672 005e FFF7FEFF 		bl	vTaskSuspendAll
 673              	.LBB116:
 836:../FreeRTOS/tasks.c **** 		{
 837:../FreeRTOS/tasks.c **** 			/* Minor optimisation.  The tick count cannot change in this
 838:../FreeRTOS/tasks.c **** 			block. */
 839:../FreeRTOS/tasks.c **** 			const TickType_t xConstTickCount = xTickCount;
 674              		.loc 1 839 0
 675 0062 2A4B     		ldr	r3, .L42+4
 676 0064 1B68     		ldr	r3, [r3]
 677 0066 3B62     		str	r3, [r7, #32]
 840:../FreeRTOS/tasks.c **** 
 841:../FreeRTOS/tasks.c **** 			/* Generate the tick time at which the task wants to wake. */
 842:../FreeRTOS/tasks.c **** 			xTimeToWake = *pxPreviousWakeTime + xTimeIncrement;
 678              		.loc 1 842 0
 679 0068 7B68     		ldr	r3, [r7, #4]
 680 006a 1A68     		ldr	r2, [r3]
 681 006c 3B68     		ldr	r3, [r7]
 682 006e 1344     		add	r3, r3, r2
 683 0070 FB61     		str	r3, [r7, #28]
 843:../FreeRTOS/tasks.c **** 
 844:../FreeRTOS/tasks.c **** 			if( xConstTickCount < *pxPreviousWakeTime )
 684              		.loc 1 844 0
 685 0072 7B68     		ldr	r3, [r7, #4]
 686 0074 1A68     		ldr	r2, [r3]
 687 0076 3B6A     		ldr	r3, [r7, #32]
 688 0078 9A42     		cmp	r2, r3
 689 007a 0BD9     		bls	.L36
 845:../FreeRTOS/tasks.c **** 			{
 846:../FreeRTOS/tasks.c **** 				/* The tick count has overflowed since this function was
 847:../FreeRTOS/tasks.c **** 				lasted called.  In this case the only time we should ever
 848:../FreeRTOS/tasks.c **** 				actually delay is if the wake time has also	overflowed,
 849:../FreeRTOS/tasks.c **** 				and the wake time is greater than the tick time.  When this
 850:../FreeRTOS/tasks.c **** 				is the case it is as if neither time had overflowed. */
 851:../FreeRTOS/tasks.c **** 				if( ( xTimeToWake < *pxPreviousWakeTime ) && ( xTimeToWake > xConstTickCount ) )
 690              		.loc 1 851 0
 691 007c 7B68     		ldr	r3, [r7, #4]
 692 007e 1A68     		ldr	r2, [r3]
 693 0080 FB69     		ldr	r3, [r7, #28]
 694 0082 9A42     		cmp	r2, r3
 695 0084 11D9     		bls	.L37
 696              		.loc 1 851 0 is_stmt 0 discriminator 1
 697 0086 FA69     		ldr	r2, [r7, #28]
 698 0088 3B6A     		ldr	r3, [r7, #32]
 699 008a 9A42     		cmp	r2, r3
 700 008c 0DD9     		bls	.L37
 852:../FreeRTOS/tasks.c **** 				{
 853:../FreeRTOS/tasks.c **** 					xShouldDelay = pdTRUE;
 701              		.loc 1 853 0 is_stmt 1
 702 008e 0123     		movs	r3, #1
 703 0090 7B62     		str	r3, [r7, #36]
 704 0092 0AE0     		b	.L37
 705              	.L36:
 854:../FreeRTOS/tasks.c **** 				}
 855:../FreeRTOS/tasks.c **** 				else
 856:../FreeRTOS/tasks.c **** 				{
 857:../FreeRTOS/tasks.c **** 					mtCOVERAGE_TEST_MARKER();
 858:../FreeRTOS/tasks.c **** 				}
 859:../FreeRTOS/tasks.c **** 			}
 860:../FreeRTOS/tasks.c **** 			else
 861:../FreeRTOS/tasks.c **** 			{
 862:../FreeRTOS/tasks.c **** 				/* The tick time has not overflowed.  In this case we will
 863:../FreeRTOS/tasks.c **** 				delay if either the wake time has overflowed, and/or the
 864:../FreeRTOS/tasks.c **** 				tick time is less than the wake time. */
 865:../FreeRTOS/tasks.c **** 				if( ( xTimeToWake < *pxPreviousWakeTime ) || ( xTimeToWake > xConstTickCount ) )
 706              		.loc 1 865 0
 707 0094 7B68     		ldr	r3, [r7, #4]
 708 0096 1A68     		ldr	r2, [r3]
 709 0098 FB69     		ldr	r3, [r7, #28]
 710 009a 9A42     		cmp	r2, r3
 711 009c 03D8     		bhi	.L38
 712              		.loc 1 865 0 is_stmt 0 discriminator 1
 713 009e FA69     		ldr	r2, [r7, #28]
 714 00a0 3B6A     		ldr	r3, [r7, #32]
 715 00a2 9A42     		cmp	r2, r3
 716 00a4 01D9     		bls	.L37
 717              	.L38:
 866:../FreeRTOS/tasks.c **** 				{
 867:../FreeRTOS/tasks.c **** 					xShouldDelay = pdTRUE;
 718              		.loc 1 867 0 is_stmt 1
 719 00a6 0123     		movs	r3, #1
 720 00a8 7B62     		str	r3, [r7, #36]
 721              	.L37:
 868:../FreeRTOS/tasks.c **** 				}
 869:../FreeRTOS/tasks.c **** 				else
 870:../FreeRTOS/tasks.c **** 				{
 871:../FreeRTOS/tasks.c **** 					mtCOVERAGE_TEST_MARKER();
 872:../FreeRTOS/tasks.c **** 				}
 873:../FreeRTOS/tasks.c **** 			}
 874:../FreeRTOS/tasks.c **** 
 875:../FreeRTOS/tasks.c **** 			/* Update the wake time ready for the next call. */
 876:../FreeRTOS/tasks.c **** 			*pxPreviousWakeTime = xTimeToWake;
 722              		.loc 1 876 0
 723 00aa 7B68     		ldr	r3, [r7, #4]
 724 00ac FA69     		ldr	r2, [r7, #28]
 725 00ae 1A60     		str	r2, [r3]
 877:../FreeRTOS/tasks.c **** 
 878:../FreeRTOS/tasks.c **** 			if( xShouldDelay != pdFALSE )
 726              		.loc 1 878 0
 727 00b0 7B6A     		ldr	r3, [r7, #36]
 728 00b2 002B     		cmp	r3, #0
 729 00b4 17D0     		beq	.L39
 879:../FreeRTOS/tasks.c **** 			{
 880:../FreeRTOS/tasks.c **** 				traceTASK_DELAY_UNTIL();
 881:../FreeRTOS/tasks.c **** 
 882:../FreeRTOS/tasks.c **** 				/* Remove the task from the ready list before adding it to the
 883:../FreeRTOS/tasks.c **** 				blocked list as the same list item is used for both lists. */
 884:../FreeRTOS/tasks.c **** 				if( uxListRemove( &( pxCurrentTCB->xGenericListItem ) ) == ( UBaseType_t ) 0 )
 730              		.loc 1 884 0
 731 00b6 164B     		ldr	r3, .L42+8
 732 00b8 1B68     		ldr	r3, [r3]
 733 00ba 0433     		adds	r3, r3, #4
 734 00bc 1846     		mov	r0, r3
 735 00be FFF7FEFF 		bl	uxListRemove
 736 00c2 0346     		mov	r3, r0
 737 00c4 002B     		cmp	r3, #0
 738 00c6 0BD1     		bne	.L40
 885:../FreeRTOS/tasks.c **** 				{
 886:../FreeRTOS/tasks.c **** 					/* The current task must be in a ready list, so there is
 887:../FreeRTOS/tasks.c **** 					no need to check, and the port reset macro can be called
 888:../FreeRTOS/tasks.c **** 					directly. */
 889:../FreeRTOS/tasks.c **** 					portRESET_READY_PRIORITY( pxCurrentTCB->uxPriority, uxTopReadyPriority );
 739              		.loc 1 889 0
 740 00c8 114B     		ldr	r3, .L42+8
 741 00ca 1B68     		ldr	r3, [r3]
 742 00cc DB6A     		ldr	r3, [r3, #44]
 743 00ce 1A46     		mov	r2, r3
 744 00d0 0123     		movs	r3, #1
 745 00d2 9340     		lsls	r3, r3, r2
 746 00d4 DA43     		mvns	r2, r3
 747 00d6 0F4B     		ldr	r3, .L42+12
 748 00d8 1B68     		ldr	r3, [r3]
 749 00da 1340     		ands	r3, r3, r2
 750 00dc 0D4A     		ldr	r2, .L42+12
 751 00de 1360     		str	r3, [r2]
 752              	.L40:
 890:../FreeRTOS/tasks.c **** 				}
 891:../FreeRTOS/tasks.c **** 				else
 892:../FreeRTOS/tasks.c **** 				{
 893:../FreeRTOS/tasks.c **** 					mtCOVERAGE_TEST_MARKER();
 894:../FreeRTOS/tasks.c **** 				}
 895:../FreeRTOS/tasks.c **** 
 896:../FreeRTOS/tasks.c **** 				prvAddCurrentTaskToDelayedList( xTimeToWake );
 753              		.loc 1 896 0
 754 00e0 F869     		ldr	r0, [r7, #28]
 755 00e2 FFF7FEFF 		bl	prvAddCurrentTaskToDelayedList
 756              	.L39:
 757              	.LBE116:
 897:../FreeRTOS/tasks.c **** 			}
 898:../FreeRTOS/tasks.c **** 			else
 899:../FreeRTOS/tasks.c **** 			{
 900:../FreeRTOS/tasks.c **** 				mtCOVERAGE_TEST_MARKER();
 901:../FreeRTOS/tasks.c **** 			}
 902:../FreeRTOS/tasks.c **** 		}
 903:../FreeRTOS/tasks.c **** 		xAlreadyYielded = xTaskResumeAll();
 758              		.loc 1 903 0
 759 00e6 FFF7FEFF 		bl	xTaskResumeAll
 760 00ea B861     		str	r0, [r7, #24]
 904:../FreeRTOS/tasks.c **** 
 905:../FreeRTOS/tasks.c **** 		/* Force a reschedule if xTaskResumeAll has not already done so, we may
 906:../FreeRTOS/tasks.c **** 		have put ourselves to sleep. */
 907:../FreeRTOS/tasks.c **** 		if( xAlreadyYielded == pdFALSE )
 761              		.loc 1 907 0
 762 00ec BB69     		ldr	r3, [r7, #24]
 763 00ee 002B     		cmp	r3, #0
 764 00f0 07D1     		bne	.L29
 908:../FreeRTOS/tasks.c **** 		{
 909:../FreeRTOS/tasks.c **** 			portYIELD_WITHIN_API();
 765              		.loc 1 909 0
 766 00f2 094B     		ldr	r3, .L42+16
 767 00f4 4FF08052 		mov	r2, #268435456
 768 00f8 1A60     		str	r2, [r3]
 769              	@ 909 "../FreeRTOS/tasks.c" 1
 770 00fa BFF34F8F 		dsb
 771              	@ 0 "" 2
 772              	@ 909 "../FreeRTOS/tasks.c" 1
 773 00fe BFF36F8F 		isb
 774              	@ 0 "" 2
 775              		.thumb
 776              	.L29:
 910:../FreeRTOS/tasks.c **** 		}
 911:../FreeRTOS/tasks.c **** 		else
 912:../FreeRTOS/tasks.c **** 		{
 913:../FreeRTOS/tasks.c **** 			mtCOVERAGE_TEST_MARKER();
 914:../FreeRTOS/tasks.c **** 		}
 915:../FreeRTOS/tasks.c **** 	}
 777              		.loc 1 915 0
 778 0102 2837     		adds	r7, r7, #40
 779              		.cfi_def_cfa_offset 8
 780 0104 BD46     		mov	sp, r7
 781              		.cfi_def_cfa_register 13
 782              		@ sp needed
 783 0106 80BD     		pop	{r7, pc}
 784              	.L43:
 785              		.align	2
 786              	.L42:
 787 0108 00000000 		.word	uxSchedulerSuspended
 788 010c 00000000 		.word	xTickCount
 789 0110 00000000 		.word	pxCurrentTCB
 790 0114 00000000 		.word	uxTopReadyPriority
 791 0118 04ED00E0 		.word	-536810236
 792              		.cfi_endproc
 793              	.LFE6:
 795              		.section	.text.vTaskDelay,"ax",%progbits
 796              		.align	2
 797              		.global	vTaskDelay
 798              		.thumb
 799              		.thumb_func
 801              	vTaskDelay:
 802              	.LFB7:
 916:../FreeRTOS/tasks.c **** 
 917:../FreeRTOS/tasks.c **** #endif /* INCLUDE_vTaskDelayUntil */
 918:../FreeRTOS/tasks.c **** /*-----------------------------------------------------------*/
 919:../FreeRTOS/tasks.c **** 
 920:../FreeRTOS/tasks.c **** #if ( INCLUDE_vTaskDelay == 1 )
 921:../FreeRTOS/tasks.c **** 
 922:../FreeRTOS/tasks.c **** 	void vTaskDelay( const TickType_t xTicksToDelay )
 923:../FreeRTOS/tasks.c **** 	{
 803              		.loc 1 923 0
 804              		.cfi_startproc
 805              		@ args = 0, pretend = 0, frame = 24
 806              		@ frame_needed = 1, uses_anonymous_args = 0
 807 0000 80B5     		push	{r7, lr}
 808              		.cfi_def_cfa_offset 8
 809              		.cfi_offset 7, -8
 810              		.cfi_offset 14, -4
 811 0002 86B0     		sub	sp, sp, #24
 812              		.cfi_def_cfa_offset 32
 813 0004 00AF     		add	r7, sp, #0
 814              		.cfi_def_cfa_register 7
 815 0006 7860     		str	r0, [r7, #4]
 924:../FreeRTOS/tasks.c **** 	TickType_t xTimeToWake;
 925:../FreeRTOS/tasks.c **** 	BaseType_t xAlreadyYielded = pdFALSE;
 816              		.loc 1 925 0
 817 0008 0023     		movs	r3, #0
 818 000a 7B61     		str	r3, [r7, #20]
 926:../FreeRTOS/tasks.c **** 
 927:../FreeRTOS/tasks.c **** 
 928:../FreeRTOS/tasks.c **** 		/* A delay time of zero just forces a reschedule. */
 929:../FreeRTOS/tasks.c **** 		if( xTicksToDelay > ( TickType_t ) 0U )
 819              		.loc 1 929 0
 820 000c 7B68     		ldr	r3, [r7, #4]
 821 000e 002B     		cmp	r3, #0
 822 0010 2FD0     		beq	.L45
 930:../FreeRTOS/tasks.c **** 		{
 931:../FreeRTOS/tasks.c **** 			configASSERT( uxSchedulerSuspended == 0 );
 823              		.loc 1 931 0
 824 0012 1F4B     		ldr	r3, .L50
 825 0014 1B68     		ldr	r3, [r3]
 826 0016 002B     		cmp	r3, #0
 827 0018 09D0     		beq	.L46
 828              	.LBB117:
 829              	.LBB118:
 830              		.loc 2 215 0 discriminator 1
 831              	@ 215 "/home/houxd/workspaceS32DS.ARM.V20/dp1000/FreeRTOS/include/../../FreeRTOS/include/../../Free
 832 001a 4FF00703 			mov r3, #7												
 833 001e 83F31188 		msr basepri, r3											
 834 0022 BFF36F8F 		isb														
 835 0026 BFF34F8F 		dsb														
 836              	
 837              	@ 0 "" 2
 838              		.thumb
 839 002a FB60     		str	r3, [r7, #12]
 840              	.L47:
 841              	.LBE118:
 842              	.LBE117:
 843              		.loc 1 931 0 discriminator 1
 844 002c FEE7     		b	.L47
 845              	.L46:
 932:../FreeRTOS/tasks.c **** 			vTaskSuspendAll();
 846              		.loc 1 932 0
 847 002e FFF7FEFF 		bl	vTaskSuspendAll
 933:../FreeRTOS/tasks.c **** 			{
 934:../FreeRTOS/tasks.c **** 				traceTASK_DELAY();
 935:../FreeRTOS/tasks.c **** 
 936:../FreeRTOS/tasks.c **** 				/* A task that is removed from the event list while the
 937:../FreeRTOS/tasks.c **** 				scheduler is suspended will not get placed in the ready
 938:../FreeRTOS/tasks.c **** 				list or removed from the blocked list until the scheduler
 939:../FreeRTOS/tasks.c **** 				is resumed.
 940:../FreeRTOS/tasks.c **** 
 941:../FreeRTOS/tasks.c **** 				This task cannot be in an event list as it is the currently
 942:../FreeRTOS/tasks.c **** 				executing task. */
 943:../FreeRTOS/tasks.c **** 
 944:../FreeRTOS/tasks.c **** 				/* Calculate the time to wake - this may overflow but this is
 945:../FreeRTOS/tasks.c **** 				not a problem. */
 946:../FreeRTOS/tasks.c **** 				xTimeToWake = xTickCount + xTicksToDelay;
 848              		.loc 1 946 0
 849 0032 184B     		ldr	r3, .L50+4
 850 0034 1A68     		ldr	r2, [r3]
 851 0036 7B68     		ldr	r3, [r7, #4]
 852 0038 1344     		add	r3, r3, r2
 853 003a 3B61     		str	r3, [r7, #16]
 947:../FreeRTOS/tasks.c **** 
 948:../FreeRTOS/tasks.c **** 				/* We must remove ourselves from the ready list before adding
 949:../FreeRTOS/tasks.c **** 				ourselves to the blocked list as the same list item is used for
 950:../FreeRTOS/tasks.c **** 				both lists. */
 951:../FreeRTOS/tasks.c **** 				if( uxListRemove( &( pxCurrentTCB->xGenericListItem ) ) == ( UBaseType_t ) 0 )
 854              		.loc 1 951 0
 855 003c 164B     		ldr	r3, .L50+8
 856 003e 1B68     		ldr	r3, [r3]
 857 0040 0433     		adds	r3, r3, #4
 858 0042 1846     		mov	r0, r3
 859 0044 FFF7FEFF 		bl	uxListRemove
 860 0048 0346     		mov	r3, r0
 861 004a 002B     		cmp	r3, #0
 862 004c 0BD1     		bne	.L48
 952:../FreeRTOS/tasks.c **** 				{
 953:../FreeRTOS/tasks.c **** 					/* The current task must be in a ready list, so there is
 954:../FreeRTOS/tasks.c **** 					no need to check, and the port reset macro can be called
 955:../FreeRTOS/tasks.c **** 					directly. */
 956:../FreeRTOS/tasks.c **** 					portRESET_READY_PRIORITY( pxCurrentTCB->uxPriority, uxTopReadyPriority );
 863              		.loc 1 956 0
 864 004e 124B     		ldr	r3, .L50+8
 865 0050 1B68     		ldr	r3, [r3]
 866 0052 DB6A     		ldr	r3, [r3, #44]
 867 0054 1A46     		mov	r2, r3
 868 0056 0123     		movs	r3, #1
 869 0058 9340     		lsls	r3, r3, r2
 870 005a DA43     		mvns	r2, r3
 871 005c 0F4B     		ldr	r3, .L50+12
 872 005e 1B68     		ldr	r3, [r3]
 873 0060 1340     		ands	r3, r3, r2
 874 0062 0E4A     		ldr	r2, .L50+12
 875 0064 1360     		str	r3, [r2]
 876              	.L48:
 957:../FreeRTOS/tasks.c **** 				}
 958:../FreeRTOS/tasks.c **** 				else
 959:../FreeRTOS/tasks.c **** 				{
 960:../FreeRTOS/tasks.c **** 					mtCOVERAGE_TEST_MARKER();
 961:../FreeRTOS/tasks.c **** 				}
 962:../FreeRTOS/tasks.c **** 				prvAddCurrentTaskToDelayedList( xTimeToWake );
 877              		.loc 1 962 0
 878 0066 3869     		ldr	r0, [r7, #16]
 879 0068 FFF7FEFF 		bl	prvAddCurrentTaskToDelayedList
 963:../FreeRTOS/tasks.c **** 			}
 964:../FreeRTOS/tasks.c **** 			xAlreadyYielded = xTaskResumeAll();
 880              		.loc 1 964 0
 881 006c FFF7FEFF 		bl	xTaskResumeAll
 882 0070 7861     		str	r0, [r7, #20]
 883              	.L45:
 965:../FreeRTOS/tasks.c **** 		}
 966:../FreeRTOS/tasks.c **** 		else
 967:../FreeRTOS/tasks.c **** 		{
 968:../FreeRTOS/tasks.c **** 			mtCOVERAGE_TEST_MARKER();
 969:../FreeRTOS/tasks.c **** 		}
 970:../FreeRTOS/tasks.c **** 
 971:../FreeRTOS/tasks.c **** 		/* Force a reschedule if xTaskResumeAll has not already done so, we may
 972:../FreeRTOS/tasks.c **** 		have put ourselves to sleep. */
 973:../FreeRTOS/tasks.c **** 		if( xAlreadyYielded == pdFALSE )
 884              		.loc 1 973 0
 885 0072 7B69     		ldr	r3, [r7, #20]
 886 0074 002B     		cmp	r3, #0
 887 0076 07D1     		bne	.L44
 974:../FreeRTOS/tasks.c **** 		{
 975:../FreeRTOS/tasks.c **** 			portYIELD_WITHIN_API();
 888              		.loc 1 975 0
 889 0078 094B     		ldr	r3, .L50+16
 890 007a 4FF08052 		mov	r2, #268435456
 891 007e 1A60     		str	r2, [r3]
 892              	@ 975 "../FreeRTOS/tasks.c" 1
 893 0080 BFF34F8F 		dsb
 894              	@ 0 "" 2
 895              	@ 975 "../FreeRTOS/tasks.c" 1
 896 0084 BFF36F8F 		isb
 897              	@ 0 "" 2
 898              		.thumb
 899              	.L44:
 976:../FreeRTOS/tasks.c **** 		}
 977:../FreeRTOS/tasks.c **** 		else
 978:../FreeRTOS/tasks.c **** 		{
 979:../FreeRTOS/tasks.c **** 			mtCOVERAGE_TEST_MARKER();
 980:../FreeRTOS/tasks.c **** 		}
 981:../FreeRTOS/tasks.c **** 	}
 900              		.loc 1 981 0
 901 0088 1837     		adds	r7, r7, #24
 902              		.cfi_def_cfa_offset 8
 903 008a BD46     		mov	sp, r7
 904              		.cfi_def_cfa_register 13
 905              		@ sp needed
 906 008c 80BD     		pop	{r7, pc}
 907              	.L51:
 908 008e 00BF     		.align	2
 909              	.L50:
 910 0090 00000000 		.word	uxSchedulerSuspended
 911 0094 00000000 		.word	xTickCount
 912 0098 00000000 		.word	pxCurrentTCB
 913 009c 00000000 		.word	uxTopReadyPriority
 914 00a0 04ED00E0 		.word	-536810236
 915              		.cfi_endproc
 916              	.LFE7:
 918              		.section	.text.uxTaskPriorityGet,"ax",%progbits
 919              		.align	2
 920              		.global	uxTaskPriorityGet
 921              		.thumb
 922              		.thumb_func
 924              	uxTaskPriorityGet:
 925              	.LFB8:
 982:../FreeRTOS/tasks.c **** 
 983:../FreeRTOS/tasks.c **** #endif /* INCLUDE_vTaskDelay */
 984:../FreeRTOS/tasks.c **** /*-----------------------------------------------------------*/
 985:../FreeRTOS/tasks.c **** 
 986:../FreeRTOS/tasks.c **** #if ( INCLUDE_eTaskGetState == 1 )
 987:../FreeRTOS/tasks.c **** 
 988:../FreeRTOS/tasks.c **** 	eTaskState eTaskGetState( TaskHandle_t xTask )
 989:../FreeRTOS/tasks.c **** 	{
 990:../FreeRTOS/tasks.c **** 	eTaskState eReturn;
 991:../FreeRTOS/tasks.c **** 	List_t *pxStateList;
 992:../FreeRTOS/tasks.c **** 	const TCB_t * const pxTCB = ( TCB_t * ) xTask;
 993:../FreeRTOS/tasks.c **** 
 994:../FreeRTOS/tasks.c **** 		configASSERT( pxTCB );
 995:../FreeRTOS/tasks.c **** 
 996:../FreeRTOS/tasks.c **** 		if( pxTCB == pxCurrentTCB )
 997:../FreeRTOS/tasks.c **** 		{
 998:../FreeRTOS/tasks.c **** 			/* The task calling this function is querying its own state. */
 999:../FreeRTOS/tasks.c **** 			eReturn = eRunning;
1000:../FreeRTOS/tasks.c **** 		}
1001:../FreeRTOS/tasks.c **** 		else
1002:../FreeRTOS/tasks.c **** 		{
1003:../FreeRTOS/tasks.c **** 			taskENTER_CRITICAL();
1004:../FreeRTOS/tasks.c **** 			{
1005:../FreeRTOS/tasks.c **** 				pxStateList = ( List_t * ) listLIST_ITEM_CONTAINER( &( pxTCB->xGenericListItem ) );
1006:../FreeRTOS/tasks.c **** 			}
1007:../FreeRTOS/tasks.c **** 			taskEXIT_CRITICAL();
1008:../FreeRTOS/tasks.c **** 
1009:../FreeRTOS/tasks.c **** 			if( ( pxStateList == pxDelayedTaskList ) || ( pxStateList == pxOverflowDelayedTaskList ) )
1010:../FreeRTOS/tasks.c **** 			{
1011:../FreeRTOS/tasks.c **** 				/* The task being queried is referenced from one of the Blocked
1012:../FreeRTOS/tasks.c **** 				lists. */
1013:../FreeRTOS/tasks.c **** 				eReturn = eBlocked;
1014:../FreeRTOS/tasks.c **** 			}
1015:../FreeRTOS/tasks.c **** 
1016:../FreeRTOS/tasks.c **** 			#if ( INCLUDE_vTaskSuspend == 1 )
1017:../FreeRTOS/tasks.c **** 				else if( pxStateList == &xSuspendedTaskList )
1018:../FreeRTOS/tasks.c **** 				{
1019:../FreeRTOS/tasks.c **** 					/* The task being queried is referenced from the suspended
1020:../FreeRTOS/tasks.c **** 					list.  Is it genuinely suspended or is it block
1021:../FreeRTOS/tasks.c **** 					indefinitely? */
1022:../FreeRTOS/tasks.c **** 					if( listLIST_ITEM_CONTAINER( &( pxTCB->xEventListItem ) ) == NULL )
1023:../FreeRTOS/tasks.c **** 					{
1024:../FreeRTOS/tasks.c **** 						eReturn = eSuspended;
1025:../FreeRTOS/tasks.c **** 					}
1026:../FreeRTOS/tasks.c **** 					else
1027:../FreeRTOS/tasks.c **** 					{
1028:../FreeRTOS/tasks.c **** 						eReturn = eBlocked;
1029:../FreeRTOS/tasks.c **** 					}
1030:../FreeRTOS/tasks.c **** 				}
1031:../FreeRTOS/tasks.c **** 			#endif
1032:../FreeRTOS/tasks.c **** 
1033:../FreeRTOS/tasks.c **** 			#if ( INCLUDE_vTaskDelete == 1 )
1034:../FreeRTOS/tasks.c **** 				else if( pxStateList == &xTasksWaitingTermination )
1035:../FreeRTOS/tasks.c **** 				{
1036:../FreeRTOS/tasks.c **** 					/* The task being queried is referenced from the deleted
1037:../FreeRTOS/tasks.c **** 					tasks list. */
1038:../FreeRTOS/tasks.c **** 					eReturn = eDeleted;
1039:../FreeRTOS/tasks.c **** 				}
1040:../FreeRTOS/tasks.c **** 			#endif
1041:../FreeRTOS/tasks.c **** 
1042:../FreeRTOS/tasks.c **** 			else /*lint !e525 Negative indentation is intended to make use of pre-processor clearer. */
1043:../FreeRTOS/tasks.c **** 			{
1044:../FreeRTOS/tasks.c **** 				/* If the task is not in any other state, it must be in the
1045:../FreeRTOS/tasks.c **** 				Ready (including pending ready) state. */
1046:../FreeRTOS/tasks.c **** 				eReturn = eReady;
1047:../FreeRTOS/tasks.c **** 			}
1048:../FreeRTOS/tasks.c **** 		}
1049:../FreeRTOS/tasks.c **** 
1050:../FreeRTOS/tasks.c **** 		return eReturn;
1051:../FreeRTOS/tasks.c **** 	} /*lint !e818 xTask cannot be a pointer to const because it is a typedef. */
1052:../FreeRTOS/tasks.c **** 
1053:../FreeRTOS/tasks.c **** #endif /* INCLUDE_eTaskGetState */
1054:../FreeRTOS/tasks.c **** /*-----------------------------------------------------------*/
1055:../FreeRTOS/tasks.c **** 
1056:../FreeRTOS/tasks.c **** #if ( INCLUDE_uxTaskPriorityGet == 1 )
1057:../FreeRTOS/tasks.c **** 
1058:../FreeRTOS/tasks.c **** 	UBaseType_t uxTaskPriorityGet( TaskHandle_t xTask )
1059:../FreeRTOS/tasks.c **** 	{
 926              		.loc 1 1059 0
 927              		.cfi_startproc
 928              		@ args = 0, pretend = 0, frame = 16
 929              		@ frame_needed = 1, uses_anonymous_args = 0
 930 0000 80B5     		push	{r7, lr}
 931              		.cfi_def_cfa_offset 8
 932              		.cfi_offset 7, -8
 933              		.cfi_offset 14, -4
 934 0002 84B0     		sub	sp, sp, #16
 935              		.cfi_def_cfa_offset 24
 936 0004 00AF     		add	r7, sp, #0
 937              		.cfi_def_cfa_register 7
 938 0006 7860     		str	r0, [r7, #4]
1060:../FreeRTOS/tasks.c **** 	TCB_t *pxTCB;
1061:../FreeRTOS/tasks.c **** 	UBaseType_t uxReturn;
1062:../FreeRTOS/tasks.c **** 
1063:../FreeRTOS/tasks.c **** 		taskENTER_CRITICAL();
 939              		.loc 1 1063 0
 940 0008 FFF7FEFF 		bl	vPortEnterCritical
1064:../FreeRTOS/tasks.c **** 		{
1065:../FreeRTOS/tasks.c **** 			/* If null is passed in here then we are changing the
1066:../FreeRTOS/tasks.c **** 			priority of the calling function. */
1067:../FreeRTOS/tasks.c **** 			pxTCB = prvGetTCBFromHandle( xTask );
 941              		.loc 1 1067 0
 942 000c 7B68     		ldr	r3, [r7, #4]
 943 000e 002B     		cmp	r3, #0
 944 0010 02D1     		bne	.L53
 945              		.loc 1 1067 0 is_stmt 0 discriminator 1
 946 0012 074B     		ldr	r3, .L56
 947 0014 1B68     		ldr	r3, [r3]
 948 0016 00E0     		b	.L54
 949              	.L53:
 950              		.loc 1 1067 0 discriminator 2
 951 0018 7B68     		ldr	r3, [r7, #4]
 952              	.L54:
 953              		.loc 1 1067 0 discriminator 4
 954 001a FB60     		str	r3, [r7, #12]
1068:../FreeRTOS/tasks.c **** 			uxReturn = pxTCB->uxPriority;
 955              		.loc 1 1068 0 is_stmt 1 discriminator 4
 956 001c FB68     		ldr	r3, [r7, #12]
 957 001e DB6A     		ldr	r3, [r3, #44]
 958 0020 BB60     		str	r3, [r7, #8]
1069:../FreeRTOS/tasks.c **** 		}
1070:../FreeRTOS/tasks.c **** 		taskEXIT_CRITICAL();
 959              		.loc 1 1070 0 discriminator 4
 960 0022 FFF7FEFF 		bl	vPortExitCritical
1071:../FreeRTOS/tasks.c **** 
1072:../FreeRTOS/tasks.c **** 		return uxReturn;
 961              		.loc 1 1072 0 discriminator 4
 962 0026 BB68     		ldr	r3, [r7, #8]
1073:../FreeRTOS/tasks.c **** 	}
 963              		.loc 1 1073 0 discriminator 4
 964 0028 1846     		mov	r0, r3
 965 002a 1037     		adds	r7, r7, #16
 966              		.cfi_def_cfa_offset 8
 967 002c BD46     		mov	sp, r7
 968              		.cfi_def_cfa_register 13
 969              		@ sp needed
 970 002e 80BD     		pop	{r7, pc}
 971              	.L57:
 972              		.align	2
 973              	.L56:
 974 0030 00000000 		.word	pxCurrentTCB
 975              		.cfi_endproc
 976              	.LFE8:
 978              		.section	.text.uxTaskPriorityGetFromISR,"ax",%progbits
 979              		.align	2
 980              		.global	uxTaskPriorityGetFromISR
 981              		.thumb
 982              		.thumb_func
 984              	uxTaskPriorityGetFromISR:
 985              	.LFB9:
1074:../FreeRTOS/tasks.c **** 
1075:../FreeRTOS/tasks.c **** #endif /* INCLUDE_uxTaskPriorityGet */
1076:../FreeRTOS/tasks.c **** /*-----------------------------------------------------------*/
1077:../FreeRTOS/tasks.c **** 
1078:../FreeRTOS/tasks.c **** #if ( INCLUDE_uxTaskPriorityGet == 1 )
1079:../FreeRTOS/tasks.c **** 
1080:../FreeRTOS/tasks.c **** 	UBaseType_t uxTaskPriorityGetFromISR( TaskHandle_t xTask )
1081:../FreeRTOS/tasks.c **** 	{
 986              		.loc 1 1081 0
 987              		.cfi_startproc
 988              		@ args = 0, pretend = 0, frame = 32
 989              		@ frame_needed = 1, uses_anonymous_args = 0
 990 0000 80B5     		push	{r7, lr}
 991              		.cfi_def_cfa_offset 8
 992              		.cfi_offset 7, -8
 993              		.cfi_offset 14, -4
 994 0002 88B0     		sub	sp, sp, #32
 995              		.cfi_def_cfa_offset 40
 996 0004 00AF     		add	r7, sp, #0
 997              		.cfi_def_cfa_register 7
 998 0006 7860     		str	r0, [r7, #4]
1082:../FreeRTOS/tasks.c **** 	TCB_t *pxTCB;
1083:../FreeRTOS/tasks.c **** 	UBaseType_t uxReturn, uxSavedInterruptState;
1084:../FreeRTOS/tasks.c **** 
1085:../FreeRTOS/tasks.c **** 		/* RTOS ports that support interrupt nesting have the concept of a
1086:../FreeRTOS/tasks.c **** 		maximum	system call (or maximum API call) interrupt priority.
1087:../FreeRTOS/tasks.c **** 		Interrupts that are	above the maximum system call priority are keep
1088:../FreeRTOS/tasks.c **** 		permanently enabled, even when the RTOS kernel is in a critical section,
1089:../FreeRTOS/tasks.c **** 		but cannot make any calls to FreeRTOS API functions.  If configASSERT()
1090:../FreeRTOS/tasks.c **** 		is defined in FreeRTOSConfig.h then
1091:../FreeRTOS/tasks.c **** 		portASSERT_IF_INTERRUPT_PRIORITY_INVALID() will result in an assertion
1092:../FreeRTOS/tasks.c **** 		failure if a FreeRTOS API function is called from an interrupt that has
1093:../FreeRTOS/tasks.c **** 		been assigned a priority above the configured maximum system call
1094:../FreeRTOS/tasks.c **** 		priority.  Only FreeRTOS functions that end in FromISR can be called
1095:../FreeRTOS/tasks.c **** 		from interrupts	that have been assigned a priority at or (logically)
1096:../FreeRTOS/tasks.c **** 		below the maximum system call interrupt priority.  FreeRTOS maintains a
1097:../FreeRTOS/tasks.c **** 		separate interrupt safe API to ensure interrupt entry is as fast and as
1098:../FreeRTOS/tasks.c **** 		simple as possible.  More information (albeit Cortex-M specific) is
1099:../FreeRTOS/tasks.c **** 		provided on the following link:
1100:../FreeRTOS/tasks.c **** 		http://www.freertos.org/RTOS-Cortex-M3-M4.html */
1101:../FreeRTOS/tasks.c **** 		portASSERT_IF_INTERRUPT_PRIORITY_INVALID();
 999              		.loc 1 1101 0
 1000 0008 FFF7FEFF 		bl	vPortValidateInterruptPriority
 1001              	.LBB119:
 1002              	.LBB120:
 216:/home/houxd/workspaceS32DS.ARM.V20/dp1000/FreeRTOS/include/../../FreeRTOS/include/../../FreeRTOS/portable/GCC/ARM_CM4F/portmacro.h **** 	(
 217:/home/houxd/workspaceS32DS.ARM.V20/dp1000/FreeRTOS/include/../../FreeRTOS/include/../../FreeRTOS/portable/GCC/ARM_CM4F/portmacro.h **** 		"	mov %0, %1												\n"	\
 218:/home/houxd/workspaceS32DS.ARM.V20/dp1000/FreeRTOS/include/../../FreeRTOS/include/../../FreeRTOS/portable/GCC/ARM_CM4F/portmacro.h **** 		"	msr basepri, %0											\n" \
 219:/home/houxd/workspaceS32DS.ARM.V20/dp1000/FreeRTOS/include/../../FreeRTOS/include/../../FreeRTOS/portable/GCC/ARM_CM4F/portmacro.h **** 		"	isb														\n" \
 220:/home/houxd/workspaceS32DS.ARM.V20/dp1000/FreeRTOS/include/../../FreeRTOS/include/../../FreeRTOS/portable/GCC/ARM_CM4F/portmacro.h **** 		"	dsb														\n" \
 221:/home/houxd/workspaceS32DS.ARM.V20/dp1000/FreeRTOS/include/../../FreeRTOS/include/../../FreeRTOS/portable/GCC/ARM_CM4F/portmacro.h **** 		:"=r" (ulNewBASEPRI) : "i" ( configMAX_SYSCALL_INTERRUPT_PRIORITY )
 222:/home/houxd/workspaceS32DS.ARM.V20/dp1000/FreeRTOS/include/../../FreeRTOS/include/../../FreeRTOS/portable/GCC/ARM_CM4F/portmacro.h **** 	);
 223:/home/houxd/workspaceS32DS.ARM.V20/dp1000/FreeRTOS/include/../../FreeRTOS/include/../../FreeRTOS/portable/GCC/ARM_CM4F/portmacro.h **** }
 224:/home/houxd/workspaceS32DS.ARM.V20/dp1000/FreeRTOS/include/../../FreeRTOS/include/../../FreeRTOS/portable/GCC/ARM_CM4F/portmacro.h **** 
 225:/home/houxd/workspaceS32DS.ARM.V20/dp1000/FreeRTOS/include/../../FreeRTOS/include/../../FreeRTOS/portable/GCC/ARM_CM4F/portmacro.h **** /*-----------------------------------------------------------*/
 226:/home/houxd/workspaceS32DS.ARM.V20/dp1000/FreeRTOS/include/../../FreeRTOS/include/../../FreeRTOS/portable/GCC/ARM_CM4F/portmacro.h **** 
 227:/home/houxd/workspaceS32DS.ARM.V20/dp1000/FreeRTOS/include/../../FreeRTOS/include/../../FreeRTOS/portable/GCC/ARM_CM4F/portmacro.h **** portFORCE_INLINE static uint32_t ulPortRaiseBASEPRI( void )
 228:/home/houxd/workspaceS32DS.ARM.V20/dp1000/FreeRTOS/include/../../FreeRTOS/include/../../FreeRTOS/portable/GCC/ARM_CM4F/portmacro.h **** {
 229:/home/houxd/workspaceS32DS.ARM.V20/dp1000/FreeRTOS/include/../../FreeRTOS/include/../../FreeRTOS/portable/GCC/ARM_CM4F/portmacro.h **** uint32_t ulOriginalBASEPRI, ulNewBASEPRI;
 230:/home/houxd/workspaceS32DS.ARM.V20/dp1000/FreeRTOS/include/../../FreeRTOS/include/../../FreeRTOS/portable/GCC/ARM_CM4F/portmacro.h **** 
 231:/home/houxd/workspaceS32DS.ARM.V20/dp1000/FreeRTOS/include/../../FreeRTOS/include/../../FreeRTOS/portable/GCC/ARM_CM4F/portmacro.h **** 	__asm volatile
 1003              		.loc 2 231 0
 1004              	@ 231 "/home/houxd/workspaceS32DS.ARM.V20/dp1000/FreeRTOS/include/../../FreeRTOS/include/../../Free
 1005 000c EFF31182 			mrs r2, basepri											
 1006 0010 4FF00703 		mov r3, #7												
 1007 0014 83F31188 		msr basepri, r3											
 1008 0018 BFF36F8F 		isb														
 1009 001c BFF34F8F 		dsb														
 1010              	
 1011              	@ 0 "" 2
 1012              		.thumb
 1013 0020 3A61     		str	r2, [r7, #16]
 1014 0022 FB60     		str	r3, [r7, #12]
 232:/home/houxd/workspaceS32DS.ARM.V20/dp1000/FreeRTOS/include/../../FreeRTOS/include/../../FreeRTOS/portable/GCC/ARM_CM4F/portmacro.h **** 	(
 233:/home/houxd/workspaceS32DS.ARM.V20/dp1000/FreeRTOS/include/../../FreeRTOS/include/../../FreeRTOS/portable/GCC/ARM_CM4F/portmacro.h **** 		"	mrs %0, basepri											\n" \
 234:/home/houxd/workspaceS32DS.ARM.V20/dp1000/FreeRTOS/include/../../FreeRTOS/include/../../FreeRTOS/portable/GCC/ARM_CM4F/portmacro.h **** 		"	mov %1, %2												\n"	\
 235:/home/houxd/workspaceS32DS.ARM.V20/dp1000/FreeRTOS/include/../../FreeRTOS/include/../../FreeRTOS/portable/GCC/ARM_CM4F/portmacro.h **** 		"	msr basepri, %1											\n" \
 236:/home/houxd/workspaceS32DS.ARM.V20/dp1000/FreeRTOS/include/../../FreeRTOS/include/../../FreeRTOS/portable/GCC/ARM_CM4F/portmacro.h **** 		"	isb														\n" \
 237:/home/houxd/workspaceS32DS.ARM.V20/dp1000/FreeRTOS/include/../../FreeRTOS/include/../../FreeRTOS/portable/GCC/ARM_CM4F/portmacro.h **** 		"	dsb														\n" \
 238:/home/houxd/workspaceS32DS.ARM.V20/dp1000/FreeRTOS/include/../../FreeRTOS/include/../../FreeRTOS/portable/GCC/ARM_CM4F/portmacro.h **** 		:"=r" (ulOriginalBASEPRI), "=r" (ulNewBASEPRI) : "i" ( configMAX_SYSCALL_INTERRUPT_PRIORITY )
 239:/home/houxd/workspaceS32DS.ARM.V20/dp1000/FreeRTOS/include/../../FreeRTOS/include/../../FreeRTOS/portable/GCC/ARM_CM4F/portmacro.h **** 	);
 240:/home/houxd/workspaceS32DS.ARM.V20/dp1000/FreeRTOS/include/../../FreeRTOS/include/../../FreeRTOS/portable/GCC/ARM_CM4F/portmacro.h **** 
 241:/home/houxd/workspaceS32DS.ARM.V20/dp1000/FreeRTOS/include/../../FreeRTOS/include/../../FreeRTOS/portable/GCC/ARM_CM4F/portmacro.h **** 	/* This return will not be reached but is necessary to prevent compiler
 242:/home/houxd/workspaceS32DS.ARM.V20/dp1000/FreeRTOS/include/../../FreeRTOS/include/../../FreeRTOS/portable/GCC/ARM_CM4F/portmacro.h **** 	warnings. */
 243:/home/houxd/workspaceS32DS.ARM.V20/dp1000/FreeRTOS/include/../../FreeRTOS/include/../../FreeRTOS/portable/GCC/ARM_CM4F/portmacro.h **** 	return ulOriginalBASEPRI;
 1015              		.loc 2 243 0
 1016 0024 3B69     		ldr	r3, [r7, #16]
 1017              	.LBE120:
 1018              	.LBE119:
1102:../FreeRTOS/tasks.c **** 
1103:../FreeRTOS/tasks.c **** 		uxSavedInterruptState = portSET_INTERRUPT_MASK_FROM_ISR();
 1019              		.loc 1 1103 0
 1020 0026 FB61     		str	r3, [r7, #28]
1104:../FreeRTOS/tasks.c **** 		{
1105:../FreeRTOS/tasks.c **** 			/* If null is passed in here then it is the priority of the calling
1106:../FreeRTOS/tasks.c **** 			task that is being queried. */
1107:../FreeRTOS/tasks.c **** 			pxTCB = prvGetTCBFromHandle( xTask );
 1021              		.loc 1 1107 0
 1022 0028 7B68     		ldr	r3, [r7, #4]
 1023 002a 002B     		cmp	r3, #0
 1024 002c 02D1     		bne	.L60
 1025              		.loc 1 1107 0 is_stmt 0 discriminator 1
 1026 002e 094B     		ldr	r3, .L63
 1027 0030 1B68     		ldr	r3, [r3]
 1028 0032 00E0     		b	.L61
 1029              	.L60:
 1030              		.loc 1 1107 0 discriminator 2
 1031 0034 7B68     		ldr	r3, [r7, #4]
 1032              	.L61:
 1033              		.loc 1 1107 0 discriminator 4
 1034 0036 BB61     		str	r3, [r7, #24]
1108:../FreeRTOS/tasks.c **** 			uxReturn = pxTCB->uxPriority;
 1035              		.loc 1 1108 0 is_stmt 1 discriminator 4
 1036 0038 BB69     		ldr	r3, [r7, #24]
 1037 003a DB6A     		ldr	r3, [r3, #44]
 1038 003c 7B61     		str	r3, [r7, #20]
 1039 003e FB69     		ldr	r3, [r7, #28]
 1040 0040 BB60     		str	r3, [r7, #8]
 1041              	.LBB121:
 1042              	.LBB122:
 244:/home/houxd/workspaceS32DS.ARM.V20/dp1000/FreeRTOS/include/../../FreeRTOS/include/../../FreeRTOS/portable/GCC/ARM_CM4F/portmacro.h **** }
 245:/home/houxd/workspaceS32DS.ARM.V20/dp1000/FreeRTOS/include/../../FreeRTOS/include/../../FreeRTOS/portable/GCC/ARM_CM4F/portmacro.h **** /*-----------------------------------------------------------*/
 246:/home/houxd/workspaceS32DS.ARM.V20/dp1000/FreeRTOS/include/../../FreeRTOS/include/../../FreeRTOS/portable/GCC/ARM_CM4F/portmacro.h **** 
 247:/home/houxd/workspaceS32DS.ARM.V20/dp1000/FreeRTOS/include/../../FreeRTOS/include/../../FreeRTOS/portable/GCC/ARM_CM4F/portmacro.h **** portFORCE_INLINE static void vPortSetBASEPRI( uint32_t ulNewMaskValue )
 248:/home/houxd/workspaceS32DS.ARM.V20/dp1000/FreeRTOS/include/../../FreeRTOS/include/../../FreeRTOS/portable/GCC/ARM_CM4F/portmacro.h **** {
 249:/home/houxd/workspaceS32DS.ARM.V20/dp1000/FreeRTOS/include/../../FreeRTOS/include/../../FreeRTOS/portable/GCC/ARM_CM4F/portmacro.h **** 	__asm volatile
 1043              		.loc 2 249 0 discriminator 4
 1044 0042 BB68     		ldr	r3, [r7, #8]
 1045              	@ 249 "/home/houxd/workspaceS32DS.ARM.V20/dp1000/FreeRTOS/include/../../FreeRTOS/include/../../Free
 1046 0044 83F31188 			msr basepri, r3	
 1047              	@ 0 "" 2
 1048              		.thumb
 1049              	.LBE122:
 1050              	.LBE121:
1109:../FreeRTOS/tasks.c **** 		}
1110:../FreeRTOS/tasks.c **** 		portCLEAR_INTERRUPT_MASK_FROM_ISR( uxSavedInterruptState );
1111:../FreeRTOS/tasks.c **** 
1112:../FreeRTOS/tasks.c **** 		return uxReturn;
 1051              		.loc 1 1112 0 discriminator 4
 1052 0048 7B69     		ldr	r3, [r7, #20]
1113:../FreeRTOS/tasks.c **** 	}
 1053              		.loc 1 1113 0 discriminator 4
 1054 004a 1846     		mov	r0, r3
 1055 004c 2037     		adds	r7, r7, #32
 1056              		.cfi_def_cfa_offset 8
 1057 004e BD46     		mov	sp, r7
 1058              		.cfi_def_cfa_register 13
 1059              		@ sp needed
 1060 0050 80BD     		pop	{r7, pc}
 1061              	.L64:
 1062 0052 00BF     		.align	2
 1063              	.L63:
 1064 0054 00000000 		.word	pxCurrentTCB
 1065              		.cfi_endproc
 1066              	.LFE9:
 1068              		.section	.text.vTaskPrioritySet,"ax",%progbits
 1069              		.align	2
 1070              		.global	vTaskPrioritySet
 1071              		.thumb
 1072              		.thumb_func
 1074              	vTaskPrioritySet:
 1075              	.LFB10:
1114:../FreeRTOS/tasks.c **** 
1115:../FreeRTOS/tasks.c **** #endif /* INCLUDE_uxTaskPriorityGet */
1116:../FreeRTOS/tasks.c **** /*-----------------------------------------------------------*/
1117:../FreeRTOS/tasks.c **** 
1118:../FreeRTOS/tasks.c **** #if ( INCLUDE_vTaskPrioritySet == 1 )
1119:../FreeRTOS/tasks.c **** 
1120:../FreeRTOS/tasks.c **** 	void vTaskPrioritySet( TaskHandle_t xTask, UBaseType_t uxNewPriority )
1121:../FreeRTOS/tasks.c **** 	{
 1076              		.loc 1 1121 0
 1077              		.cfi_startproc
 1078              		@ args = 0, pretend = 0, frame = 32
 1079              		@ frame_needed = 1, uses_anonymous_args = 0
 1080 0000 80B5     		push	{r7, lr}
 1081              		.cfi_def_cfa_offset 8
 1082              		.cfi_offset 7, -8
 1083              		.cfi_offset 14, -4
 1084 0002 88B0     		sub	sp, sp, #32
 1085              		.cfi_def_cfa_offset 40
 1086 0004 00AF     		add	r7, sp, #0
 1087              		.cfi_def_cfa_register 7
 1088 0006 7860     		str	r0, [r7, #4]
 1089 0008 3960     		str	r1, [r7]
1122:../FreeRTOS/tasks.c **** 	TCB_t *pxTCB;
1123:../FreeRTOS/tasks.c **** 	UBaseType_t uxCurrentBasePriority, uxPriorityUsedOnEntry;
1124:../FreeRTOS/tasks.c **** 	BaseType_t xYieldRequired = pdFALSE;
 1090              		.loc 1 1124 0
 1091 000a 0023     		movs	r3, #0
 1092 000c FB61     		str	r3, [r7, #28]
1125:../FreeRTOS/tasks.c **** 
1126:../FreeRTOS/tasks.c **** 		configASSERT( ( uxNewPriority < configMAX_PRIORITIES ) );
 1093              		.loc 1 1126 0
 1094 000e 3B68     		ldr	r3, [r7]
 1095 0010 072B     		cmp	r3, #7
 1096 0012 09D9     		bls	.L66
 1097              	.LBB123:
 1098              	.LBB124:
 215:/home/houxd/workspaceS32DS.ARM.V20/dp1000/FreeRTOS/include/../../FreeRTOS/include/../../FreeRTOS/portable/GCC/ARM_CM4F/portmacro.h **** 	(
 1099              		.loc 2 215 0 discriminator 1
 1100              	@ 215 "/home/houxd/workspaceS32DS.ARM.V20/dp1000/FreeRTOS/include/../../FreeRTOS/include/../../Free
 1101 0014 4FF00703 			mov r3, #7												
 1102 0018 83F31188 		msr basepri, r3											
 1103 001c BFF36F8F 		isb														
 1104 0020 BFF34F8F 		dsb														
 1105              	
 1106              	@ 0 "" 2
 1107              		.thumb
 1108 0024 FB60     		str	r3, [r7, #12]
 1109              	.L67:
 1110              	.LBE124:
 1111              	.LBE123:
 1112              		.loc 1 1126 0 discriminator 1
 1113 0026 FEE7     		b	.L67
 1114              	.L66:
1127:../FreeRTOS/tasks.c **** 
1128:../FreeRTOS/tasks.c **** 		/* Ensure the new priority is valid. */
1129:../FreeRTOS/tasks.c **** 		if( uxNewPriority >= ( UBaseType_t ) configMAX_PRIORITIES )
 1115              		.loc 1 1129 0
 1116 0028 3B68     		ldr	r3, [r7]
 1117 002a 072B     		cmp	r3, #7
 1118 002c 01D9     		bls	.L68
1130:../FreeRTOS/tasks.c **** 		{
1131:../FreeRTOS/tasks.c **** 			uxNewPriority = ( UBaseType_t ) configMAX_PRIORITIES - ( UBaseType_t ) 1U;
 1119              		.loc 1 1131 0
 1120 002e 0723     		movs	r3, #7
 1121 0030 3B60     		str	r3, [r7]
 1122              	.L68:
1132:../FreeRTOS/tasks.c **** 		}
1133:../FreeRTOS/tasks.c **** 		else
1134:../FreeRTOS/tasks.c **** 		{
1135:../FreeRTOS/tasks.c **** 			mtCOVERAGE_TEST_MARKER();
1136:../FreeRTOS/tasks.c **** 		}
1137:../FreeRTOS/tasks.c **** 
1138:../FreeRTOS/tasks.c **** 		taskENTER_CRITICAL();
 1123              		.loc 1 1138 0
 1124 0032 FFF7FEFF 		bl	vPortEnterCritical
1139:../FreeRTOS/tasks.c **** 		{
1140:../FreeRTOS/tasks.c **** 			/* If null is passed in here then it is the priority of the calling
1141:../FreeRTOS/tasks.c **** 			task that is being changed. */
1142:../FreeRTOS/tasks.c **** 			pxTCB = prvGetTCBFromHandle( xTask );
 1125              		.loc 1 1142 0
 1126 0036 7B68     		ldr	r3, [r7, #4]
 1127 0038 002B     		cmp	r3, #0
 1128 003a 02D1     		bne	.L69
 1129              		.loc 1 1142 0 is_stmt 0 discriminator 1
 1130 003c 3E4B     		ldr	r3, .L79
 1131 003e 1B68     		ldr	r3, [r3]
 1132 0040 00E0     		b	.L70
 1133              	.L69:
 1134              		.loc 1 1142 0 discriminator 2
 1135 0042 7B68     		ldr	r3, [r7, #4]
 1136              	.L70:
 1137              		.loc 1 1142 0 discriminator 4
 1138 0044 BB61     		str	r3, [r7, #24]
1143:../FreeRTOS/tasks.c **** 
1144:../FreeRTOS/tasks.c **** 			traceTASK_PRIORITY_SET( pxTCB, uxNewPriority );
1145:../FreeRTOS/tasks.c **** 
1146:../FreeRTOS/tasks.c **** 			#if ( configUSE_MUTEXES == 1 )
1147:../FreeRTOS/tasks.c **** 			{
1148:../FreeRTOS/tasks.c **** 				uxCurrentBasePriority = pxTCB->uxBasePriority;
 1139              		.loc 1 1148 0 is_stmt 1 discriminator 4
 1140 0046 BB69     		ldr	r3, [r7, #24]
 1141 0048 9B6D     		ldr	r3, [r3, #88]
 1142 004a 7B61     		str	r3, [r7, #20]
1149:../FreeRTOS/tasks.c **** 			}
1150:../FreeRTOS/tasks.c **** 			#else
1151:../FreeRTOS/tasks.c **** 			{
1152:../FreeRTOS/tasks.c **** 				uxCurrentBasePriority = pxTCB->uxPriority;
1153:../FreeRTOS/tasks.c **** 			}
1154:../FreeRTOS/tasks.c **** 			#endif
1155:../FreeRTOS/tasks.c **** 
1156:../FreeRTOS/tasks.c **** 			if( uxCurrentBasePriority != uxNewPriority )
 1143              		.loc 1 1156 0 discriminator 4
 1144 004c 7A69     		ldr	r2, [r7, #20]
 1145 004e 3B68     		ldr	r3, [r7]
 1146 0050 9A42     		cmp	r2, r3
 1147 0052 6BD0     		beq	.L71
1157:../FreeRTOS/tasks.c **** 			{
1158:../FreeRTOS/tasks.c **** 				/* The priority change may have readied a task of higher
1159:../FreeRTOS/tasks.c **** 				priority than the calling task. */
1160:../FreeRTOS/tasks.c **** 				if( uxNewPriority > uxCurrentBasePriority )
 1148              		.loc 1 1160 0
 1149 0054 3A68     		ldr	r2, [r7]
 1150 0056 7B69     		ldr	r3, [r7, #20]
 1151 0058 9A42     		cmp	r2, r3
 1152 005a 0DD9     		bls	.L72
1161:../FreeRTOS/tasks.c **** 				{
1162:../FreeRTOS/tasks.c **** 					if( pxTCB != pxCurrentTCB )
 1153              		.loc 1 1162 0
 1154 005c 364B     		ldr	r3, .L79
 1155 005e 1B68     		ldr	r3, [r3]
 1156 0060 BA69     		ldr	r2, [r7, #24]
 1157 0062 9A42     		cmp	r2, r3
 1158 0064 0FD0     		beq	.L73
1163:../FreeRTOS/tasks.c **** 					{
1164:../FreeRTOS/tasks.c **** 						/* The priority of a task other than the currently
1165:../FreeRTOS/tasks.c **** 						running task is being raised.  Is the priority being
1166:../FreeRTOS/tasks.c **** 						raised above that of the running task? */
1167:../FreeRTOS/tasks.c **** 						if( uxNewPriority >= pxCurrentTCB->uxPriority )
 1159              		.loc 1 1167 0
 1160 0066 344B     		ldr	r3, .L79
 1161 0068 1B68     		ldr	r3, [r3]
 1162 006a DA6A     		ldr	r2, [r3, #44]
 1163 006c 3B68     		ldr	r3, [r7]
 1164 006e 9A42     		cmp	r2, r3
 1165 0070 09D8     		bhi	.L73
1168:../FreeRTOS/tasks.c **** 						{
1169:../FreeRTOS/tasks.c **** 							xYieldRequired = pdTRUE;
 1166              		.loc 1 1169 0
 1167 0072 0123     		movs	r3, #1
 1168 0074 FB61     		str	r3, [r7, #28]
 1169 0076 06E0     		b	.L73
 1170              	.L72:
1170:../FreeRTOS/tasks.c **** 						}
1171:../FreeRTOS/tasks.c **** 						else
1172:../FreeRTOS/tasks.c **** 						{
1173:../FreeRTOS/tasks.c **** 							mtCOVERAGE_TEST_MARKER();
1174:../FreeRTOS/tasks.c **** 						}
1175:../FreeRTOS/tasks.c **** 					}
1176:../FreeRTOS/tasks.c **** 					else
1177:../FreeRTOS/tasks.c **** 					{
1178:../FreeRTOS/tasks.c **** 						/* The priority of the running task is being raised,
1179:../FreeRTOS/tasks.c **** 						but the running task must already be the highest
1180:../FreeRTOS/tasks.c **** 						priority task able to run so no yield is required. */
1181:../FreeRTOS/tasks.c **** 					}
1182:../FreeRTOS/tasks.c **** 				}
1183:../FreeRTOS/tasks.c **** 				else if( pxTCB == pxCurrentTCB )
 1171              		.loc 1 1183 0
 1172 0078 2F4B     		ldr	r3, .L79
 1173 007a 1B68     		ldr	r3, [r3]
 1174 007c BA69     		ldr	r2, [r7, #24]
 1175 007e 9A42     		cmp	r2, r3
 1176 0080 01D1     		bne	.L73
1184:../FreeRTOS/tasks.c **** 				{
1185:../FreeRTOS/tasks.c **** 					/* Setting the priority of the running task down means
1186:../FreeRTOS/tasks.c **** 					there may now be another task of higher priority that
1187:../FreeRTOS/tasks.c **** 					is ready to execute. */
1188:../FreeRTOS/tasks.c **** 					xYieldRequired = pdTRUE;
 1177              		.loc 1 1188 0
 1178 0082 0123     		movs	r3, #1
 1179 0084 FB61     		str	r3, [r7, #28]
 1180              	.L73:
1189:../FreeRTOS/tasks.c **** 				}
1190:../FreeRTOS/tasks.c **** 				else
1191:../FreeRTOS/tasks.c **** 				{
1192:../FreeRTOS/tasks.c **** 					/* Setting the priority of any other task down does not
1193:../FreeRTOS/tasks.c **** 					require a yield as the running task must be above the
1194:../FreeRTOS/tasks.c **** 					new priority of the task being modified. */
1195:../FreeRTOS/tasks.c **** 				}
1196:../FreeRTOS/tasks.c **** 
1197:../FreeRTOS/tasks.c **** 				/* Remember the ready list the task might be referenced from
1198:../FreeRTOS/tasks.c **** 				before its uxPriority member is changed so the
1199:../FreeRTOS/tasks.c **** 				taskRESET_READY_PRIORITY() macro can function correctly. */
1200:../FreeRTOS/tasks.c **** 				uxPriorityUsedOnEntry = pxTCB->uxPriority;
 1181              		.loc 1 1200 0
 1182 0086 BB69     		ldr	r3, [r7, #24]
 1183 0088 DB6A     		ldr	r3, [r3, #44]
 1184 008a 3B61     		str	r3, [r7, #16]
1201:../FreeRTOS/tasks.c **** 
1202:../FreeRTOS/tasks.c **** 				#if ( configUSE_MUTEXES == 1 )
1203:../FreeRTOS/tasks.c **** 				{
1204:../FreeRTOS/tasks.c **** 					/* Only change the priority being used if the task is not
1205:../FreeRTOS/tasks.c **** 					currently using an inherited priority. */
1206:../FreeRTOS/tasks.c **** 					if( pxTCB->uxBasePriority == pxTCB->uxPriority )
 1185              		.loc 1 1206 0
 1186 008c BB69     		ldr	r3, [r7, #24]
 1187 008e 9A6D     		ldr	r2, [r3, #88]
 1188 0090 BB69     		ldr	r3, [r7, #24]
 1189 0092 DB6A     		ldr	r3, [r3, #44]
 1190 0094 9A42     		cmp	r2, r3
 1191 0096 02D1     		bne	.L74
1207:../FreeRTOS/tasks.c **** 					{
1208:../FreeRTOS/tasks.c **** 						pxTCB->uxPriority = uxNewPriority;
 1192              		.loc 1 1208 0
 1193 0098 BB69     		ldr	r3, [r7, #24]
 1194 009a 3A68     		ldr	r2, [r7]
 1195 009c DA62     		str	r2, [r3, #44]
 1196              	.L74:
1209:../FreeRTOS/tasks.c **** 					}
1210:../FreeRTOS/tasks.c **** 					else
1211:../FreeRTOS/tasks.c **** 					{
1212:../FreeRTOS/tasks.c **** 						mtCOVERAGE_TEST_MARKER();
1213:../FreeRTOS/tasks.c **** 					}
1214:../FreeRTOS/tasks.c **** 
1215:../FreeRTOS/tasks.c **** 					/* The base priority gets set whatever. */
1216:../FreeRTOS/tasks.c **** 					pxTCB->uxBasePriority = uxNewPriority;
 1197              		.loc 1 1216 0
 1198 009e BB69     		ldr	r3, [r7, #24]
 1199 00a0 3A68     		ldr	r2, [r7]
 1200 00a2 9A65     		str	r2, [r3, #88]
1217:../FreeRTOS/tasks.c **** 				}
1218:../FreeRTOS/tasks.c **** 				#else
1219:../FreeRTOS/tasks.c **** 				{
1220:../FreeRTOS/tasks.c **** 					pxTCB->uxPriority = uxNewPriority;
1221:../FreeRTOS/tasks.c **** 				}
1222:../FreeRTOS/tasks.c **** 				#endif
1223:../FreeRTOS/tasks.c **** 
1224:../FreeRTOS/tasks.c **** 				/* Only reset the event list item value if the value is not
1225:../FreeRTOS/tasks.c **** 				being used for anything else. */
1226:../FreeRTOS/tasks.c **** 				if( ( listGET_LIST_ITEM_VALUE( &( pxTCB->xEventListItem ) ) & taskEVENT_LIST_ITEM_VALUE_IN_USE 
 1201              		.loc 1 1226 0
 1202 00a4 BB69     		ldr	r3, [r7, #24]
 1203 00a6 9B69     		ldr	r3, [r3, #24]
 1204 00a8 002B     		cmp	r3, #0
 1205 00aa 04DB     		blt	.L75
1227:../FreeRTOS/tasks.c **** 				{
1228:../FreeRTOS/tasks.c **** 					listSET_LIST_ITEM_VALUE( &( pxTCB->xEventListItem ), ( ( TickType_t ) configMAX_PRIORITIES - (
 1206              		.loc 1 1228 0
 1207 00ac 3B68     		ldr	r3, [r7]
 1208 00ae C3F10802 		rsb	r2, r3, #8
 1209 00b2 BB69     		ldr	r3, [r7, #24]
 1210 00b4 9A61     		str	r2, [r3, #24]
 1211              	.L75:
1229:../FreeRTOS/tasks.c **** 				}
1230:../FreeRTOS/tasks.c **** 				else
1231:../FreeRTOS/tasks.c **** 				{
1232:../FreeRTOS/tasks.c **** 					mtCOVERAGE_TEST_MARKER();
1233:../FreeRTOS/tasks.c **** 				}
1234:../FreeRTOS/tasks.c **** 
1235:../FreeRTOS/tasks.c **** 				/* If the task is in the blocked or suspended list we need do
1236:../FreeRTOS/tasks.c **** 				nothing more than change it's priority variable. However, if
1237:../FreeRTOS/tasks.c **** 				the task is in a ready list it needs to be removed and placed
1238:../FreeRTOS/tasks.c **** 				in the list appropriate to its new priority. */
1239:../FreeRTOS/tasks.c **** 				if( listIS_CONTAINED_WITHIN( &( pxReadyTasksLists[ uxPriorityUsedOnEntry ] ), &( pxTCB->xGeneri
 1212              		.loc 1 1239 0
 1213 00b6 BB69     		ldr	r3, [r7, #24]
 1214 00b8 5969     		ldr	r1, [r3, #20]
 1215 00ba 3A69     		ldr	r2, [r7, #16]
 1216 00bc 1346     		mov	r3, r2
 1217 00be 9B00     		lsls	r3, r3, #2
 1218 00c0 1344     		add	r3, r3, r2
 1219 00c2 9B00     		lsls	r3, r3, #2
 1220 00c4 1D4A     		ldr	r2, .L79+4
 1221 00c6 1344     		add	r3, r3, r2
 1222 00c8 9942     		cmp	r1, r3
 1223 00ca 01D1     		bne	.L76
 1224              		.loc 1 1239 0 is_stmt 0 discriminator 1
 1225 00cc 0123     		movs	r3, #1
 1226 00ce 00E0     		b	.L77
 1227              	.L76:
 1228              		.loc 1 1239 0 discriminator 2
 1229 00d0 0023     		movs	r3, #0
 1230              	.L77:
 1231              		.loc 1 1239 0 discriminator 4
 1232 00d2 002B     		cmp	r3, #0
 1233 00d4 2AD0     		beq	.L71
1240:../FreeRTOS/tasks.c **** 				{
1241:../FreeRTOS/tasks.c **** 					/* The task is currently in its ready list - remove before adding
1242:../FreeRTOS/tasks.c **** 					it to it's new ready list.  As we are in a critical section we
1243:../FreeRTOS/tasks.c **** 					can do this even if the scheduler is suspended. */
1244:../FreeRTOS/tasks.c **** 					if( uxListRemove( &( pxTCB->xGenericListItem ) ) == ( UBaseType_t ) 0 )
 1234              		.loc 1 1244 0 is_stmt 1
 1235 00d6 BB69     		ldr	r3, [r7, #24]
 1236 00d8 0433     		adds	r3, r3, #4
 1237 00da 1846     		mov	r0, r3
 1238 00dc FFF7FEFF 		bl	uxListRemove
 1239 00e0 0346     		mov	r3, r0
 1240 00e2 002B     		cmp	r3, #0
 1241 00e4 09D1     		bne	.L78
1245:../FreeRTOS/tasks.c **** 					{
1246:../FreeRTOS/tasks.c **** 						/* It is known that the task is in its ready list so
1247:../FreeRTOS/tasks.c **** 						there is no need to check again and the port level
1248:../FreeRTOS/tasks.c **** 						reset macro can be called directly. */
1249:../FreeRTOS/tasks.c **** 						portRESET_READY_PRIORITY( uxPriorityUsedOnEntry, uxTopReadyPriority );
 1242              		.loc 1 1249 0
 1243 00e6 3B69     		ldr	r3, [r7, #16]
 1244 00e8 0122     		movs	r2, #1
 1245 00ea 02FA03F3 		lsl	r3, r2, r3
 1246 00ee DA43     		mvns	r2, r3
 1247 00f0 134B     		ldr	r3, .L79+8
 1248 00f2 1B68     		ldr	r3, [r3]
 1249 00f4 1340     		ands	r3, r3, r2
 1250 00f6 124A     		ldr	r2, .L79+8
 1251 00f8 1360     		str	r3, [r2]
 1252              	.L78:
1250:../FreeRTOS/tasks.c **** 					}
1251:../FreeRTOS/tasks.c **** 					else
1252:../FreeRTOS/tasks.c **** 					{
1253:../FreeRTOS/tasks.c **** 						mtCOVERAGE_TEST_MARKER();
1254:../FreeRTOS/tasks.c **** 					}
1255:../FreeRTOS/tasks.c **** 					prvAddTaskToReadyList( pxTCB );
 1253              		.loc 1 1255 0
 1254 00fa BB69     		ldr	r3, [r7, #24]
 1255 00fc DB6A     		ldr	r3, [r3, #44]
 1256 00fe 1A46     		mov	r2, r3
 1257 0100 0123     		movs	r3, #1
 1258 0102 03FA02F2 		lsl	r2, r3, r2
 1259 0106 0E4B     		ldr	r3, .L79+8
 1260 0108 1B68     		ldr	r3, [r3]
 1261 010a 1343     		orrs	r3, r3, r2
 1262 010c 0C4A     		ldr	r2, .L79+8
 1263 010e 1360     		str	r3, [r2]
 1264 0110 BB69     		ldr	r3, [r7, #24]
 1265 0112 DA6A     		ldr	r2, [r3, #44]
 1266 0114 1346     		mov	r3, r2
 1267 0116 9B00     		lsls	r3, r3, #2
 1268 0118 1344     		add	r3, r3, r2
 1269 011a 9B00     		lsls	r3, r3, #2
 1270 011c 074A     		ldr	r2, .L79+4
 1271 011e 1A44     		add	r2, r2, r3
 1272 0120 BB69     		ldr	r3, [r7, #24]
 1273 0122 0433     		adds	r3, r3, #4
 1274 0124 1046     		mov	r0, r2
 1275 0126 1946     		mov	r1, r3
 1276 0128 FFF7FEFF 		bl	vListInsertEnd
 1277              	.L71:
1256:../FreeRTOS/tasks.c **** 				}
1257:../FreeRTOS/tasks.c **** 				else
1258:../FreeRTOS/tasks.c **** 				{
1259:../FreeRTOS/tasks.c **** 					mtCOVERAGE_TEST_MARKER();
1260:../FreeRTOS/tasks.c **** 				}
1261:../FreeRTOS/tasks.c **** 
1262:../FreeRTOS/tasks.c **** 				if( xYieldRequired == pdTRUE )
1263:../FreeRTOS/tasks.c **** 				{
1264:../FreeRTOS/tasks.c **** 					taskYIELD_IF_USING_PREEMPTION();
1265:../FreeRTOS/tasks.c **** 				}
1266:../FreeRTOS/tasks.c **** 				else
1267:../FreeRTOS/tasks.c **** 				{
1268:../FreeRTOS/tasks.c **** 					mtCOVERAGE_TEST_MARKER();
1269:../FreeRTOS/tasks.c **** 				}
1270:../FreeRTOS/tasks.c **** 
1271:../FreeRTOS/tasks.c **** 				/* Remove compiler warning about unused variables when the port
1272:../FreeRTOS/tasks.c **** 				optimised task selection is not being used. */
1273:../FreeRTOS/tasks.c **** 				( void ) uxPriorityUsedOnEntry;
1274:../FreeRTOS/tasks.c **** 			}
1275:../FreeRTOS/tasks.c **** 		}
1276:../FreeRTOS/tasks.c **** 		taskEXIT_CRITICAL();
 1278              		.loc 1 1276 0
 1279 012c FFF7FEFF 		bl	vPortExitCritical
1277:../FreeRTOS/tasks.c **** 	}
 1280              		.loc 1 1277 0
 1281 0130 2037     		adds	r7, r7, #32
 1282              		.cfi_def_cfa_offset 8
 1283 0132 BD46     		mov	sp, r7
 1284              		.cfi_def_cfa_register 13
 1285              		@ sp needed
 1286 0134 80BD     		pop	{r7, pc}
 1287              	.L80:
 1288 0136 00BF     		.align	2
 1289              	.L79:
 1290 0138 00000000 		.word	pxCurrentTCB
 1291 013c 00000000 		.word	pxReadyTasksLists
 1292 0140 00000000 		.word	uxTopReadyPriority
 1293              		.cfi_endproc
 1294              	.LFE10:
 1296              		.section	.text.vTaskSuspend,"ax",%progbits
 1297              		.align	2
 1298              		.global	vTaskSuspend
 1299              		.thumb
 1300              		.thumb_func
 1302              	vTaskSuspend:
 1303              	.LFB11:
1278:../FreeRTOS/tasks.c **** 
1279:../FreeRTOS/tasks.c **** #endif /* INCLUDE_vTaskPrioritySet */
1280:../FreeRTOS/tasks.c **** /*-----------------------------------------------------------*/
1281:../FreeRTOS/tasks.c **** 
1282:../FreeRTOS/tasks.c **** #if ( INCLUDE_vTaskSuspend == 1 )
1283:../FreeRTOS/tasks.c **** 
1284:../FreeRTOS/tasks.c **** 	void vTaskSuspend( TaskHandle_t xTaskToSuspend )
1285:../FreeRTOS/tasks.c **** 	{
 1304              		.loc 1 1285 0
 1305              		.cfi_startproc
 1306              		@ args = 0, pretend = 0, frame = 16
 1307              		@ frame_needed = 1, uses_anonymous_args = 0
 1308 0000 80B5     		push	{r7, lr}
 1309              		.cfi_def_cfa_offset 8
 1310              		.cfi_offset 7, -8
 1311              		.cfi_offset 14, -4
 1312 0002 84B0     		sub	sp, sp, #16
 1313              		.cfi_def_cfa_offset 24
 1314 0004 00AF     		add	r7, sp, #0
 1315              		.cfi_def_cfa_register 7
 1316 0006 7860     		str	r0, [r7, #4]
1286:../FreeRTOS/tasks.c **** 	TCB_t *pxTCB;
1287:../FreeRTOS/tasks.c **** 
1288:../FreeRTOS/tasks.c **** 		taskENTER_CRITICAL();
 1317              		.loc 1 1288 0
 1318 0008 FFF7FEFF 		bl	vPortEnterCritical
1289:../FreeRTOS/tasks.c **** 		{
1290:../FreeRTOS/tasks.c **** 			/* If null is passed in here then it is the running task that is
1291:../FreeRTOS/tasks.c **** 			being suspended. */
1292:../FreeRTOS/tasks.c **** 			pxTCB = prvGetTCBFromHandle( xTaskToSuspend );
 1319              		.loc 1 1292 0
 1320 000c 7B68     		ldr	r3, [r7, #4]
 1321 000e 002B     		cmp	r3, #0
 1322 0010 02D1     		bne	.L82
 1323              		.loc 1 1292 0 is_stmt 0 discriminator 1
 1324 0012 374B     		ldr	r3, .L94
 1325 0014 1B68     		ldr	r3, [r3]
 1326 0016 00E0     		b	.L83
 1327              	.L82:
 1328              		.loc 1 1292 0 discriminator 2
 1329 0018 7B68     		ldr	r3, [r7, #4]
 1330              	.L83:
 1331              		.loc 1 1292 0 discriminator 4
 1332 001a FB60     		str	r3, [r7, #12]
1293:../FreeRTOS/tasks.c **** 
1294:../FreeRTOS/tasks.c **** 			traceTASK_SUSPEND( pxTCB );
1295:../FreeRTOS/tasks.c **** 
1296:../FreeRTOS/tasks.c **** 			/* Remove task from the ready/delayed list and place in the
1297:../FreeRTOS/tasks.c **** 			suspended list. */
1298:../FreeRTOS/tasks.c **** 			if( uxListRemove( &( pxTCB->xGenericListItem ) ) == ( UBaseType_t ) 0 )
 1333              		.loc 1 1298 0 is_stmt 1 discriminator 4
 1334 001c FB68     		ldr	r3, [r7, #12]
 1335 001e 0433     		adds	r3, r3, #4
 1336 0020 1846     		mov	r0, r3
 1337 0022 FFF7FEFF 		bl	uxListRemove
 1338 0026 0346     		mov	r3, r0
 1339 0028 002B     		cmp	r3, #0
 1340 002a 15D1     		bne	.L84
1299:../FreeRTOS/tasks.c **** 			{
1300:../FreeRTOS/tasks.c **** 				taskRESET_READY_PRIORITY( pxTCB->uxPriority );
 1341              		.loc 1 1300 0
 1342 002c FB68     		ldr	r3, [r7, #12]
 1343 002e DA6A     		ldr	r2, [r3, #44]
 1344 0030 3049     		ldr	r1, .L94+4
 1345 0032 1346     		mov	r3, r2
 1346 0034 9B00     		lsls	r3, r3, #2
 1347 0036 1344     		add	r3, r3, r2
 1348 0038 9B00     		lsls	r3, r3, #2
 1349 003a 0B44     		add	r3, r3, r1
 1350 003c 1B68     		ldr	r3, [r3]
 1351 003e 002B     		cmp	r3, #0
 1352 0040 0AD1     		bne	.L84
 1353              		.loc 1 1300 0 is_stmt 0 discriminator 1
 1354 0042 FB68     		ldr	r3, [r7, #12]
 1355 0044 DB6A     		ldr	r3, [r3, #44]
 1356 0046 1A46     		mov	r2, r3
 1357 0048 0123     		movs	r3, #1
 1358 004a 9340     		lsls	r3, r3, r2
 1359 004c DA43     		mvns	r2, r3
 1360 004e 2A4B     		ldr	r3, .L94+8
 1361 0050 1B68     		ldr	r3, [r3]
 1362 0052 1340     		ands	r3, r3, r2
 1363 0054 284A     		ldr	r2, .L94+8
 1364 0056 1360     		str	r3, [r2]
 1365              	.L84:
1301:../FreeRTOS/tasks.c **** 			}
1302:../FreeRTOS/tasks.c **** 			else
1303:../FreeRTOS/tasks.c **** 			{
1304:../FreeRTOS/tasks.c **** 				mtCOVERAGE_TEST_MARKER();
1305:../FreeRTOS/tasks.c **** 			}
1306:../FreeRTOS/tasks.c **** 
1307:../FreeRTOS/tasks.c **** 			/* Is the task waiting on an event also? */
1308:../FreeRTOS/tasks.c **** 			if( listLIST_ITEM_CONTAINER( &( pxTCB->xEventListItem ) ) != NULL )
 1366              		.loc 1 1308 0 is_stmt 1
 1367 0058 FB68     		ldr	r3, [r7, #12]
 1368 005a 9B6A     		ldr	r3, [r3, #40]
 1369 005c 002B     		cmp	r3, #0
 1370 005e 04D0     		beq	.L86
1309:../FreeRTOS/tasks.c **** 			{
1310:../FreeRTOS/tasks.c **** 				( void ) uxListRemove( &( pxTCB->xEventListItem ) );
 1371              		.loc 1 1310 0
 1372 0060 FB68     		ldr	r3, [r7, #12]
 1373 0062 1833     		adds	r3, r3, #24
 1374 0064 1846     		mov	r0, r3
 1375 0066 FFF7FEFF 		bl	uxListRemove
 1376              	.L86:
1311:../FreeRTOS/tasks.c **** 			}
1312:../FreeRTOS/tasks.c **** 			else
1313:../FreeRTOS/tasks.c **** 			{
1314:../FreeRTOS/tasks.c **** 				mtCOVERAGE_TEST_MARKER();
1315:../FreeRTOS/tasks.c **** 			}
1316:../FreeRTOS/tasks.c **** 
1317:../FreeRTOS/tasks.c **** 			vListInsertEnd( &xSuspendedTaskList, &( pxTCB->xGenericListItem ) );
 1377              		.loc 1 1317 0
 1378 006a FB68     		ldr	r3, [r7, #12]
 1379 006c 0433     		adds	r3, r3, #4
 1380 006e 2348     		ldr	r0, .L94+12
 1381 0070 1946     		mov	r1, r3
 1382 0072 FFF7FEFF 		bl	vListInsertEnd
1318:../FreeRTOS/tasks.c **** 		}
1319:../FreeRTOS/tasks.c **** 		taskEXIT_CRITICAL();
 1383              		.loc 1 1319 0
 1384 0076 FFF7FEFF 		bl	vPortExitCritical
1320:../FreeRTOS/tasks.c **** 
1321:../FreeRTOS/tasks.c **** 		if( pxTCB == pxCurrentTCB )
 1385              		.loc 1 1321 0
 1386 007a 1D4B     		ldr	r3, .L94
 1387 007c 1B68     		ldr	r3, [r3]
 1388 007e FA68     		ldr	r2, [r7, #12]
 1389 0080 9A42     		cmp	r2, r3
 1390 0082 27D1     		bne	.L87
1322:../FreeRTOS/tasks.c **** 		{
1323:../FreeRTOS/tasks.c **** 			if( xSchedulerRunning != pdFALSE )
 1391              		.loc 1 1323 0
 1392 0084 1E4B     		ldr	r3, .L94+16
 1393 0086 1B68     		ldr	r3, [r3]
 1394 0088 002B     		cmp	r3, #0
 1395 008a 16D0     		beq	.L88
1324:../FreeRTOS/tasks.c **** 			{
1325:../FreeRTOS/tasks.c **** 				/* The current task has just been suspended. */
1326:../FreeRTOS/tasks.c **** 				configASSERT( uxSchedulerSuspended == 0 );
 1396              		.loc 1 1326 0
 1397 008c 1D4B     		ldr	r3, .L94+20
 1398 008e 1B68     		ldr	r3, [r3]
 1399 0090 002B     		cmp	r3, #0
 1400 0092 09D0     		beq	.L89
 1401              	.LBB125:
 1402              	.LBB126:
 215:/home/houxd/workspaceS32DS.ARM.V20/dp1000/FreeRTOS/include/../../FreeRTOS/include/../../FreeRTOS/portable/GCC/ARM_CM4F/portmacro.h **** 	(
 1403              		.loc 2 215 0 discriminator 1
 1404              	@ 215 "/home/houxd/workspaceS32DS.ARM.V20/dp1000/FreeRTOS/include/../../FreeRTOS/include/../../Free
 1405 0094 4FF00703 			mov r3, #7												
 1406 0098 83F31188 		msr basepri, r3											
 1407 009c BFF36F8F 		isb														
 1408 00a0 BFF34F8F 		dsb														
 1409              	
 1410              	@ 0 "" 2
 1411              		.thumb
 1412 00a4 BB60     		str	r3, [r7, #8]
 1413              	.L90:
 1414              	.LBE126:
 1415              	.LBE125:
 1416              		.loc 1 1326 0 discriminator 1
 1417 00a6 FEE7     		b	.L90
 1418              	.L89:
1327:../FreeRTOS/tasks.c **** 				portYIELD_WITHIN_API();
 1419              		.loc 1 1327 0
 1420 00a8 174B     		ldr	r3, .L94+24
 1421 00aa 4FF08052 		mov	r2, #268435456
 1422 00ae 1A60     		str	r2, [r3]
 1423              	@ 1327 "../FreeRTOS/tasks.c" 1
 1424 00b0 BFF34F8F 		dsb
 1425              	@ 0 "" 2
 1426              	@ 1327 "../FreeRTOS/tasks.c" 1
 1427 00b4 BFF36F8F 		isb
 1428              	@ 0 "" 2
 1429              		.thumb
 1430 00b8 16E0     		b	.L81
 1431              	.L88:
1328:../FreeRTOS/tasks.c **** 			}
1329:../FreeRTOS/tasks.c **** 			else
1330:../FreeRTOS/tasks.c **** 			{
1331:../FreeRTOS/tasks.c **** 				/* The scheduler is not running, but the task that was pointed
1332:../FreeRTOS/tasks.c **** 				to by pxCurrentTCB has just been suspended and pxCurrentTCB
1333:../FreeRTOS/tasks.c **** 				must be adjusted to point to a different task. */
1334:../FreeRTOS/tasks.c **** 				if( listCURRENT_LIST_LENGTH( &xSuspendedTaskList ) == uxCurrentNumberOfTasks )
 1432              		.loc 1 1334 0
 1433 00ba 104B     		ldr	r3, .L94+12
 1434 00bc 1A68     		ldr	r2, [r3]
 1435 00be 134B     		ldr	r3, .L94+28
 1436 00c0 1B68     		ldr	r3, [r3]
 1437 00c2 9A42     		cmp	r2, r3
 1438 00c4 03D1     		bne	.L92
1335:../FreeRTOS/tasks.c **** 				{
1336:../FreeRTOS/tasks.c **** 					/* No other tasks are ready, so set pxCurrentTCB back to
1337:../FreeRTOS/tasks.c **** 					NULL so when the next task is created pxCurrentTCB will
1338:../FreeRTOS/tasks.c **** 					be set to point to it no matter what its relative priority
1339:../FreeRTOS/tasks.c **** 					is. */
1340:../FreeRTOS/tasks.c **** 					pxCurrentTCB = NULL;
 1439              		.loc 1 1340 0
 1440 00c6 0A4B     		ldr	r3, .L94
 1441 00c8 0022     		movs	r2, #0
 1442 00ca 1A60     		str	r2, [r3]
 1443 00cc 0CE0     		b	.L81
 1444              	.L92:
1341:../FreeRTOS/tasks.c **** 				}
1342:../FreeRTOS/tasks.c **** 				else
1343:../FreeRTOS/tasks.c **** 				{
1344:../FreeRTOS/tasks.c **** 					vTaskSwitchContext();
 1445              		.loc 1 1344 0
 1446 00ce FFF7FEFF 		bl	vTaskSwitchContext
 1447 00d2 09E0     		b	.L81
 1448              	.L87:
1345:../FreeRTOS/tasks.c **** 				}
1346:../FreeRTOS/tasks.c **** 			}
1347:../FreeRTOS/tasks.c **** 		}
1348:../FreeRTOS/tasks.c **** 		else
1349:../FreeRTOS/tasks.c **** 		{
1350:../FreeRTOS/tasks.c **** 			if( xSchedulerRunning != pdFALSE )
 1449              		.loc 1 1350 0
 1450 00d4 0A4B     		ldr	r3, .L94+16
 1451 00d6 1B68     		ldr	r3, [r3]
 1452 00d8 002B     		cmp	r3, #0
 1453 00da 05D0     		beq	.L81
1351:../FreeRTOS/tasks.c **** 			{
1352:../FreeRTOS/tasks.c **** 				/* A task other than the currently running task was suspended,
1353:../FreeRTOS/tasks.c **** 				reset the next expected unblock time in case it referred to the
1354:../FreeRTOS/tasks.c **** 				task that is now in the Suspended state. */
1355:../FreeRTOS/tasks.c **** 				taskENTER_CRITICAL();
 1454              		.loc 1 1355 0
 1455 00dc FFF7FEFF 		bl	vPortEnterCritical
1356:../FreeRTOS/tasks.c **** 				{
1357:../FreeRTOS/tasks.c **** 					prvResetNextTaskUnblockTime();
 1456              		.loc 1 1357 0
 1457 00e0 FFF7FEFF 		bl	prvResetNextTaskUnblockTime
1358:../FreeRTOS/tasks.c **** 				}
1359:../FreeRTOS/tasks.c **** 				taskEXIT_CRITICAL();
 1458              		.loc 1 1359 0
 1459 00e4 FFF7FEFF 		bl	vPortExitCritical
 1460              	.L81:
1360:../FreeRTOS/tasks.c **** 			}
1361:../FreeRTOS/tasks.c **** 			else
1362:../FreeRTOS/tasks.c **** 			{
1363:../FreeRTOS/tasks.c **** 				mtCOVERAGE_TEST_MARKER();
1364:../FreeRTOS/tasks.c **** 			}
1365:../FreeRTOS/tasks.c **** 		}
1366:../FreeRTOS/tasks.c **** 	}
 1461              		.loc 1 1366 0
 1462 00e8 1037     		adds	r7, r7, #16
 1463              		.cfi_def_cfa_offset 8
 1464 00ea BD46     		mov	sp, r7
 1465              		.cfi_def_cfa_register 13
 1466              		@ sp needed
 1467 00ec 80BD     		pop	{r7, pc}
 1468              	.L95:
 1469 00ee 00BF     		.align	2
 1470              	.L94:
 1471 00f0 00000000 		.word	pxCurrentTCB
 1472 00f4 00000000 		.word	pxReadyTasksLists
 1473 00f8 00000000 		.word	uxTopReadyPriority
 1474 00fc 00000000 		.word	xSuspendedTaskList
 1475 0100 00000000 		.word	xSchedulerRunning
 1476 0104 00000000 		.word	uxSchedulerSuspended
 1477 0108 04ED00E0 		.word	-536810236
 1478 010c 00000000 		.word	uxCurrentNumberOfTasks
 1479              		.cfi_endproc
 1480              	.LFE11:
 1482              		.section	.text.prvTaskIsTaskSuspended,"ax",%progbits
 1483              		.align	2
 1484              		.thumb
 1485              		.thumb_func
 1487              	prvTaskIsTaskSuspended:
 1488              	.LFB12:
1367:../FreeRTOS/tasks.c **** 
1368:../FreeRTOS/tasks.c **** #endif /* INCLUDE_vTaskSuspend */
1369:../FreeRTOS/tasks.c **** /*-----------------------------------------------------------*/
1370:../FreeRTOS/tasks.c **** 
1371:../FreeRTOS/tasks.c **** #if ( INCLUDE_vTaskSuspend == 1 )
1372:../FreeRTOS/tasks.c **** 
1373:../FreeRTOS/tasks.c **** 	static BaseType_t prvTaskIsTaskSuspended( const TaskHandle_t xTask )
1374:../FreeRTOS/tasks.c **** 	{
 1489              		.loc 1 1374 0
 1490              		.cfi_startproc
 1491              		@ args = 0, pretend = 0, frame = 24
 1492              		@ frame_needed = 1, uses_anonymous_args = 0
 1493              		@ link register save eliminated.
 1494 0000 80B4     		push	{r7}
 1495              		.cfi_def_cfa_offset 4
 1496              		.cfi_offset 7, -4
 1497 0002 87B0     		sub	sp, sp, #28
 1498              		.cfi_def_cfa_offset 32
 1499 0004 00AF     		add	r7, sp, #0
 1500              		.cfi_def_cfa_register 7
 1501 0006 7860     		str	r0, [r7, #4]
1375:../FreeRTOS/tasks.c **** 	BaseType_t xReturn = pdFALSE;
 1502              		.loc 1 1375 0
 1503 0008 0023     		movs	r3, #0
 1504 000a 7B61     		str	r3, [r7, #20]
1376:../FreeRTOS/tasks.c **** 	const TCB_t * const pxTCB = ( TCB_t * ) xTask;
 1505              		.loc 1 1376 0
 1506 000c 7B68     		ldr	r3, [r7, #4]
 1507 000e 3B61     		str	r3, [r7, #16]
1377:../FreeRTOS/tasks.c **** 
1378:../FreeRTOS/tasks.c **** 		/* Accesses xPendingReadyList so must be called from a critical
1379:../FreeRTOS/tasks.c **** 		section. */
1380:../FreeRTOS/tasks.c **** 
1381:../FreeRTOS/tasks.c **** 		/* It does not make sense to check if the calling task is suspended. */
1382:../FreeRTOS/tasks.c **** 		configASSERT( xTask );
 1508              		.loc 1 1382 0
 1509 0010 7B68     		ldr	r3, [r7, #4]
 1510 0012 002B     		cmp	r3, #0
 1511 0014 09D1     		bne	.L97
 1512              	.LBB127:
 1513              	.LBB128:
 215:/home/houxd/workspaceS32DS.ARM.V20/dp1000/FreeRTOS/include/../../FreeRTOS/include/../../FreeRTOS/portable/GCC/ARM_CM4F/portmacro.h **** 	(
 1514              		.loc 2 215 0 discriminator 1
 1515              	@ 215 "/home/houxd/workspaceS32DS.ARM.V20/dp1000/FreeRTOS/include/../../FreeRTOS/include/../../Free
 1516 0016 4FF00703 			mov r3, #7												
 1517 001a 83F31188 		msr basepri, r3											
 1518 001e BFF36F8F 		isb														
 1519 0022 BFF34F8F 		dsb														
 1520              	
 1521              	@ 0 "" 2
 1522              		.thumb
 1523 0026 FB60     		str	r3, [r7, #12]
 1524              	.L98:
 1525              	.LBE128:
 1526              	.LBE127:
 1527              		.loc 1 1382 0 discriminator 1
 1528 0028 FEE7     		b	.L98
 1529              	.L97:
1383:../FreeRTOS/tasks.c **** 
1384:../FreeRTOS/tasks.c **** 		/* Is the task being resumed actually in the suspended list? */
1385:../FreeRTOS/tasks.c **** 		if( listIS_CONTAINED_WITHIN( &xSuspendedTaskList, &( pxTCB->xGenericListItem ) ) != pdFALSE )
 1530              		.loc 1 1385 0
 1531 002a 3B69     		ldr	r3, [r7, #16]
 1532 002c 5B69     		ldr	r3, [r3, #20]
 1533 002e 0F4A     		ldr	r2, .L105
 1534 0030 9342     		cmp	r3, r2
 1535 0032 01D1     		bne	.L99
 1536              		.loc 1 1385 0 is_stmt 0 discriminator 1
 1537 0034 0123     		movs	r3, #1
 1538 0036 00E0     		b	.L100
 1539              	.L99:
 1540              		.loc 1 1385 0 discriminator 2
 1541 0038 0023     		movs	r3, #0
 1542              	.L100:
 1543              		.loc 1 1385 0 discriminator 4
 1544 003a 002B     		cmp	r3, #0
 1545 003c 0FD0     		beq	.L101
1386:../FreeRTOS/tasks.c **** 		{
1387:../FreeRTOS/tasks.c **** 			/* Has the task already been resumed from within an ISR? */
1388:../FreeRTOS/tasks.c **** 			if( listIS_CONTAINED_WITHIN( &xPendingReadyList, &( pxTCB->xEventListItem ) ) == pdFALSE )
 1546              		.loc 1 1388 0 is_stmt 1
 1547 003e 3B69     		ldr	r3, [r7, #16]
 1548 0040 9B6A     		ldr	r3, [r3, #40]
 1549 0042 0B4A     		ldr	r2, .L105+4
 1550 0044 9342     		cmp	r3, r2
 1551 0046 0AD0     		beq	.L101
1389:../FreeRTOS/tasks.c **** 			{
1390:../FreeRTOS/tasks.c **** 				/* Is it in the suspended list because it is in the	Suspended
1391:../FreeRTOS/tasks.c **** 				state, or because is is blocked with no timeout? */
1392:../FreeRTOS/tasks.c **** 				if( listIS_CONTAINED_WITHIN( NULL, &( pxTCB->xEventListItem ) ) != pdFALSE )
 1552              		.loc 1 1392 0
 1553 0048 3B69     		ldr	r3, [r7, #16]
 1554 004a 9B6A     		ldr	r3, [r3, #40]
 1555 004c 002B     		cmp	r3, #0
 1556 004e 01D1     		bne	.L102
 1557              		.loc 1 1392 0 is_stmt 0 discriminator 1
 1558 0050 0123     		movs	r3, #1
 1559 0052 00E0     		b	.L103
 1560              	.L102:
 1561              		.loc 1 1392 0 discriminator 2
 1562 0054 0023     		movs	r3, #0
 1563              	.L103:
 1564              		.loc 1 1392 0 discriminator 4
 1565 0056 002B     		cmp	r3, #0
 1566 0058 01D0     		beq	.L101
1393:../FreeRTOS/tasks.c **** 				{
1394:../FreeRTOS/tasks.c **** 					xReturn = pdTRUE;
 1567              		.loc 1 1394 0 is_stmt 1
 1568 005a 0123     		movs	r3, #1
 1569 005c 7B61     		str	r3, [r7, #20]
 1570              	.L101:
1395:../FreeRTOS/tasks.c **** 				}
1396:../FreeRTOS/tasks.c **** 				else
1397:../FreeRTOS/tasks.c **** 				{
1398:../FreeRTOS/tasks.c **** 					mtCOVERAGE_TEST_MARKER();
1399:../FreeRTOS/tasks.c **** 				}
1400:../FreeRTOS/tasks.c **** 			}
1401:../FreeRTOS/tasks.c **** 			else
1402:../FreeRTOS/tasks.c **** 			{
1403:../FreeRTOS/tasks.c **** 				mtCOVERAGE_TEST_MARKER();
1404:../FreeRTOS/tasks.c **** 			}
1405:../FreeRTOS/tasks.c **** 		}
1406:../FreeRTOS/tasks.c **** 		else
1407:../FreeRTOS/tasks.c **** 		{
1408:../FreeRTOS/tasks.c **** 			mtCOVERAGE_TEST_MARKER();
1409:../FreeRTOS/tasks.c **** 		}
1410:../FreeRTOS/tasks.c **** 
1411:../FreeRTOS/tasks.c **** 		return xReturn;
 1571              		.loc 1 1411 0
 1572 005e 7B69     		ldr	r3, [r7, #20]
1412:../FreeRTOS/tasks.c **** 	} /*lint !e818 xTask cannot be a pointer to const because it is a typedef. */
 1573              		.loc 1 1412 0
 1574 0060 1846     		mov	r0, r3
 1575 0062 1C37     		adds	r7, r7, #28
 1576              		.cfi_def_cfa_offset 4
 1577 0064 BD46     		mov	sp, r7
 1578              		.cfi_def_cfa_register 13
 1579              		@ sp needed
 1580 0066 5DF8047B 		ldr	r7, [sp], #4
 1581              		.cfi_restore 7
 1582              		.cfi_def_cfa_offset 0
 1583 006a 7047     		bx	lr
 1584              	.L106:
 1585              		.align	2
 1586              	.L105:
 1587 006c 00000000 		.word	xSuspendedTaskList
 1588 0070 00000000 		.word	xPendingReadyList
 1589              		.cfi_endproc
 1590              	.LFE12:
 1592              		.section	.text.vTaskResume,"ax",%progbits
 1593              		.align	2
 1594              		.global	vTaskResume
 1595              		.thumb
 1596              		.thumb_func
 1598              	vTaskResume:
 1599              	.LFB13:
1413:../FreeRTOS/tasks.c **** 
1414:../FreeRTOS/tasks.c **** #endif /* INCLUDE_vTaskSuspend */
1415:../FreeRTOS/tasks.c **** /*-----------------------------------------------------------*/
1416:../FreeRTOS/tasks.c **** 
1417:../FreeRTOS/tasks.c **** #if ( INCLUDE_vTaskSuspend == 1 )
1418:../FreeRTOS/tasks.c **** 
1419:../FreeRTOS/tasks.c **** 	void vTaskResume( TaskHandle_t xTaskToResume )
1420:../FreeRTOS/tasks.c **** 	{
 1600              		.loc 1 1420 0
 1601              		.cfi_startproc
 1602              		@ args = 0, pretend = 0, frame = 16
 1603              		@ frame_needed = 1, uses_anonymous_args = 0
 1604 0000 80B5     		push	{r7, lr}
 1605              		.cfi_def_cfa_offset 8
 1606              		.cfi_offset 7, -8
 1607              		.cfi_offset 14, -4
 1608 0002 84B0     		sub	sp, sp, #16
 1609              		.cfi_def_cfa_offset 24
 1610 0004 00AF     		add	r7, sp, #0
 1611              		.cfi_def_cfa_register 7
 1612 0006 7860     		str	r0, [r7, #4]
1421:../FreeRTOS/tasks.c **** 	TCB_t * const pxTCB = ( TCB_t * ) xTaskToResume;
 1613              		.loc 1 1421 0
 1614 0008 7B68     		ldr	r3, [r7, #4]
 1615 000a FB60     		str	r3, [r7, #12]
1422:../FreeRTOS/tasks.c **** 
1423:../FreeRTOS/tasks.c **** 		/* It does not make sense to resume the calling task. */
1424:../FreeRTOS/tasks.c **** 		configASSERT( xTaskToResume );
 1616              		.loc 1 1424 0
 1617 000c 7B68     		ldr	r3, [r7, #4]
 1618 000e 002B     		cmp	r3, #0
 1619 0010 09D1     		bne	.L108
 1620              	.LBB129:
 1621              	.LBB130:
 215:/home/houxd/workspaceS32DS.ARM.V20/dp1000/FreeRTOS/include/../../FreeRTOS/include/../../FreeRTOS/portable/GCC/ARM_CM4F/portmacro.h **** 	(
 1622              		.loc 2 215 0 discriminator 1
 1623              	@ 215 "/home/houxd/workspaceS32DS.ARM.V20/dp1000/FreeRTOS/include/../../FreeRTOS/include/../../Free
 1624 0012 4FF00703 			mov r3, #7												
 1625 0016 83F31188 		msr basepri, r3											
 1626 001a BFF36F8F 		isb														
 1627 001e BFF34F8F 		dsb														
 1628              	
 1629              	@ 0 "" 2
 1630              		.thumb
 1631 0022 BB60     		str	r3, [r7, #8]
 1632              	.L109:
 1633              	.LBE130:
 1634              	.LBE129:
 1635              		.loc 1 1424 0 discriminator 1
 1636 0024 FEE7     		b	.L109
 1637              	.L108:
1425:../FreeRTOS/tasks.c **** 
1426:../FreeRTOS/tasks.c **** 		/* The parameter cannot be NULL as it is impossible to resume the
1427:../FreeRTOS/tasks.c **** 		currently executing task. */
1428:../FreeRTOS/tasks.c **** 		if( ( pxTCB != NULL ) && ( pxTCB != pxCurrentTCB ) )
 1638              		.loc 1 1428 0
 1639 0026 FB68     		ldr	r3, [r7, #12]
 1640 0028 002B     		cmp	r3, #0
 1641 002a 2ED0     		beq	.L107
 1642              		.loc 1 1428 0 is_stmt 0 discriminator 1
 1643 002c 184B     		ldr	r3, .L112
 1644 002e 1B68     		ldr	r3, [r3]
 1645 0030 FA68     		ldr	r2, [r7, #12]
 1646 0032 9A42     		cmp	r2, r3
 1647 0034 29D0     		beq	.L107
1429:../FreeRTOS/tasks.c **** 		{
1430:../FreeRTOS/tasks.c **** 			taskENTER_CRITICAL();
 1648              		.loc 1 1430 0 is_stmt 1
 1649 0036 FFF7FEFF 		bl	vPortEnterCritical
1431:../FreeRTOS/tasks.c **** 			{
1432:../FreeRTOS/tasks.c **** 				if( prvTaskIsTaskSuspended( pxTCB ) == pdTRUE )
 1650              		.loc 1 1432 0
 1651 003a F868     		ldr	r0, [r7, #12]
 1652 003c FFF7FEFF 		bl	prvTaskIsTaskSuspended
 1653 0040 0346     		mov	r3, r0
 1654 0042 012B     		cmp	r3, #1
 1655 0044 1FD1     		bne	.L111
1433:../FreeRTOS/tasks.c **** 				{
1434:../FreeRTOS/tasks.c **** 					traceTASK_RESUME( pxTCB );
1435:../FreeRTOS/tasks.c **** 
1436:../FreeRTOS/tasks.c **** 					/* As we are in a critical section we can access the ready
1437:../FreeRTOS/tasks.c **** 					lists even if the scheduler is suspended. */
1438:../FreeRTOS/tasks.c **** 					( void ) uxListRemove(  &( pxTCB->xGenericListItem ) );
 1656              		.loc 1 1438 0
 1657 0046 FB68     		ldr	r3, [r7, #12]
 1658 0048 0433     		adds	r3, r3, #4
 1659 004a 1846     		mov	r0, r3
 1660 004c FFF7FEFF 		bl	uxListRemove
1439:../FreeRTOS/tasks.c **** 					prvAddTaskToReadyList( pxTCB );
 1661              		.loc 1 1439 0
 1662 0050 FB68     		ldr	r3, [r7, #12]
 1663 0052 DB6A     		ldr	r3, [r3, #44]
 1664 0054 1A46     		mov	r2, r3
 1665 0056 0123     		movs	r3, #1
 1666 0058 03FA02F2 		lsl	r2, r3, r2
 1667 005c 0D4B     		ldr	r3, .L112+4
 1668 005e 1B68     		ldr	r3, [r3]
 1669 0060 1343     		orrs	r3, r3, r2
 1670 0062 0C4A     		ldr	r2, .L112+4
 1671 0064 1360     		str	r3, [r2]
 1672 0066 FB68     		ldr	r3, [r7, #12]
 1673 0068 DA6A     		ldr	r2, [r3, #44]
 1674 006a 1346     		mov	r3, r2
 1675 006c 9B00     		lsls	r3, r3, #2
 1676 006e 1344     		add	r3, r3, r2
 1677 0070 9B00     		lsls	r3, r3, #2
 1678 0072 094A     		ldr	r2, .L112+8
 1679 0074 1A44     		add	r2, r2, r3
 1680 0076 FB68     		ldr	r3, [r7, #12]
 1681 0078 0433     		adds	r3, r3, #4
 1682 007a 1046     		mov	r0, r2
 1683 007c 1946     		mov	r1, r3
 1684 007e FFF7FEFF 		bl	vListInsertEnd
1440:../FreeRTOS/tasks.c **** 
1441:../FreeRTOS/tasks.c **** 					/* We may have just resumed a higher priority task. */
1442:../FreeRTOS/tasks.c **** 					if( pxTCB->uxPriority >= pxCurrentTCB->uxPriority )
 1685              		.loc 1 1442 0
 1686 0082 034B     		ldr	r3, .L112
 1687 0084 1B68     		ldr	r3, [r3]
 1688              	.L111:
1443:../FreeRTOS/tasks.c **** 					{
1444:../FreeRTOS/tasks.c **** 						/* This yield may not cause the task just resumed to run,
1445:../FreeRTOS/tasks.c **** 						but will leave the lists in the correct state for the
1446:../FreeRTOS/tasks.c **** 						next yield. */
1447:../FreeRTOS/tasks.c **** 						taskYIELD_IF_USING_PREEMPTION();
1448:../FreeRTOS/tasks.c **** 					}
1449:../FreeRTOS/tasks.c **** 					else
1450:../FreeRTOS/tasks.c **** 					{
1451:../FreeRTOS/tasks.c **** 						mtCOVERAGE_TEST_MARKER();
1452:../FreeRTOS/tasks.c **** 					}
1453:../FreeRTOS/tasks.c **** 				}
1454:../FreeRTOS/tasks.c **** 				else
1455:../FreeRTOS/tasks.c **** 				{
1456:../FreeRTOS/tasks.c **** 					mtCOVERAGE_TEST_MARKER();
1457:../FreeRTOS/tasks.c **** 				}
1458:../FreeRTOS/tasks.c **** 			}
1459:../FreeRTOS/tasks.c **** 			taskEXIT_CRITICAL();
 1689              		.loc 1 1459 0
 1690 0086 FFF7FEFF 		bl	vPortExitCritical
 1691              	.L107:
1460:../FreeRTOS/tasks.c **** 		}
1461:../FreeRTOS/tasks.c **** 		else
1462:../FreeRTOS/tasks.c **** 		{
1463:../FreeRTOS/tasks.c **** 			mtCOVERAGE_TEST_MARKER();
1464:../FreeRTOS/tasks.c **** 		}
1465:../FreeRTOS/tasks.c **** 	}
 1692              		.loc 1 1465 0
 1693 008a 1037     		adds	r7, r7, #16
 1694              		.cfi_def_cfa_offset 8
 1695 008c BD46     		mov	sp, r7
 1696              		.cfi_def_cfa_register 13
 1697              		@ sp needed
 1698 008e 80BD     		pop	{r7, pc}
 1699              	.L113:
 1700              		.align	2
 1701              	.L112:
 1702 0090 00000000 		.word	pxCurrentTCB
 1703 0094 00000000 		.word	uxTopReadyPriority
 1704 0098 00000000 		.word	pxReadyTasksLists
 1705              		.cfi_endproc
 1706              	.LFE13:
 1708              		.section	.text.xTaskResumeFromISR,"ax",%progbits
 1709              		.align	2
 1710              		.global	xTaskResumeFromISR
 1711              		.thumb
 1712              		.thumb_func
 1714              	xTaskResumeFromISR:
 1715              	.LFB14:
1466:../FreeRTOS/tasks.c **** 
1467:../FreeRTOS/tasks.c **** #endif /* INCLUDE_vTaskSuspend */
1468:../FreeRTOS/tasks.c **** 
1469:../FreeRTOS/tasks.c **** /*-----------------------------------------------------------*/
1470:../FreeRTOS/tasks.c **** 
1471:../FreeRTOS/tasks.c **** #if ( ( INCLUDE_xTaskResumeFromISR == 1 ) && ( INCLUDE_vTaskSuspend == 1 ) )
1472:../FreeRTOS/tasks.c **** 
1473:../FreeRTOS/tasks.c **** 	BaseType_t xTaskResumeFromISR( TaskHandle_t xTaskToResume )
1474:../FreeRTOS/tasks.c **** 	{
 1716              		.loc 1 1474 0
 1717              		.cfi_startproc
 1718              		@ args = 0, pretend = 0, frame = 40
 1719              		@ frame_needed = 1, uses_anonymous_args = 0
 1720 0000 80B5     		push	{r7, lr}
 1721              		.cfi_def_cfa_offset 8
 1722              		.cfi_offset 7, -8
 1723              		.cfi_offset 14, -4
 1724 0002 8AB0     		sub	sp, sp, #40
 1725              		.cfi_def_cfa_offset 48
 1726 0004 00AF     		add	r7, sp, #0
 1727              		.cfi_def_cfa_register 7
 1728 0006 7860     		str	r0, [r7, #4]
1475:../FreeRTOS/tasks.c **** 	BaseType_t xYieldRequired = pdFALSE;
 1729              		.loc 1 1475 0
 1730 0008 0023     		movs	r3, #0
 1731 000a 7B62     		str	r3, [r7, #36]
1476:../FreeRTOS/tasks.c **** 	TCB_t * const pxTCB = ( TCB_t * ) xTaskToResume;
 1732              		.loc 1 1476 0
 1733 000c 7B68     		ldr	r3, [r7, #4]
 1734 000e 3B62     		str	r3, [r7, #32]
1477:../FreeRTOS/tasks.c **** 	UBaseType_t uxSavedInterruptStatus;
1478:../FreeRTOS/tasks.c **** 
1479:../FreeRTOS/tasks.c **** 		configASSERT( xTaskToResume );
 1735              		.loc 1 1479 0
 1736 0010 7B68     		ldr	r3, [r7, #4]
 1737 0012 002B     		cmp	r3, #0
 1738 0014 09D1     		bne	.L115
 1739              	.LBB131:
 1740              	.LBB132:
 215:/home/houxd/workspaceS32DS.ARM.V20/dp1000/FreeRTOS/include/../../FreeRTOS/include/../../FreeRTOS/portable/GCC/ARM_CM4F/portmacro.h **** 	(
 1741              		.loc 2 215 0 discriminator 1
 1742              	@ 215 "/home/houxd/workspaceS32DS.ARM.V20/dp1000/FreeRTOS/include/../../FreeRTOS/include/../../Free
 1743 0016 4FF00703 			mov r3, #7												
 1744 001a 83F31188 		msr basepri, r3											
 1745 001e BFF36F8F 		isb														
 1746 0022 BFF34F8F 		dsb														
 1747              	
 1748              	@ 0 "" 2
 1749              		.thumb
 1750 0026 BB61     		str	r3, [r7, #24]
 1751              	.L116:
 1752              	.LBE132:
 1753              	.LBE131:
 1754              		.loc 1 1479 0 discriminator 1
 1755 0028 FEE7     		b	.L116
 1756              	.L115:
1480:../FreeRTOS/tasks.c **** 
1481:../FreeRTOS/tasks.c **** 		/* RTOS ports that support interrupt nesting have the concept of a
1482:../FreeRTOS/tasks.c **** 		maximum	system call (or maximum API call) interrupt priority.
1483:../FreeRTOS/tasks.c **** 		Interrupts that are	above the maximum system call priority are keep
1484:../FreeRTOS/tasks.c **** 		permanently enabled, even when the RTOS kernel is in a critical section,
1485:../FreeRTOS/tasks.c **** 		but cannot make any calls to FreeRTOS API functions.  If configASSERT()
1486:../FreeRTOS/tasks.c **** 		is defined in FreeRTOSConfig.h then
1487:../FreeRTOS/tasks.c **** 		portASSERT_IF_INTERRUPT_PRIORITY_INVALID() will result in an assertion
1488:../FreeRTOS/tasks.c **** 		failure if a FreeRTOS API function is called from an interrupt that has
1489:../FreeRTOS/tasks.c **** 		been assigned a priority above the configured maximum system call
1490:../FreeRTOS/tasks.c **** 		priority.  Only FreeRTOS functions that end in FromISR can be called
1491:../FreeRTOS/tasks.c **** 		from interrupts	that have been assigned a priority at or (logically)
1492:../FreeRTOS/tasks.c **** 		below the maximum system call interrupt priority.  FreeRTOS maintains a
1493:../FreeRTOS/tasks.c **** 		separate interrupt safe API to ensure interrupt entry is as fast and as
1494:../FreeRTOS/tasks.c **** 		simple as possible.  More information (albeit Cortex-M specific) is
1495:../FreeRTOS/tasks.c **** 		provided on the following link:
1496:../FreeRTOS/tasks.c **** 		http://www.freertos.org/RTOS-Cortex-M3-M4.html */
1497:../FreeRTOS/tasks.c **** 		portASSERT_IF_INTERRUPT_PRIORITY_INVALID();
 1757              		.loc 1 1497 0
 1758 002a FFF7FEFF 		bl	vPortValidateInterruptPriority
 1759              	.LBB133:
 1760              	.LBB134:
 231:/home/houxd/workspaceS32DS.ARM.V20/dp1000/FreeRTOS/include/../../FreeRTOS/include/../../FreeRTOS/portable/GCC/ARM_CM4F/portmacro.h **** 	(
 1761              		.loc 2 231 0
 1762              	@ 231 "/home/houxd/workspaceS32DS.ARM.V20/dp1000/FreeRTOS/include/../../FreeRTOS/include/../../Free
 1763 002e EFF31182 			mrs r2, basepri											
 1764 0032 4FF00703 		mov r3, #7												
 1765 0036 83F31188 		msr basepri, r3											
 1766 003a BFF36F8F 		isb														
 1767 003e BFF34F8F 		dsb														
 1768              	
 1769              	@ 0 "" 2
 1770              		.thumb
 1771 0042 7A61     		str	r2, [r7, #20]
 1772 0044 3B61     		str	r3, [r7, #16]
 243:/home/houxd/workspaceS32DS.ARM.V20/dp1000/FreeRTOS/include/../../FreeRTOS/include/../../FreeRTOS/portable/GCC/ARM_CM4F/portmacro.h **** }
 1773              		.loc 2 243 0
 1774 0046 7B69     		ldr	r3, [r7, #20]
 1775              	.LBE134:
 1776              	.LBE133:
1498:../FreeRTOS/tasks.c **** 
1499:../FreeRTOS/tasks.c **** 		uxSavedInterruptStatus = portSET_INTERRUPT_MASK_FROM_ISR();
 1777              		.loc 1 1499 0
 1778 0048 FB61     		str	r3, [r7, #28]
1500:../FreeRTOS/tasks.c **** 		{
1501:../FreeRTOS/tasks.c **** 			if( prvTaskIsTaskSuspended( pxTCB ) == pdTRUE )
 1779              		.loc 1 1501 0
 1780 004a 386A     		ldr	r0, [r7, #32]
 1781 004c FFF7FEFF 		bl	prvTaskIsTaskSuspended
 1782 0050 0346     		mov	r3, r0
 1783 0052 012B     		cmp	r3, #1
 1784 0054 31D1     		bne	.L118
1502:../FreeRTOS/tasks.c **** 			{
1503:../FreeRTOS/tasks.c **** 				traceTASK_RESUME_FROM_ISR( pxTCB );
1504:../FreeRTOS/tasks.c **** 
1505:../FreeRTOS/tasks.c **** 				/* Check the ready lists can be accessed. */
1506:../FreeRTOS/tasks.c **** 				if( uxSchedulerSuspended == ( UBaseType_t ) pdFALSE )
 1785              		.loc 1 1506 0
 1786 0056 1E4B     		ldr	r3, .L123
 1787 0058 1B68     		ldr	r3, [r3]
 1788 005a 002B     		cmp	r3, #0
 1789 005c 27D1     		bne	.L119
1507:../FreeRTOS/tasks.c **** 				{
1508:../FreeRTOS/tasks.c **** 					/* Ready lists can be accessed so move the task from the
1509:../FreeRTOS/tasks.c **** 					suspended list to the ready list directly. */
1510:../FreeRTOS/tasks.c **** 					if( pxTCB->uxPriority >= pxCurrentTCB->uxPriority )
 1790              		.loc 1 1510 0
 1791 005e 3B6A     		ldr	r3, [r7, #32]
 1792 0060 DA6A     		ldr	r2, [r3, #44]
 1793 0062 1C4B     		ldr	r3, .L123+4
 1794 0064 1B68     		ldr	r3, [r3]
 1795 0066 DB6A     		ldr	r3, [r3, #44]
 1796 0068 9A42     		cmp	r2, r3
 1797 006a 01D3     		bcc	.L120
1511:../FreeRTOS/tasks.c **** 					{
1512:../FreeRTOS/tasks.c **** 						xYieldRequired = pdTRUE;
 1798              		.loc 1 1512 0
 1799 006c 0123     		movs	r3, #1
 1800 006e 7B62     		str	r3, [r7, #36]
 1801              	.L120:
1513:../FreeRTOS/tasks.c **** 					}
1514:../FreeRTOS/tasks.c **** 					else
1515:../FreeRTOS/tasks.c **** 					{
1516:../FreeRTOS/tasks.c **** 						mtCOVERAGE_TEST_MARKER();
1517:../FreeRTOS/tasks.c **** 					}
1518:../FreeRTOS/tasks.c **** 
1519:../FreeRTOS/tasks.c **** 					( void ) uxListRemove(  &( pxTCB->xGenericListItem ) );
 1802              		.loc 1 1519 0
 1803 0070 3B6A     		ldr	r3, [r7, #32]
 1804 0072 0433     		adds	r3, r3, #4
 1805 0074 1846     		mov	r0, r3
 1806 0076 FFF7FEFF 		bl	uxListRemove
1520:../FreeRTOS/tasks.c **** 					prvAddTaskToReadyList( pxTCB );
 1807              		.loc 1 1520 0
 1808 007a 3B6A     		ldr	r3, [r7, #32]
 1809 007c DB6A     		ldr	r3, [r3, #44]
 1810 007e 1A46     		mov	r2, r3
 1811 0080 0123     		movs	r3, #1
 1812 0082 03FA02F2 		lsl	r2, r3, r2
 1813 0086 144B     		ldr	r3, .L123+8
 1814 0088 1B68     		ldr	r3, [r3]
 1815 008a 1343     		orrs	r3, r3, r2
 1816 008c 124A     		ldr	r2, .L123+8
 1817 008e 1360     		str	r3, [r2]
 1818 0090 3B6A     		ldr	r3, [r7, #32]
 1819 0092 DA6A     		ldr	r2, [r3, #44]
 1820 0094 1346     		mov	r3, r2
 1821 0096 9B00     		lsls	r3, r3, #2
 1822 0098 1344     		add	r3, r3, r2
 1823 009a 9B00     		lsls	r3, r3, #2
 1824 009c 0F4A     		ldr	r2, .L123+12
 1825 009e 1A44     		add	r2, r2, r3
 1826 00a0 3B6A     		ldr	r3, [r7, #32]
 1827 00a2 0433     		adds	r3, r3, #4
 1828 00a4 1046     		mov	r0, r2
 1829 00a6 1946     		mov	r1, r3
 1830 00a8 FFF7FEFF 		bl	vListInsertEnd
 1831 00ac 05E0     		b	.L118
 1832              	.L119:
1521:../FreeRTOS/tasks.c **** 				}
1522:../FreeRTOS/tasks.c **** 				else
1523:../FreeRTOS/tasks.c **** 				{
1524:../FreeRTOS/tasks.c **** 					/* The delayed or ready lists cannot be accessed so the task
1525:../FreeRTOS/tasks.c **** 					is held in the pending ready list until the scheduler is
1526:../FreeRTOS/tasks.c **** 					unsuspended. */
1527:../FreeRTOS/tasks.c **** 					vListInsertEnd( &( xPendingReadyList ), &( pxTCB->xEventListItem ) );
 1833              		.loc 1 1527 0
 1834 00ae 3B6A     		ldr	r3, [r7, #32]
 1835 00b0 1833     		adds	r3, r3, #24
 1836 00b2 0B48     		ldr	r0, .L123+16
 1837 00b4 1946     		mov	r1, r3
 1838 00b6 FFF7FEFF 		bl	vListInsertEnd
 1839              	.L118:
 1840 00ba FB69     		ldr	r3, [r7, #28]
 1841 00bc FB60     		str	r3, [r7, #12]
 1842              	.LBB135:
 1843              	.LBB136:
 1844              		.loc 2 249 0
 1845 00be FB68     		ldr	r3, [r7, #12]
 1846              	@ 249 "/home/houxd/workspaceS32DS.ARM.V20/dp1000/FreeRTOS/include/../../FreeRTOS/include/../../Free
 1847 00c0 83F31188 			msr basepri, r3	
 1848              	@ 0 "" 2
 1849              		.thumb
 1850              	.LBE136:
 1851              	.LBE135:
1528:../FreeRTOS/tasks.c **** 				}
1529:../FreeRTOS/tasks.c **** 			}
1530:../FreeRTOS/tasks.c **** 			else
1531:../FreeRTOS/tasks.c **** 			{
1532:../FreeRTOS/tasks.c **** 				mtCOVERAGE_TEST_MARKER();
1533:../FreeRTOS/tasks.c **** 			}
1534:../FreeRTOS/tasks.c **** 		}
1535:../FreeRTOS/tasks.c **** 		portCLEAR_INTERRUPT_MASK_FROM_ISR( uxSavedInterruptStatus );
1536:../FreeRTOS/tasks.c **** 
1537:../FreeRTOS/tasks.c **** 		return xYieldRequired;
 1852              		.loc 1 1537 0
 1853 00c4 7B6A     		ldr	r3, [r7, #36]
1538:../FreeRTOS/tasks.c **** 	}
 1854              		.loc 1 1538 0
 1855 00c6 1846     		mov	r0, r3
 1856 00c8 2837     		adds	r7, r7, #40
 1857              		.cfi_def_cfa_offset 8
 1858 00ca BD46     		mov	sp, r7
 1859              		.cfi_def_cfa_register 13
 1860              		@ sp needed
 1861 00cc 80BD     		pop	{r7, pc}
 1862              	.L124:
 1863 00ce 00BF     		.align	2
 1864              	.L123:
 1865 00d0 00000000 		.word	uxSchedulerSuspended
 1866 00d4 00000000 		.word	pxCurrentTCB
 1867 00d8 00000000 		.word	uxTopReadyPriority
 1868 00dc 00000000 		.word	pxReadyTasksLists
 1869 00e0 00000000 		.word	xPendingReadyList
 1870              		.cfi_endproc
 1871              	.LFE14:
 1873              		.section	.rodata
 1874              		.align	2
 1875              	.LC0:
 1876 0000 49444C45 		.ascii	"IDLE\000"
 1876      00
 1877              		.section	.text.vTaskStartScheduler,"ax",%progbits
 1878              		.align	2
 1879              		.global	vTaskStartScheduler
 1880              		.thumb
 1881              		.thumb_func
 1883              	vTaskStartScheduler:
 1884              	.LFB15:
1539:../FreeRTOS/tasks.c **** 
1540:../FreeRTOS/tasks.c **** #endif /* ( ( INCLUDE_xTaskResumeFromISR == 1 ) && ( INCLUDE_vTaskSuspend == 1 ) ) */
1541:../FreeRTOS/tasks.c **** /*-----------------------------------------------------------*/
1542:../FreeRTOS/tasks.c **** 
1543:../FreeRTOS/tasks.c **** void vTaskStartScheduler( void )
1544:../FreeRTOS/tasks.c **** {
 1885              		.loc 1 1544 0
 1886              		.cfi_startproc
 1887              		@ args = 0, pretend = 0, frame = 16
 1888              		@ frame_needed = 1, uses_anonymous_args = 0
 1889 0000 80B5     		push	{r7, lr}
 1890              		.cfi_def_cfa_offset 8
 1891              		.cfi_offset 7, -8
 1892              		.cfi_offset 14, -4
 1893 0002 88B0     		sub	sp, sp, #32
 1894              		.cfi_def_cfa_offset 40
 1895 0004 04AF     		add	r7, sp, #16
 1896              		.cfi_def_cfa 7, 24
1545:../FreeRTOS/tasks.c **** BaseType_t xReturn;
1546:../FreeRTOS/tasks.c **** 
1547:../FreeRTOS/tasks.c **** 	/* Add the idle task at the lowest priority. */
1548:../FreeRTOS/tasks.c **** 	#if ( INCLUDE_xTaskGetIdleTaskHandle == 1 )
1549:../FreeRTOS/tasks.c **** 	{
1550:../FreeRTOS/tasks.c **** 		/* Create the idle task, storing its handle in xIdleTaskHandle so it can
1551:../FreeRTOS/tasks.c **** 		be returned by the xTaskGetIdleTaskHandle() function. */
1552:../FreeRTOS/tasks.c **** 		xReturn = xTaskCreate( prvIdleTask, "IDLE", tskIDLE_STACK_SIZE, ( void * ) NULL, ( tskIDLE_PRIORI
1553:../FreeRTOS/tasks.c **** 	}
1554:../FreeRTOS/tasks.c **** 	#else
1555:../FreeRTOS/tasks.c **** 	{
1556:../FreeRTOS/tasks.c **** 		/* Create the idle task without storing its handle. */
1557:../FreeRTOS/tasks.c **** 		xReturn = xTaskCreate( prvIdleTask, "IDLE", tskIDLE_STACK_SIZE, ( void * ) NULL, ( tskIDLE_PRIORI
 1897              		.loc 1 1557 0
 1898 0006 0023     		movs	r3, #0
 1899 0008 0093     		str	r3, [sp]
 1900 000a 0023     		movs	r3, #0
 1901 000c 0193     		str	r3, [sp, #4]
 1902 000e 0023     		movs	r3, #0
 1903 0010 0293     		str	r3, [sp, #8]
 1904 0012 0023     		movs	r3, #0
 1905 0014 0393     		str	r3, [sp, #12]
 1906 0016 1B48     		ldr	r0, .L130
 1907 0018 1B49     		ldr	r1, .L130+4
 1908 001a 8022     		movs	r2, #128
 1909 001c 0023     		movs	r3, #0
 1910 001e FFF7FEFF 		bl	xTaskGenericCreate
 1911 0022 F860     		str	r0, [r7, #12]
1558:../FreeRTOS/tasks.c **** 	}
1559:../FreeRTOS/tasks.c **** 	#endif /* INCLUDE_xTaskGetIdleTaskHandle */
1560:../FreeRTOS/tasks.c **** 
1561:../FreeRTOS/tasks.c **** 	#if ( configUSE_TIMERS == 1 )
1562:../FreeRTOS/tasks.c **** 	{
1563:../FreeRTOS/tasks.c **** 		if( xReturn == pdPASS )
 1912              		.loc 1 1563 0
 1913 0024 FB68     		ldr	r3, [r7, #12]
 1914 0026 012B     		cmp	r3, #1
 1915 0028 02D1     		bne	.L126
1564:../FreeRTOS/tasks.c **** 		{
1565:../FreeRTOS/tasks.c **** 			xReturn = xTimerCreateTimerTask();
 1916              		.loc 1 1565 0
 1917 002a FFF7FEFF 		bl	xTimerCreateTimerTask
 1918 002e F860     		str	r0, [r7, #12]
 1919              	.L126:
1566:../FreeRTOS/tasks.c **** 		}
1567:../FreeRTOS/tasks.c **** 		else
1568:../FreeRTOS/tasks.c **** 		{
1569:../FreeRTOS/tasks.c **** 			mtCOVERAGE_TEST_MARKER();
1570:../FreeRTOS/tasks.c **** 		}
1571:../FreeRTOS/tasks.c **** 	}
1572:../FreeRTOS/tasks.c **** 	#endif /* configUSE_TIMERS */
1573:../FreeRTOS/tasks.c **** 
1574:../FreeRTOS/tasks.c **** 	if( xReturn == pdPASS )
 1920              		.loc 1 1574 0
 1921 0030 FB68     		ldr	r3, [r7, #12]
 1922 0032 012B     		cmp	r3, #1
 1923 0034 15D1     		bne	.L127
 1924              	.LBB137:
 1925              	.LBB138:
 215:/home/houxd/workspaceS32DS.ARM.V20/dp1000/FreeRTOS/include/../../FreeRTOS/include/../../FreeRTOS/portable/GCC/ARM_CM4F/portmacro.h **** 	(
 1926              		.loc 2 215 0
 1927              	@ 215 "/home/houxd/workspaceS32DS.ARM.V20/dp1000/FreeRTOS/include/../../FreeRTOS/include/../../Free
 1928 0036 4FF00703 			mov r3, #7												
 1929 003a 83F31188 		msr basepri, r3											
 1930 003e BFF36F8F 		isb														
 1931 0042 BFF34F8F 		dsb														
 1932              	
 1933              	@ 0 "" 2
 1934              		.thumb
 1935 0046 BB60     		str	r3, [r7, #8]
 1936              	.LBE138:
 1937              	.LBE137:
1575:../FreeRTOS/tasks.c **** 	{
1576:../FreeRTOS/tasks.c **** 		/* Interrupts are turned off here, to ensure a tick does not occur
1577:../FreeRTOS/tasks.c **** 		before or during the call to xPortStartScheduler().  The stacks of
1578:../FreeRTOS/tasks.c **** 		the created tasks contain a status word with interrupts switched on
1579:../FreeRTOS/tasks.c **** 		so interrupts will automatically get re-enabled when the first task
1580:../FreeRTOS/tasks.c **** 		starts to run. */
1581:../FreeRTOS/tasks.c **** 		portDISABLE_INTERRUPTS();
1582:../FreeRTOS/tasks.c **** 
1583:../FreeRTOS/tasks.c **** 		#if ( configUSE_NEWLIB_REENTRANT == 1 )
1584:../FreeRTOS/tasks.c **** 		{
1585:../FreeRTOS/tasks.c **** 			/* Switch Newlib's _impure_ptr variable to point to the _reent
1586:../FreeRTOS/tasks.c **** 			structure specific to the task that will run first. */
1587:../FreeRTOS/tasks.c **** 			_impure_ptr = &( pxCurrentTCB->xNewLib_reent );
1588:../FreeRTOS/tasks.c **** 		}
1589:../FreeRTOS/tasks.c **** 		#endif /* configUSE_NEWLIB_REENTRANT */
1590:../FreeRTOS/tasks.c **** 
1591:../FreeRTOS/tasks.c **** 		xNextTaskUnblockTime = portMAX_DELAY;
 1938              		.loc 1 1591 0
 1939 0048 104B     		ldr	r3, .L130+8
 1940 004a 4FF0FF32 		mov	r2, #-1
 1941 004e 1A60     		str	r2, [r3]
1592:../FreeRTOS/tasks.c **** 		xSchedulerRunning = pdTRUE;
 1942              		.loc 1 1592 0
 1943 0050 0F4B     		ldr	r3, .L130+12
 1944 0052 0122     		movs	r2, #1
 1945 0054 1A60     		str	r2, [r3]
1593:../FreeRTOS/tasks.c **** 		xTickCount = ( TickType_t ) 0U;
 1946              		.loc 1 1593 0
 1947 0056 0F4B     		ldr	r3, .L130+16
 1948 0058 0022     		movs	r2, #0
 1949 005a 1A60     		str	r2, [r3]
1594:../FreeRTOS/tasks.c **** 
1595:../FreeRTOS/tasks.c **** 		/* If configGENERATE_RUN_TIME_STATS is defined then the following
1596:../FreeRTOS/tasks.c **** 		macro must be defined to configure the timer/counter used to generate
1597:../FreeRTOS/tasks.c **** 		the run time counter time base. */
1598:../FreeRTOS/tasks.c **** 		portCONFIGURE_TIMER_FOR_RUN_TIME_STATS();
1599:../FreeRTOS/tasks.c **** 
1600:../FreeRTOS/tasks.c **** 		/* Setting up the timer tick is hardware specific and thus in the
1601:../FreeRTOS/tasks.c **** 		portable interface. */
1602:../FreeRTOS/tasks.c **** 		if( xPortStartScheduler() != pdFALSE )
 1950              		.loc 1 1602 0
 1951 005c FFF7FEFF 		bl	xPortStartScheduler
 1952 0060 0CE0     		b	.L125
 1953              	.L127:
1603:../FreeRTOS/tasks.c **** 		{
1604:../FreeRTOS/tasks.c **** 			/* Should not reach here as if the scheduler is running the
1605:../FreeRTOS/tasks.c **** 			function will not return. */
1606:../FreeRTOS/tasks.c **** 		}
1607:../FreeRTOS/tasks.c **** 		else
1608:../FreeRTOS/tasks.c **** 		{
1609:../FreeRTOS/tasks.c **** 			/* Should only reach here if a task calls xTaskEndScheduler(). */
1610:../FreeRTOS/tasks.c **** 		}
1611:../FreeRTOS/tasks.c **** 	}
1612:../FreeRTOS/tasks.c **** 	else
1613:../FreeRTOS/tasks.c **** 	{
1614:../FreeRTOS/tasks.c **** 		/* This line will only be reached if the kernel could not be started,
1615:../FreeRTOS/tasks.c **** 		because there was not enough FreeRTOS heap to create the idle task
1616:../FreeRTOS/tasks.c **** 		or the timer task. */
1617:../FreeRTOS/tasks.c **** 		configASSERT( xReturn );
 1954              		.loc 1 1617 0
 1955 0062 FB68     		ldr	r3, [r7, #12]
 1956 0064 002B     		cmp	r3, #0
 1957 0066 09D1     		bne	.L125
 1958              	.LBB139:
 1959              	.LBB140:
 215:/home/houxd/workspaceS32DS.ARM.V20/dp1000/FreeRTOS/include/../../FreeRTOS/include/../../FreeRTOS/portable/GCC/ARM_CM4F/portmacro.h **** 	(
 1960              		.loc 2 215 0 discriminator 1
 1961              	@ 215 "/home/houxd/workspaceS32DS.ARM.V20/dp1000/FreeRTOS/include/../../FreeRTOS/include/../../Free
 1962 0068 4FF00703 			mov r3, #7												
 1963 006c 83F31188 		msr basepri, r3											
 1964 0070 BFF36F8F 		isb														
 1965 0074 BFF34F8F 		dsb														
 1966              	
 1967              	@ 0 "" 2
 1968              		.thumb
 1969 0078 7B60     		str	r3, [r7, #4]
 1970              	.L129:
 1971              	.LBE140:
 1972              	.LBE139:
 1973              		.loc 1 1617 0 discriminator 2
 1974 007a FEE7     		b	.L129
 1975              	.L125:
1618:../FreeRTOS/tasks.c **** 	}
1619:../FreeRTOS/tasks.c **** }
 1976              		.loc 1 1619 0
 1977 007c 1037     		adds	r7, r7, #16
 1978              		.cfi_def_cfa_offset 8
 1979 007e BD46     		mov	sp, r7
 1980              		.cfi_def_cfa_register 13
 1981              		@ sp needed
 1982 0080 80BD     		pop	{r7, pc}
 1983              	.L131:
 1984 0082 00BF     		.align	2
 1985              	.L130:
 1986 0084 00000000 		.word	prvIdleTask
 1987 0088 00000000 		.word	.LC0
 1988 008c 00000000 		.word	xNextTaskUnblockTime
 1989 0090 00000000 		.word	xSchedulerRunning
 1990 0094 00000000 		.word	xTickCount
 1991              		.cfi_endproc
 1992              	.LFE15:
 1994              		.section	.text.vTaskEndScheduler,"ax",%progbits
 1995              		.align	2
 1996              		.global	vTaskEndScheduler
 1997              		.thumb
 1998              		.thumb_func
 2000              	vTaskEndScheduler:
 2001              	.LFB16:
1620:../FreeRTOS/tasks.c **** /*-----------------------------------------------------------*/
1621:../FreeRTOS/tasks.c **** 
1622:../FreeRTOS/tasks.c **** void vTaskEndScheduler( void )
1623:../FreeRTOS/tasks.c **** {
 2002              		.loc 1 1623 0
 2003              		.cfi_startproc
 2004              		@ args = 0, pretend = 0, frame = 8
 2005              		@ frame_needed = 1, uses_anonymous_args = 0
 2006 0000 80B5     		push	{r7, lr}
 2007              		.cfi_def_cfa_offset 8
 2008              		.cfi_offset 7, -8
 2009              		.cfi_offset 14, -4
 2010 0002 82B0     		sub	sp, sp, #8
 2011              		.cfi_def_cfa_offset 16
 2012 0004 00AF     		add	r7, sp, #0
 2013              		.cfi_def_cfa_register 7
 2014              	.LBB141:
 2015              	.LBB142:
 215:/home/houxd/workspaceS32DS.ARM.V20/dp1000/FreeRTOS/include/../../FreeRTOS/include/../../FreeRTOS/portable/GCC/ARM_CM4F/portmacro.h **** 	(
 2016              		.loc 2 215 0
 2017              	@ 215 "/home/houxd/workspaceS32DS.ARM.V20/dp1000/FreeRTOS/include/../../FreeRTOS/include/../../Free
 2018 0006 4FF00703 			mov r3, #7												
 2019 000a 83F31188 		msr basepri, r3											
 2020 000e BFF36F8F 		isb														
 2021 0012 BFF34F8F 		dsb														
 2022              	
 2023              	@ 0 "" 2
 2024              		.thumb
 2025 0016 7B60     		str	r3, [r7, #4]
 2026              	.LBE142:
 2027              	.LBE141:
1624:../FreeRTOS/tasks.c **** 	/* Stop the scheduler interrupts and call the portable scheduler end
1625:../FreeRTOS/tasks.c **** 	routine so the original ISRs can be restored if necessary.  The port
1626:../FreeRTOS/tasks.c **** 	layer must ensure interrupts enable	bit is left in the correct state. */
1627:../FreeRTOS/tasks.c **** 	portDISABLE_INTERRUPTS();
1628:../FreeRTOS/tasks.c **** 	xSchedulerRunning = pdFALSE;
 2028              		.loc 1 1628 0
 2029 0018 034B     		ldr	r3, .L133
 2030 001a 0022     		movs	r2, #0
 2031 001c 1A60     		str	r2, [r3]
1629:../FreeRTOS/tasks.c **** 	vPortEndScheduler();
 2032              		.loc 1 1629 0
 2033 001e FFF7FEFF 		bl	vPortEndScheduler
1630:../FreeRTOS/tasks.c **** }
 2034              		.loc 1 1630 0
 2035 0022 0837     		adds	r7, r7, #8
 2036              		.cfi_def_cfa_offset 8
 2037 0024 BD46     		mov	sp, r7
 2038              		.cfi_def_cfa_register 13
 2039              		@ sp needed
 2040 0026 80BD     		pop	{r7, pc}
 2041              	.L134:
 2042              		.align	2
 2043              	.L133:
 2044 0028 00000000 		.word	xSchedulerRunning
 2045              		.cfi_endproc
 2046              	.LFE16:
 2048              		.section	.text.vTaskSuspendAll,"ax",%progbits
 2049              		.align	2
 2050              		.global	vTaskSuspendAll
 2051              		.thumb
 2052              		.thumb_func
 2054              	vTaskSuspendAll:
 2055              	.LFB17:
1631:../FreeRTOS/tasks.c **** /*----------------------------------------------------------*/
1632:../FreeRTOS/tasks.c **** 
1633:../FreeRTOS/tasks.c **** void vTaskSuspendAll( void )
1634:../FreeRTOS/tasks.c **** {
 2056              		.loc 1 1634 0
 2057              		.cfi_startproc
 2058              		@ args = 0, pretend = 0, frame = 0
 2059              		@ frame_needed = 1, uses_anonymous_args = 0
 2060              		@ link register save eliminated.
 2061 0000 80B4     		push	{r7}
 2062              		.cfi_def_cfa_offset 4
 2063              		.cfi_offset 7, -4
 2064 0002 00AF     		add	r7, sp, #0
 2065              		.cfi_def_cfa_register 7
1635:../FreeRTOS/tasks.c **** 	/* A critical section is not required as the variable is of type
1636:../FreeRTOS/tasks.c **** 	BaseType_t.  Please read Richard Barry's reply in the following link to a
1637:../FreeRTOS/tasks.c **** 	post in the FreeRTOS support forum before reporting this as a bug! -
1638:../FreeRTOS/tasks.c **** 	http://goo.gl/wu4acr */
1639:../FreeRTOS/tasks.c **** 	++uxSchedulerSuspended;
 2066              		.loc 1 1639 0
 2067 0004 044B     		ldr	r3, .L136
 2068 0006 1B68     		ldr	r3, [r3]
 2069 0008 0133     		adds	r3, r3, #1
 2070 000a 034A     		ldr	r2, .L136
 2071 000c 1360     		str	r3, [r2]
1640:../FreeRTOS/tasks.c **** }
 2072              		.loc 1 1640 0
 2073 000e BD46     		mov	sp, r7
 2074              		.cfi_def_cfa_register 13
 2075              		@ sp needed
 2076 0010 5DF8047B 		ldr	r7, [sp], #4
 2077              		.cfi_restore 7
 2078              		.cfi_def_cfa_offset 0
 2079 0014 7047     		bx	lr
 2080              	.L137:
 2081 0016 00BF     		.align	2
 2082              	.L136:
 2083 0018 00000000 		.word	uxSchedulerSuspended
 2084              		.cfi_endproc
 2085              	.LFE17:
 2087              		.section	.text.xTaskResumeAll,"ax",%progbits
 2088              		.align	2
 2089              		.global	xTaskResumeAll
 2090              		.thumb
 2091              		.thumb_func
 2093              	xTaskResumeAll:
 2094              	.LFB18:
1641:../FreeRTOS/tasks.c **** /*----------------------------------------------------------*/
1642:../FreeRTOS/tasks.c **** 
1643:../FreeRTOS/tasks.c **** #if ( configUSE_TICKLESS_IDLE != 0 )
1644:../FreeRTOS/tasks.c **** 
1645:../FreeRTOS/tasks.c **** 	static TickType_t prvGetExpectedIdleTime( void )
1646:../FreeRTOS/tasks.c **** 	{
1647:../FreeRTOS/tasks.c **** 	TickType_t xReturn;
1648:../FreeRTOS/tasks.c **** 
1649:../FreeRTOS/tasks.c **** 		if( pxCurrentTCB->uxPriority > tskIDLE_PRIORITY )
1650:../FreeRTOS/tasks.c **** 		{
1651:../FreeRTOS/tasks.c **** 			xReturn = 0;
1652:../FreeRTOS/tasks.c **** 		}
1653:../FreeRTOS/tasks.c **** 		else if( listCURRENT_LIST_LENGTH( &( pxReadyTasksLists[ tskIDLE_PRIORITY ] ) ) > 1 )
1654:../FreeRTOS/tasks.c **** 		{
1655:../FreeRTOS/tasks.c **** 			/* There are other idle priority tasks in the ready state.  If
1656:../FreeRTOS/tasks.c **** 			time slicing is used then the very next tick interrupt must be
1657:../FreeRTOS/tasks.c **** 			processed. */
1658:../FreeRTOS/tasks.c **** 			xReturn = 0;
1659:../FreeRTOS/tasks.c **** 		}
1660:../FreeRTOS/tasks.c **** 		else
1661:../FreeRTOS/tasks.c **** 		{
1662:../FreeRTOS/tasks.c **** 			xReturn = xNextTaskUnblockTime - xTickCount;
1663:../FreeRTOS/tasks.c **** 		}
1664:../FreeRTOS/tasks.c **** 
1665:../FreeRTOS/tasks.c **** 		return xReturn;
1666:../FreeRTOS/tasks.c **** 	}
1667:../FreeRTOS/tasks.c **** 
1668:../FreeRTOS/tasks.c **** #endif /* configUSE_TICKLESS_IDLE */
1669:../FreeRTOS/tasks.c **** /*----------------------------------------------------------*/
1670:../FreeRTOS/tasks.c **** 
1671:../FreeRTOS/tasks.c **** BaseType_t xTaskResumeAll( void )
1672:../FreeRTOS/tasks.c **** {
 2095              		.loc 1 1672 0
 2096              		.cfi_startproc
 2097              		@ args = 0, pretend = 0, frame = 16
 2098              		@ frame_needed = 1, uses_anonymous_args = 0
 2099 0000 80B5     		push	{r7, lr}
 2100              		.cfi_def_cfa_offset 8
 2101              		.cfi_offset 7, -8
 2102              		.cfi_offset 14, -4
 2103 0002 84B0     		sub	sp, sp, #16
 2104              		.cfi_def_cfa_offset 24
 2105 0004 00AF     		add	r7, sp, #0
 2106              		.cfi_def_cfa_register 7
1673:../FreeRTOS/tasks.c **** TCB_t *pxTCB;
1674:../FreeRTOS/tasks.c **** BaseType_t xAlreadyYielded = pdFALSE;
 2107              		.loc 1 1674 0
 2108 0006 0023     		movs	r3, #0
 2109 0008 FB60     		str	r3, [r7, #12]
1675:../FreeRTOS/tasks.c **** 
1676:../FreeRTOS/tasks.c **** 	/* If uxSchedulerSuspended is zero then this function does not match a
1677:../FreeRTOS/tasks.c **** 	previous call to vTaskSuspendAll(). */
1678:../FreeRTOS/tasks.c **** 	configASSERT( uxSchedulerSuspended );
 2110              		.loc 1 1678 0
 2111 000a 394B     		ldr	r3, .L149
 2112 000c 1B68     		ldr	r3, [r3]
 2113 000e 002B     		cmp	r3, #0
 2114 0010 09D1     		bne	.L139
 2115              	.LBB143:
 2116              	.LBB144:
 215:/home/houxd/workspaceS32DS.ARM.V20/dp1000/FreeRTOS/include/../../FreeRTOS/include/../../FreeRTOS/portable/GCC/ARM_CM4F/portmacro.h **** 	(
 2117              		.loc 2 215 0 discriminator 1
 2118              	@ 215 "/home/houxd/workspaceS32DS.ARM.V20/dp1000/FreeRTOS/include/../../FreeRTOS/include/../../Free
 2119 0012 4FF00703 			mov r3, #7												
 2120 0016 83F31188 		msr basepri, r3											
 2121 001a BFF36F8F 		isb														
 2122 001e BFF34F8F 		dsb														
 2123              	
 2124              	@ 0 "" 2
 2125              		.thumb
 2126 0022 7B60     		str	r3, [r7, #4]
 2127              	.L140:
 2128              	.LBE144:
 2129              	.LBE143:
 2130              		.loc 1 1678 0 discriminator 1
 2131 0024 FEE7     		b	.L140
 2132              	.L139:
1679:../FreeRTOS/tasks.c **** 
1680:../FreeRTOS/tasks.c **** 	/* It is possible that an ISR caused a task to be removed from an event
1681:../FreeRTOS/tasks.c **** 	list while the scheduler was suspended.  If this was the case then the
1682:../FreeRTOS/tasks.c **** 	removed task will have been added to the xPendingReadyList.  Once the
1683:../FreeRTOS/tasks.c **** 	scheduler has been resumed it is safe to move all the pending ready
1684:../FreeRTOS/tasks.c **** 	tasks from this list into their appropriate ready list. */
1685:../FreeRTOS/tasks.c **** 	taskENTER_CRITICAL();
 2133              		.loc 1 1685 0
 2134 0026 FFF7FEFF 		bl	vPortEnterCritical
1686:../FreeRTOS/tasks.c **** 	{
1687:../FreeRTOS/tasks.c **** 		--uxSchedulerSuspended;
 2135              		.loc 1 1687 0
 2136 002a 314B     		ldr	r3, .L149
 2137 002c 1B68     		ldr	r3, [r3]
 2138 002e 013B     		subs	r3, r3, #1
 2139 0030 2F4A     		ldr	r2, .L149
 2140 0032 1360     		str	r3, [r2]
1688:../FreeRTOS/tasks.c **** 
1689:../FreeRTOS/tasks.c **** 		if( uxSchedulerSuspended == ( UBaseType_t ) pdFALSE )
 2141              		.loc 1 1689 0
 2142 0034 2E4B     		ldr	r3, .L149
 2143 0036 1B68     		ldr	r3, [r3]
 2144 0038 002B     		cmp	r3, #0
 2145 003a 51D1     		bne	.L141
1690:../FreeRTOS/tasks.c **** 		{
1691:../FreeRTOS/tasks.c **** 			if( uxCurrentNumberOfTasks > ( UBaseType_t ) 0U )
 2146              		.loc 1 1691 0
 2147 003c 2D4B     		ldr	r3, .L149+4
 2148 003e 1B68     		ldr	r3, [r3]
 2149 0040 002B     		cmp	r3, #0
 2150 0042 4DD0     		beq	.L141
1692:../FreeRTOS/tasks.c **** 			{
1693:../FreeRTOS/tasks.c **** 				/* Move any readied tasks from the pending list into the
1694:../FreeRTOS/tasks.c **** 				appropriate ready list. */
1695:../FreeRTOS/tasks.c **** 				while( listLIST_IS_EMPTY( &xPendingReadyList ) == pdFALSE )
 2151              		.loc 1 1695 0
 2152 0044 30E0     		b	.L142
 2153              	.L143:
1696:../FreeRTOS/tasks.c **** 				{
1697:../FreeRTOS/tasks.c **** 					pxTCB = ( TCB_t * ) listGET_OWNER_OF_HEAD_ENTRY( ( &xPendingReadyList ) );
 2154              		.loc 1 1697 0
 2155 0046 2C4B     		ldr	r3, .L149+8
 2156 0048 DB68     		ldr	r3, [r3, #12]
 2157 004a DB68     		ldr	r3, [r3, #12]
 2158 004c BB60     		str	r3, [r7, #8]
1698:../FreeRTOS/tasks.c **** 					( void ) uxListRemove( &( pxTCB->xEventListItem ) );
 2159              		.loc 1 1698 0
 2160 004e BB68     		ldr	r3, [r7, #8]
 2161 0050 1833     		adds	r3, r3, #24
 2162 0052 1846     		mov	r0, r3
 2163 0054 FFF7FEFF 		bl	uxListRemove
1699:../FreeRTOS/tasks.c **** 					( void ) uxListRemove( &( pxTCB->xGenericListItem ) );
 2164              		.loc 1 1699 0
 2165 0058 BB68     		ldr	r3, [r7, #8]
 2166 005a 0433     		adds	r3, r3, #4
 2167 005c 1846     		mov	r0, r3
 2168 005e FFF7FEFF 		bl	uxListRemove
1700:../FreeRTOS/tasks.c **** 					prvAddTaskToReadyList( pxTCB );
 2169              		.loc 1 1700 0
 2170 0062 BB68     		ldr	r3, [r7, #8]
 2171 0064 DB6A     		ldr	r3, [r3, #44]
 2172 0066 1A46     		mov	r2, r3
 2173 0068 0123     		movs	r3, #1
 2174 006a 03FA02F2 		lsl	r2, r3, r2
 2175 006e 234B     		ldr	r3, .L149+12
 2176 0070 1B68     		ldr	r3, [r3]
 2177 0072 1343     		orrs	r3, r3, r2
 2178 0074 214A     		ldr	r2, .L149+12
 2179 0076 1360     		str	r3, [r2]
 2180 0078 BB68     		ldr	r3, [r7, #8]
 2181 007a DA6A     		ldr	r2, [r3, #44]
 2182 007c 1346     		mov	r3, r2
 2183 007e 9B00     		lsls	r3, r3, #2
 2184 0080 1344     		add	r3, r3, r2
 2185 0082 9B00     		lsls	r3, r3, #2
 2186 0084 1E4A     		ldr	r2, .L149+16
 2187 0086 1A44     		add	r2, r2, r3
 2188 0088 BB68     		ldr	r3, [r7, #8]
 2189 008a 0433     		adds	r3, r3, #4
 2190 008c 1046     		mov	r0, r2
 2191 008e 1946     		mov	r1, r3
 2192 0090 FFF7FEFF 		bl	vListInsertEnd
1701:../FreeRTOS/tasks.c **** 
1702:../FreeRTOS/tasks.c **** 					/* If the moved task has a priority higher than the current
1703:../FreeRTOS/tasks.c **** 					task then a yield must be performed. */
1704:../FreeRTOS/tasks.c **** 					if( pxTCB->uxPriority >= pxCurrentTCB->uxPriority )
 2193              		.loc 1 1704 0
 2194 0094 BB68     		ldr	r3, [r7, #8]
 2195 0096 DA6A     		ldr	r2, [r3, #44]
 2196 0098 1A4B     		ldr	r3, .L149+20
 2197 009a 1B68     		ldr	r3, [r3]
 2198 009c DB6A     		ldr	r3, [r3, #44]
 2199 009e 9A42     		cmp	r2, r3
 2200 00a0 02D3     		bcc	.L142
1705:../FreeRTOS/tasks.c **** 					{
1706:../FreeRTOS/tasks.c **** 						xYieldPending = pdTRUE;
 2201              		.loc 1 1706 0
 2202 00a2 194B     		ldr	r3, .L149+24
 2203 00a4 0122     		movs	r2, #1
 2204 00a6 1A60     		str	r2, [r3]
 2205              	.L142:
1695:../FreeRTOS/tasks.c **** 				{
 2206              		.loc 1 1695 0
 2207 00a8 134B     		ldr	r3, .L149+8
 2208 00aa 1B68     		ldr	r3, [r3]
 2209 00ac 002B     		cmp	r3, #0
 2210 00ae CAD1     		bne	.L143
1707:../FreeRTOS/tasks.c **** 					}
1708:../FreeRTOS/tasks.c **** 					else
1709:../FreeRTOS/tasks.c **** 					{
1710:../FreeRTOS/tasks.c **** 						mtCOVERAGE_TEST_MARKER();
1711:../FreeRTOS/tasks.c **** 					}
1712:../FreeRTOS/tasks.c **** 				}
1713:../FreeRTOS/tasks.c **** 
1714:../FreeRTOS/tasks.c **** 				/* If any ticks occurred while the scheduler was suspended then
1715:../FreeRTOS/tasks.c **** 				they should be processed now.  This ensures the tick count does
1716:../FreeRTOS/tasks.c **** 				not	slip, and that any delayed tasks are resumed at the correct
1717:../FreeRTOS/tasks.c **** 				time. */
1718:../FreeRTOS/tasks.c **** 				if( uxPendedTicks > ( UBaseType_t ) 0U )
 2211              		.loc 1 1718 0
 2212 00b0 164B     		ldr	r3, .L149+28
 2213 00b2 1B68     		ldr	r3, [r3]
 2214 00b4 002B     		cmp	r3, #0
 2215 00b6 11D0     		beq	.L144
1719:../FreeRTOS/tasks.c **** 				{
1720:../FreeRTOS/tasks.c **** 					while( uxPendedTicks > ( UBaseType_t ) 0U )
 2216              		.loc 1 1720 0
 2217 00b8 0CE0     		b	.L145
 2218              	.L147:
1721:../FreeRTOS/tasks.c **** 					{
1722:../FreeRTOS/tasks.c **** 						if( xTaskIncrementTick() != pdFALSE )
 2219              		.loc 1 1722 0
 2220 00ba FFF7FEFF 		bl	xTaskIncrementTick
 2221 00be 0346     		mov	r3, r0
 2222 00c0 002B     		cmp	r3, #0
 2223 00c2 02D0     		beq	.L146
1723:../FreeRTOS/tasks.c **** 						{
1724:../FreeRTOS/tasks.c **** 							xYieldPending = pdTRUE;
 2224              		.loc 1 1724 0
 2225 00c4 104B     		ldr	r3, .L149+24
 2226 00c6 0122     		movs	r2, #1
 2227 00c8 1A60     		str	r2, [r3]
 2228              	.L146:
1725:../FreeRTOS/tasks.c **** 						}
1726:../FreeRTOS/tasks.c **** 						else
1727:../FreeRTOS/tasks.c **** 						{
1728:../FreeRTOS/tasks.c **** 							mtCOVERAGE_TEST_MARKER();
1729:../FreeRTOS/tasks.c **** 						}
1730:../FreeRTOS/tasks.c **** 						--uxPendedTicks;
 2229              		.loc 1 1730 0
 2230 00ca 104B     		ldr	r3, .L149+28
 2231 00cc 1B68     		ldr	r3, [r3]
 2232 00ce 013B     		subs	r3, r3, #1
 2233 00d0 0E4A     		ldr	r2, .L149+28
 2234 00d2 1360     		str	r3, [r2]
 2235              	.L145:
1720:../FreeRTOS/tasks.c **** 					{
 2236              		.loc 1 1720 0
 2237 00d4 0D4B     		ldr	r3, .L149+28
 2238 00d6 1B68     		ldr	r3, [r3]
 2239 00d8 002B     		cmp	r3, #0
 2240 00da EED1     		bne	.L147
 2241              	.L144:
1731:../FreeRTOS/tasks.c **** 					}
1732:../FreeRTOS/tasks.c **** 				}
1733:../FreeRTOS/tasks.c **** 				else
1734:../FreeRTOS/tasks.c **** 				{
1735:../FreeRTOS/tasks.c **** 					mtCOVERAGE_TEST_MARKER();
1736:../FreeRTOS/tasks.c **** 				}
1737:../FreeRTOS/tasks.c **** 
1738:../FreeRTOS/tasks.c **** 				if( xYieldPending == pdTRUE )
 2242              		.loc 1 1738 0
 2243 00dc 0A4B     		ldr	r3, .L149+24
 2244 00de 1B68     		ldr	r3, [r3]
 2245              	.L141:
1739:../FreeRTOS/tasks.c **** 				{
1740:../FreeRTOS/tasks.c **** 					#if( configUSE_PREEMPTION != 0 )
1741:../FreeRTOS/tasks.c **** 					{
1742:../FreeRTOS/tasks.c **** 						xAlreadyYielded = pdTRUE;
1743:../FreeRTOS/tasks.c **** 					}
1744:../FreeRTOS/tasks.c **** 					#endif
1745:../FreeRTOS/tasks.c **** 					taskYIELD_IF_USING_PREEMPTION();
1746:../FreeRTOS/tasks.c **** 				}
1747:../FreeRTOS/tasks.c **** 				else
1748:../FreeRTOS/tasks.c **** 				{
1749:../FreeRTOS/tasks.c **** 					mtCOVERAGE_TEST_MARKER();
1750:../FreeRTOS/tasks.c **** 				}
1751:../FreeRTOS/tasks.c **** 			}
1752:../FreeRTOS/tasks.c **** 		}
1753:../FreeRTOS/tasks.c **** 		else
1754:../FreeRTOS/tasks.c **** 		{
1755:../FreeRTOS/tasks.c **** 			mtCOVERAGE_TEST_MARKER();
1756:../FreeRTOS/tasks.c **** 		}
1757:../FreeRTOS/tasks.c **** 	}
1758:../FreeRTOS/tasks.c **** 	taskEXIT_CRITICAL();
 2246              		.loc 1 1758 0
 2247 00e0 FFF7FEFF 		bl	vPortExitCritical
1759:../FreeRTOS/tasks.c **** 
1760:../FreeRTOS/tasks.c **** 	return xAlreadyYielded;
 2248              		.loc 1 1760 0
 2249 00e4 FB68     		ldr	r3, [r7, #12]
1761:../FreeRTOS/tasks.c **** }
 2250              		.loc 1 1761 0
 2251 00e6 1846     		mov	r0, r3
 2252 00e8 1037     		adds	r7, r7, #16
 2253              		.cfi_def_cfa_offset 8
 2254 00ea BD46     		mov	sp, r7
 2255              		.cfi_def_cfa_register 13
 2256              		@ sp needed
 2257 00ec 80BD     		pop	{r7, pc}
 2258              	.L150:
 2259 00ee 00BF     		.align	2
 2260              	.L149:
 2261 00f0 00000000 		.word	uxSchedulerSuspended
 2262 00f4 00000000 		.word	uxCurrentNumberOfTasks
 2263 00f8 00000000 		.word	xPendingReadyList
 2264 00fc 00000000 		.word	uxTopReadyPriority
 2265 0100 00000000 		.word	pxReadyTasksLists
 2266 0104 00000000 		.word	pxCurrentTCB
 2267 0108 00000000 		.word	xYieldPending
 2268 010c 00000000 		.word	uxPendedTicks
 2269              		.cfi_endproc
 2270              	.LFE18:
 2272              		.section	.text.xTaskGetTickCount,"ax",%progbits
 2273              		.align	2
 2274              		.global	xTaskGetTickCount
 2275              		.thumb
 2276              		.thumb_func
 2278              	xTaskGetTickCount:
 2279              	.LFB19:
1762:../FreeRTOS/tasks.c **** /*-----------------------------------------------------------*/
1763:../FreeRTOS/tasks.c **** 
1764:../FreeRTOS/tasks.c **** TickType_t xTaskGetTickCount( void )
1765:../FreeRTOS/tasks.c **** {
 2280              		.loc 1 1765 0
 2281              		.cfi_startproc
 2282              		@ args = 0, pretend = 0, frame = 8
 2283              		@ frame_needed = 1, uses_anonymous_args = 0
 2284              		@ link register save eliminated.
 2285 0000 80B4     		push	{r7}
 2286              		.cfi_def_cfa_offset 4
 2287              		.cfi_offset 7, -4
 2288 0002 83B0     		sub	sp, sp, #12
 2289              		.cfi_def_cfa_offset 16
 2290 0004 00AF     		add	r7, sp, #0
 2291              		.cfi_def_cfa_register 7
1766:../FreeRTOS/tasks.c **** TickType_t xTicks;
1767:../FreeRTOS/tasks.c **** 
1768:../FreeRTOS/tasks.c **** 	/* Critical section required if running on a 16 bit processor. */
1769:../FreeRTOS/tasks.c **** 	portTICK_TYPE_ENTER_CRITICAL();
1770:../FreeRTOS/tasks.c **** 	{
1771:../FreeRTOS/tasks.c **** 		xTicks = xTickCount;
 2292              		.loc 1 1771 0
 2293 0006 054B     		ldr	r3, .L153
 2294 0008 1B68     		ldr	r3, [r3]
 2295 000a 7B60     		str	r3, [r7, #4]
1772:../FreeRTOS/tasks.c **** 	}
1773:../FreeRTOS/tasks.c **** 	portTICK_TYPE_EXIT_CRITICAL();
1774:../FreeRTOS/tasks.c **** 
1775:../FreeRTOS/tasks.c **** 	return xTicks;
 2296              		.loc 1 1775 0
 2297 000c 7B68     		ldr	r3, [r7, #4]
1776:../FreeRTOS/tasks.c **** }
 2298              		.loc 1 1776 0
 2299 000e 1846     		mov	r0, r3
 2300 0010 0C37     		adds	r7, r7, #12
 2301              		.cfi_def_cfa_offset 4
 2302 0012 BD46     		mov	sp, r7
 2303              		.cfi_def_cfa_register 13
 2304              		@ sp needed
 2305 0014 5DF8047B 		ldr	r7, [sp], #4
 2306              		.cfi_restore 7
 2307              		.cfi_def_cfa_offset 0
 2308 0018 7047     		bx	lr
 2309              	.L154:
 2310 001a 00BF     		.align	2
 2311              	.L153:
 2312 001c 00000000 		.word	xTickCount
 2313              		.cfi_endproc
 2314              	.LFE19:
 2316              		.section	.text.xTaskGetTickCountFromISR,"ax",%progbits
 2317              		.align	2
 2318              		.global	xTaskGetTickCountFromISR
 2319              		.thumb
 2320              		.thumb_func
 2322              	xTaskGetTickCountFromISR:
 2323              	.LFB20:
1777:../FreeRTOS/tasks.c **** /*-----------------------------------------------------------*/
1778:../FreeRTOS/tasks.c **** 
1779:../FreeRTOS/tasks.c **** TickType_t xTaskGetTickCountFromISR( void )
1780:../FreeRTOS/tasks.c **** {
 2324              		.loc 1 1780 0
 2325              		.cfi_startproc
 2326              		@ args = 0, pretend = 0, frame = 8
 2327              		@ frame_needed = 1, uses_anonymous_args = 0
 2328 0000 80B5     		push	{r7, lr}
 2329              		.cfi_def_cfa_offset 8
 2330              		.cfi_offset 7, -8
 2331              		.cfi_offset 14, -4
 2332 0002 82B0     		sub	sp, sp, #8
 2333              		.cfi_def_cfa_offset 16
 2334 0004 00AF     		add	r7, sp, #0
 2335              		.cfi_def_cfa_register 7
1781:../FreeRTOS/tasks.c **** TickType_t xReturn;
1782:../FreeRTOS/tasks.c **** UBaseType_t uxSavedInterruptStatus;
1783:../FreeRTOS/tasks.c **** 
1784:../FreeRTOS/tasks.c **** 	/* RTOS ports that support interrupt nesting have the concept of a maximum
1785:../FreeRTOS/tasks.c **** 	system call (or maximum API call) interrupt priority.  Interrupts that are
1786:../FreeRTOS/tasks.c **** 	above the maximum system call priority are kept permanently enabled, even
1787:../FreeRTOS/tasks.c **** 	when the RTOS kernel is in a critical section, but cannot make any calls to
1788:../FreeRTOS/tasks.c **** 	FreeRTOS API functions.  If configASSERT() is defined in FreeRTOSConfig.h
1789:../FreeRTOS/tasks.c **** 	then portASSERT_IF_INTERRUPT_PRIORITY_INVALID() will result in an assertion
1790:../FreeRTOS/tasks.c **** 	failure if a FreeRTOS API function is called from an interrupt that has been
1791:../FreeRTOS/tasks.c **** 	assigned a priority above the configured maximum system call priority.
1792:../FreeRTOS/tasks.c **** 	Only FreeRTOS functions that end in FromISR can be called from interrupts
1793:../FreeRTOS/tasks.c **** 	that have been assigned a priority at or (logically) below the maximum
1794:../FreeRTOS/tasks.c **** 	system call	interrupt priority.  FreeRTOS maintains a separate interrupt
1795:../FreeRTOS/tasks.c **** 	safe API to ensure interrupt entry is as fast and as simple as possible.
1796:../FreeRTOS/tasks.c **** 	More information (albeit Cortex-M specific) is provided on the following
1797:../FreeRTOS/tasks.c **** 	link: http://www.freertos.org/RTOS-Cortex-M3-M4.html */
1798:../FreeRTOS/tasks.c **** 	portASSERT_IF_INTERRUPT_PRIORITY_INVALID();
 2336              		.loc 1 1798 0
 2337 0006 FFF7FEFF 		bl	vPortValidateInterruptPriority
1799:../FreeRTOS/tasks.c **** 
1800:../FreeRTOS/tasks.c **** 	uxSavedInterruptStatus = portTICK_TYPE_SET_INTERRUPT_MASK_FROM_ISR();
 2338              		.loc 1 1800 0
 2339 000a 0023     		movs	r3, #0
 2340 000c 7B60     		str	r3, [r7, #4]
1801:../FreeRTOS/tasks.c **** 	{
1802:../FreeRTOS/tasks.c **** 		xReturn = xTickCount;
 2341              		.loc 1 1802 0
 2342 000e 044B     		ldr	r3, .L157
 2343 0010 1B68     		ldr	r3, [r3]
 2344 0012 3B60     		str	r3, [r7]
1803:../FreeRTOS/tasks.c **** 	}
1804:../FreeRTOS/tasks.c **** 	portTICK_TYPE_CLEAR_INTERRUPT_MASK_FROM_ISR( uxSavedInterruptStatus );
1805:../FreeRTOS/tasks.c **** 
1806:../FreeRTOS/tasks.c **** 	return xReturn;
 2345              		.loc 1 1806 0
 2346 0014 3B68     		ldr	r3, [r7]
1807:../FreeRTOS/tasks.c **** }
 2347              		.loc 1 1807 0
 2348 0016 1846     		mov	r0, r3
 2349 0018 0837     		adds	r7, r7, #8
 2350              		.cfi_def_cfa_offset 8
 2351 001a BD46     		mov	sp, r7
 2352              		.cfi_def_cfa_register 13
 2353              		@ sp needed
 2354 001c 80BD     		pop	{r7, pc}
 2355              	.L158:
 2356 001e 00BF     		.align	2
 2357              	.L157:
 2358 0020 00000000 		.word	xTickCount
 2359              		.cfi_endproc
 2360              	.LFE20:
 2362              		.section	.text.uxTaskGetNumberOfTasks,"ax",%progbits
 2363              		.align	2
 2364              		.global	uxTaskGetNumberOfTasks
 2365              		.thumb
 2366              		.thumb_func
 2368              	uxTaskGetNumberOfTasks:
 2369              	.LFB21:
1808:../FreeRTOS/tasks.c **** /*-----------------------------------------------------------*/
1809:../FreeRTOS/tasks.c **** 
1810:../FreeRTOS/tasks.c **** UBaseType_t uxTaskGetNumberOfTasks( void )
1811:../FreeRTOS/tasks.c **** {
 2370              		.loc 1 1811 0
 2371              		.cfi_startproc
 2372              		@ args = 0, pretend = 0, frame = 0
 2373              		@ frame_needed = 1, uses_anonymous_args = 0
 2374              		@ link register save eliminated.
 2375 0000 80B4     		push	{r7}
 2376              		.cfi_def_cfa_offset 4
 2377              		.cfi_offset 7, -4
 2378 0002 00AF     		add	r7, sp, #0
 2379              		.cfi_def_cfa_register 7
1812:../FreeRTOS/tasks.c **** 	/* A critical section is not required because the variables are of type
1813:../FreeRTOS/tasks.c **** 	BaseType_t. */
1814:../FreeRTOS/tasks.c **** 	return uxCurrentNumberOfTasks;
 2380              		.loc 1 1814 0
 2381 0004 034B     		ldr	r3, .L161
 2382 0006 1B68     		ldr	r3, [r3]
1815:../FreeRTOS/tasks.c **** }
 2383              		.loc 1 1815 0
 2384 0008 1846     		mov	r0, r3
 2385 000a BD46     		mov	sp, r7
 2386              		.cfi_def_cfa_register 13
 2387              		@ sp needed
 2388 000c 5DF8047B 		ldr	r7, [sp], #4
 2389              		.cfi_restore 7
 2390              		.cfi_def_cfa_offset 0
 2391 0010 7047     		bx	lr
 2392              	.L162:
 2393 0012 00BF     		.align	2
 2394              	.L161:
 2395 0014 00000000 		.word	uxCurrentNumberOfTasks
 2396              		.cfi_endproc
 2397              	.LFE21:
 2399              		.section	.text.pcTaskGetTaskName,"ax",%progbits
 2400              		.align	2
 2401              		.global	pcTaskGetTaskName
 2402              		.thumb
 2403              		.thumb_func
 2405              	pcTaskGetTaskName:
 2406              	.LFB22:
1816:../FreeRTOS/tasks.c **** /*-----------------------------------------------------------*/
1817:../FreeRTOS/tasks.c **** 
1818:../FreeRTOS/tasks.c **** #if ( INCLUDE_pcTaskGetTaskName == 1 )
1819:../FreeRTOS/tasks.c **** 
1820:../FreeRTOS/tasks.c **** 	char *pcTaskGetTaskName( TaskHandle_t xTaskToQuery ) /*lint !e971 Unqualified char types are allow
1821:../FreeRTOS/tasks.c **** 	{
 2407              		.loc 1 1821 0
 2408              		.cfi_startproc
 2409              		@ args = 0, pretend = 0, frame = 16
 2410              		@ frame_needed = 1, uses_anonymous_args = 0
 2411              		@ link register save eliminated.
 2412 0000 80B4     		push	{r7}
 2413              		.cfi_def_cfa_offset 4
 2414              		.cfi_offset 7, -4
 2415 0002 85B0     		sub	sp, sp, #20
 2416              		.cfi_def_cfa_offset 24
 2417 0004 00AF     		add	r7, sp, #0
 2418              		.cfi_def_cfa_register 7
 2419 0006 7860     		str	r0, [r7, #4]
1822:../FreeRTOS/tasks.c **** 	TCB_t *pxTCB;
1823:../FreeRTOS/tasks.c **** 
1824:../FreeRTOS/tasks.c **** 		/* If null is passed in here then the name of the calling task is being queried. */
1825:../FreeRTOS/tasks.c **** 		pxTCB = prvGetTCBFromHandle( xTaskToQuery );
 2420              		.loc 1 1825 0
 2421 0008 7B68     		ldr	r3, [r7, #4]
 2422 000a 002B     		cmp	r3, #0
 2423 000c 02D1     		bne	.L164
 2424              		.loc 1 1825 0 is_stmt 0 discriminator 1
 2425 000e 0D4B     		ldr	r3, .L169
 2426 0010 1B68     		ldr	r3, [r3]
 2427 0012 00E0     		b	.L165
