   1              		.syntax unified
   2              		.cpu cortex-m4
   3              		.eabi_attribute 27, 1
   4              		.eabi_attribute 28, 1
   5              		.fpu fpv4-sp-d16
   6              		.eabi_attribute 20, 1
   7              		.eabi_attribute 21, 1
   8              		.eabi_attribute 23, 3
   9              		.eabi_attribute 24, 1
  10              		.eabi_attribute 25, 1
  11              		.eabi_attribute 26, 1
  12              		.eabi_attribute 30, 6
  13              		.eabi_attribute 34, 1
  14              		.eabi_attribute 18, 4
  15              		.thumb
  16              		.file	"ff.c"
  17              		.text
  18              	.Ltext0:
  19              		.cfi_sections	.debug_frame
  20              		.comm	fatfs,568,4
  21              		.global	VolToPart
  22              		.section	.data.VolToPart,"aw",%progbits
  23              		.align	2
  26              	VolToPart:
  27 0000 00       		.byte	0
  28 0001 01       		.byte	1
  29 0002 00       		.byte	0
  30 0003 02       		.byte	2
  31              		.section	.bss.FatFs,"aw",%nobits
  32              		.align	2
  35              	FatFs:
  36 0000 00000000 		.space	8
  36      00000000 
  37              		.section	.bss.Fsid,"aw",%nobits
  38              		.align	1
  41              	Fsid:
  42 0000 0000     		.space	2
  43              		.section	.bss.CurrVol,"aw",%nobits
  46              	CurrVol:
  47 0000 00       		.space	1
  48              		.section	.bss.LfnBuf,"aw",%nobits
  49              		.align	2
  52              	LfnBuf:
  53 0000 00000000 		.space	512
  53      00000000 
  53      00000000 
  53      00000000 
  53      00000000 
  54              		.section	.rodata.ExCvt,"a",%progbits
  55              		.align	2
  58              	ExCvt:
  59 0000 80       		.byte	-128
  60 0001 9A       		.byte	-102
  61 0002 90       		.byte	-112
  62 0003 B6       		.byte	-74
  63 0004 8E       		.byte	-114
  64 0005 B7       		.byte	-73
  65 0006 8F       		.byte	-113
  66 0007 80       		.byte	-128
  67 0008 D2       		.byte	-46
  68 0009 D3       		.byte	-45
  69 000a D4       		.byte	-44
  70 000b D8       		.byte	-40
  71 000c D7       		.byte	-41
  72 000d DE       		.byte	-34
  73 000e 8E       		.byte	-114
  74 000f 8F       		.byte	-113
  75 0010 90       		.byte	-112
  76 0011 92       		.byte	-110
  77 0012 92       		.byte	-110
  78 0013 E2       		.byte	-30
  79 0014 99       		.byte	-103
  80 0015 E3       		.byte	-29
  81 0016 EA       		.byte	-22
  82 0017 EB       		.byte	-21
  83 0018 59       		.byte	89
  84 0019 99       		.byte	-103
  85 001a 9A       		.byte	-102
  86 001b 9D       		.byte	-99
  87 001c 9C       		.byte	-100
  88 001d 9D       		.byte	-99
  89 001e 9E       		.byte	-98
  90 001f 9F       		.byte	-97
  91 0020 B5       		.byte	-75
  92 0021 D6       		.byte	-42
  93 0022 E0       		.byte	-32
  94 0023 E9       		.byte	-23
  95 0024 A5       		.byte	-91
  96 0025 A5       		.byte	-91
  97 0026 A6       		.byte	-90
  98 0027 A7       		.byte	-89
  99 0028 A8       		.byte	-88
 100 0029 A9       		.byte	-87
 101 002a AA       		.byte	-86
 102 002b AB       		.byte	-85
 103 002c AC       		.byte	-84
 104 002d 21       		.byte	33
 105 002e AE       		.byte	-82
 106 002f AF       		.byte	-81
 107 0030 B0       		.byte	-80
 108 0031 B1       		.byte	-79
 109 0032 B2       		.byte	-78
 110 0033 B3       		.byte	-77
 111 0034 B4       		.byte	-76
 112 0035 B5       		.byte	-75
 113 0036 B6       		.byte	-74
 114 0037 B7       		.byte	-73
 115 0038 B8       		.byte	-72
 116 0039 B9       		.byte	-71
 117 003a BA       		.byte	-70
 118 003b BB       		.byte	-69
 119 003c BC       		.byte	-68
 120 003d BD       		.byte	-67
 121 003e BE       		.byte	-66
 122 003f BF       		.byte	-65
 123 0040 C0       		.byte	-64
 124 0041 C1       		.byte	-63
 125 0042 C2       		.byte	-62
 126 0043 C3       		.byte	-61
 127 0044 C4       		.byte	-60
 128 0045 C5       		.byte	-59
 129 0046 C7       		.byte	-57
 130 0047 C7       		.byte	-57
 131 0048 C8       		.byte	-56
 132 0049 C9       		.byte	-55
 133 004a CA       		.byte	-54
 134 004b CB       		.byte	-53
 135 004c CC       		.byte	-52
 136 004d CD       		.byte	-51
 137 004e CE       		.byte	-50
 138 004f CF       		.byte	-49
 139 0050 D0       		.byte	-48
 140 0051 D1       		.byte	-47
 141 0052 D2       		.byte	-46
 142 0053 D3       		.byte	-45
 143 0054 D4       		.byte	-44
 144 0055 D5       		.byte	-43
 145 0056 D6       		.byte	-42
 146 0057 D7       		.byte	-41
 147 0058 D8       		.byte	-40
 148 0059 D9       		.byte	-39
 149 005a DA       		.byte	-38
 150 005b DB       		.byte	-37
 151 005c DC       		.byte	-36
 152 005d DD       		.byte	-35
 153 005e DE       		.byte	-34
 154 005f DF       		.byte	-33
 155 0060 E0       		.byte	-32
 156 0061 E1       		.byte	-31
 157 0062 E2       		.byte	-30
 158 0063 E3       		.byte	-29
 159 0064 E5       		.byte	-27
 160 0065 E5       		.byte	-27
 161 0066 E6       		.byte	-26
 162 0067 E7       		.byte	-25
 163 0068 E7       		.byte	-25
 164 0069 E9       		.byte	-23
 165 006a EA       		.byte	-22
 166 006b EB       		.byte	-21
 167 006c ED       		.byte	-19
 168 006d ED       		.byte	-19
 169 006e EE       		.byte	-18
 170 006f EF       		.byte	-17
 171 0070 F0       		.byte	-16
 172 0071 F1       		.byte	-15
 173 0072 F2       		.byte	-14
 174 0073 F3       		.byte	-13
 175 0074 F4       		.byte	-12
 176 0075 F5       		.byte	-11
 177 0076 F6       		.byte	-10
 178 0077 F7       		.byte	-9
 179 0078 F8       		.byte	-8
 180 0079 F9       		.byte	-7
 181 007a FA       		.byte	-6
 182 007b FB       		.byte	-5
 183 007c FC       		.byte	-4
 184 007d FD       		.byte	-3
 185 007e FE       		.byte	-2
 186 007f FF       		.byte	-1
 187              		.section	.text.SD_mount,"ax",%progbits
 188              		.align	2
 189              		.global	SD_mount
 190              		.thumb
 191              		.thumb_func
 193              	SD_mount:
 194              	.LFB0:
 195              		.file 1 "../fatfs/ff.c"
   1:../fatfs/ff.c **** /*----------------------------------------------------------------------------/
   2:../fatfs/ff.c **** /  FatFs - FAT file system module  R0.09b                 (C)ChaN, 2013
   3:../fatfs/ff.c **** /-----------------------------------------------------------------------------/
   4:../fatfs/ff.c **** / FatFs module is a generic FAT file system module for small embedded systems.
   5:../fatfs/ff.c **** / This is a free software that opened for education, research and commercial
   6:../fatfs/ff.c **** / developments under license policy of following terms.
   7:../fatfs/ff.c **** /
   8:../fatfs/ff.c **** /  Copyright (C) 2013, ChaN, all right reserved.
   9:../fatfs/ff.c **** /
  10:../fatfs/ff.c **** / * The FatFs module is a free software and there is NO WARRANTY.
  11:../fatfs/ff.c **** / * No restriction on use. You can use, modify and redistribute it for
  12:../fatfs/ff.c **** /   personal, non-profit or commercial products UNDER YOUR RESPONSIBILITY.
  13:../fatfs/ff.c **** / * Redistributions of source code must retain the above copyright notice.
  14:../fatfs/ff.c **** /
  15:../fatfs/ff.c **** /-----------------------------------------------------------------------------/
  16:../fatfs/ff.c **** / Feb 26,'06 R0.00  Prototype.
  17:../fatfs/ff.c **** /
  18:../fatfs/ff.c **** / Apr 29,'06 R0.01  First stable version.
  19:../fatfs/ff.c **** /
  20:../fatfs/ff.c **** / Jun 01,'06 R0.02  Added FAT12 support.
  21:../fatfs/ff.c **** /                   Removed unbuffered mode.
  22:../fatfs/ff.c **** /                   Fixed a problem on small (<32M) partition.
  23:../fatfs/ff.c **** / Jun 10,'06 R0.02a Added a configuration option (_FS_MINIMUM).
  24:../fatfs/ff.c **** /
  25:../fatfs/ff.c **** / Sep 22,'06 R0.03  Added f_rename().
  26:../fatfs/ff.c **** /                   Changed option _FS_MINIMUM to _FS_MINIMIZE.
  27:../fatfs/ff.c **** / Dec 11,'06 R0.03a Improved cluster scan algorithm to write files fast.
  28:../fatfs/ff.c **** /                   Fixed f_mkdir() creates incorrect directory on FAT32.
  29:../fatfs/ff.c **** /
  30:../fatfs/ff.c **** / Feb 04,'07 R0.04  Supported multiple drive system.
  31:../fatfs/ff.c **** /                   Changed some interfaces for multiple drive system.
  32:../fatfs/ff.c **** /                   Changed f_mountdrv() to f_mount().
  33:../fatfs/ff.c **** /                   Added f_mkfs().
  34:../fatfs/ff.c **** / Apr 01,'07 R0.04a Supported multiple partitions on a physical drive.
  35:../fatfs/ff.c **** /                   Added a capability of extending file size to f_lseek().
  36:../fatfs/ff.c **** /                   Added minimization level 3.
  37:../fatfs/ff.c **** /                   Fixed an endian sensitive code in f_mkfs().
  38:../fatfs/ff.c **** / May 05,'07 R0.04b Added a configuration option _USE_NTFLAG.
  39:../fatfs/ff.c **** /                   Added FSInfo support.
  40:../fatfs/ff.c **** /                   Fixed DBCS name can result FR_INVALID_NAME.
  41:../fatfs/ff.c **** /                   Fixed short seek (<= csize) collapses the file object.
  42:../fatfs/ff.c **** /
  43:../fatfs/ff.c **** / Aug 25,'07 R0.05  Changed arguments of f_read(), f_write() and f_mkfs().
  44:../fatfs/ff.c **** /                   Fixed f_mkfs() on FAT32 creates incorrect FSInfo.
  45:../fatfs/ff.c **** /                   Fixed f_mkdir() on FAT32 creates incorrect directory.
  46:../fatfs/ff.c **** / Feb 03,'08 R0.05a Added f_truncate() and f_utime().
  47:../fatfs/ff.c **** /                   Fixed off by one error at FAT sub-type determination.
  48:../fatfs/ff.c **** /                   Fixed btr in f_read() can be mistruncated.
  49:../fatfs/ff.c **** /                   Fixed cached sector is not flushed when create and close without write.
  50:../fatfs/ff.c **** /
  51:../fatfs/ff.c **** / Apr 01,'08 R0.06  Added fputc(), fputs(), fprintf() and fgets().
  52:../fatfs/ff.c **** /                   Improved performance of f_lseek() on moving to the same or following cluster.
  53:../fatfs/ff.c **** /
  54:../fatfs/ff.c **** / Apr 01,'09 R0.07  Merged Tiny-FatFs as a configuration option. (_FS_TINY)
  55:../fatfs/ff.c **** /                   Added long file name feature.
  56:../fatfs/ff.c **** /                   Added multiple code page feature.
  57:../fatfs/ff.c **** /                   Added re-entrancy for multitask operation.
  58:../fatfs/ff.c **** /                   Added auto cluster size selection to f_mkfs().
  59:../fatfs/ff.c **** /                   Added rewind option to f_readdir().
  60:../fatfs/ff.c **** /                   Changed result code of critical errors.
  61:../fatfs/ff.c **** /                   Renamed string functions to avoid name collision.
  62:../fatfs/ff.c **** / Apr 14,'09 R0.07a Separated out OS dependent code on reentrant cfg.
  63:../fatfs/ff.c **** /                   Added multiple sector size feature.
  64:../fatfs/ff.c **** / Jun 21,'09 R0.07c Fixed f_unlink() can return FR_OK on error.
  65:../fatfs/ff.c **** /                   Fixed wrong cache control in f_lseek().
  66:../fatfs/ff.c **** /                   Added relative path feature.
  67:../fatfs/ff.c **** /                   Added f_chdir() and f_chdrive().
  68:../fatfs/ff.c **** /                   Added proper case conversion to extended char.
  69:../fatfs/ff.c **** / Nov 03,'09 R0.07e Separated out configuration options from ff.h to ffconf.h.
  70:../fatfs/ff.c **** /                   Fixed f_unlink() fails to remove a sub-dir on _FS_RPATH.
  71:../fatfs/ff.c **** /                   Fixed name matching error on the 13 char boundary.
  72:../fatfs/ff.c **** /                   Added a configuration option, _LFN_UNICODE.
  73:../fatfs/ff.c **** /                   Changed f_readdir() to return the SFN with always upper case on non-LFN cfg.
  74:../fatfs/ff.c **** /
  75:../fatfs/ff.c **** / May 15,'10 R0.08  Added a memory configuration option. (_USE_LFN = 3)
  76:../fatfs/ff.c **** /                   Added file lock feature. (_FS_SHARE)
  77:../fatfs/ff.c **** /                   Added fast seek feature. (_USE_FASTSEEK)
  78:../fatfs/ff.c **** /                   Changed some types on the API, XCHAR->TCHAR.
  79:../fatfs/ff.c **** /                   Changed fname member in the FILINFO structure on Unicode cfg.
  80:../fatfs/ff.c **** /                   String functions support UTF-8 encoding files on Unicode cfg.
  81:../fatfs/ff.c **** / Aug 16,'10 R0.08a Added f_getcwd(). (_FS_RPATH = 2)
  82:../fatfs/ff.c **** /                   Added sector erase feature. (_USE_ERASE)
  83:../fatfs/ff.c **** /                   Moved file lock semaphore table from fs object to the bss.
  84:../fatfs/ff.c **** /                   Fixed a wrong directory entry is created on non-LFN cfg when the given name con
  85:../fatfs/ff.c **** /                   Fixed f_mkfs() creates wrong FAT32 volume.
  86:../fatfs/ff.c **** / Jan 15,'11 R0.08b Fast seek feature is also applied to f_read() and f_write().
  87:../fatfs/ff.c **** /                   f_lseek() reports required table size on creating CLMP.
  88:../fatfs/ff.c **** /                   Extended format syntax of f_printf function.
  89:../fatfs/ff.c **** /                   Ignores duplicated directory separators in given path name.
  90:../fatfs/ff.c **** /
  91:../fatfs/ff.c **** / Sep 06,'11 R0.09  f_mkfs() supports multiple partition to finish the multiple partition feature.
  92:../fatfs/ff.c **** /                   Added f_fdisk(). (_MULTI_PARTITION = 2)
  93:../fatfs/ff.c **** / Aug 27,'12 R0.09a Fixed assertion failure due to OS/2 EA on FAT12/16 volume.
  94:../fatfs/ff.c **** /                   Changed f_open() and f_opendir() reject null object pointer to avoid crash.
  95:../fatfs/ff.c **** /                   Changed option name _FS_SHARE to _FS_LOCK.
  96:../fatfs/ff.c **** / Jan 24,'13 R0.09b Added f_setlabel() and f_getlabel(). (_USE_LABEL = 1)
  97:../fatfs/ff.c **** /---------------------------------------------------------------------------*/
  98:../fatfs/ff.c **** 
  99:../fatfs/ff.c **** #include "ff.h"			/* FatFs configurations and declarations */
 100:../fatfs/ff.c **** #include "diskio.h"		/* Declarations of low level disk I/O functions */
 101:../fatfs/ff.c **** 
 102:../fatfs/ff.c **** FATFS 	fatfs[1];
 103:../fatfs/ff.c **** 
 104:../fatfs/ff.c **** PARTITION VolToPart[] = {
 105:../fatfs/ff.c **** 							{0, 1},    /* Logical drive 0 ==> Physical drive 0, 1st partition */
 106:../fatfs/ff.c ****   							{0, 2},    /* Logical drive 1 ==> Physical drive 0, 2nd partition */
 107:../fatfs/ff.c **** //							{0, 3}     /* Logical drive 2 ==> Physical drive 0, 3rd partition */
 108:../fatfs/ff.c **** 						};
 109:../fatfs/ff.c **** /*--------------------------------------------------------------------------
 110:../fatfs/ff.c **** 
 111:../fatfs/ff.c ****    Module Private Definitions
 112:../fatfs/ff.c **** 
 113:../fatfs/ff.c **** ---------------------------------------------------------------------------*/
 114:../fatfs/ff.c **** 
 115:../fatfs/ff.c **** #if _FATFS != 82786	/* Revision ID */
 116:../fatfs/ff.c **** #error Wrong include file (ff.h).
 117:../fatfs/ff.c **** #endif
 118:../fatfs/ff.c **** 
 119:../fatfs/ff.c **** 
 120:../fatfs/ff.c **** /* Definitions on sector size */
 121:../fatfs/ff.c **** #if _MAX_SS != 512 && _MAX_SS != 1024 && _MAX_SS != 2048 && _MAX_SS != 4096
 122:../fatfs/ff.c **** #error Wrong sector size.
 123:../fatfs/ff.c **** #endif
 124:../fatfs/ff.c **** #if _MAX_SS != 512
 125:../fatfs/ff.c **** #define	SS(fs)	((fs)->ssize)	/* Variable sector size */
 126:../fatfs/ff.c **** #else
 127:../fatfs/ff.c **** #define	SS(fs)	512U			/* Fixed sector size */
 128:../fatfs/ff.c **** #endif
 129:../fatfs/ff.c **** 
 130:../fatfs/ff.c **** 
 131:../fatfs/ff.c **** /* Reentrancy related */
 132:../fatfs/ff.c **** #if _FS_REENTRANT
 133:../fatfs/ff.c **** #if _USE_LFN == 1
 134:../fatfs/ff.c **** #error Static LFN work area must not be used in re-entrant configuration.
 135:../fatfs/ff.c **** #endif
 136:../fatfs/ff.c **** #define	ENTER_FF(fs)		{ if (!lock_fs(fs)) return FR_TIMEOUT; }
 137:../fatfs/ff.c **** #define	LEAVE_FF(fs, res)	{ unlock_fs(fs, res); return res; }
 138:../fatfs/ff.c **** #else
 139:../fatfs/ff.c **** #define	ENTER_FF(fs)
 140:../fatfs/ff.c **** #define LEAVE_FF(fs, res)	return res
 141:../fatfs/ff.c **** #endif
 142:../fatfs/ff.c **** 
 143:../fatfs/ff.c **** #define	ABORT(fs, res)		{ fp->flag |= FA__ERROR; LEAVE_FF(fs, res); }
 144:../fatfs/ff.c **** 
 145:../fatfs/ff.c **** 
 146:../fatfs/ff.c **** /* File access control feature */
 147:../fatfs/ff.c **** #if _FS_LOCK
 148:../fatfs/ff.c **** #if _FS_READONLY
 149:../fatfs/ff.c **** #error _FS_LOCK must be 0 on read-only cfg.
 150:../fatfs/ff.c **** #endif
 151:../fatfs/ff.c **** typedef struct {
 152:../fatfs/ff.c **** 	FATFS *fatfs;				/* File ID 1, volume (NULL:blank entry) */
 153:../fatfs/ff.c **** 	DWORD clu;				/* File ID 2, directory */
 154:../fatfs/ff.c **** 	WORD idx;				/* File ID 3, directory index */
 155:../fatfs/ff.c **** 	WORD ctr;				/* File open counter, 0:none, 0x01..0xFF:read open count, 0x100:write mode */
 156:../fatfs/ff.c **** } FILESEM;
 157:../fatfs/ff.c **** #endif
 158:../fatfs/ff.c **** 
 159:../fatfs/ff.c **** 
 160:../fatfs/ff.c **** 
 161:../fatfs/ff.c **** /* DBCS code ranges and SBCS extend char conversion table */
 162:../fatfs/ff.c **** 
 163:../fatfs/ff.c **** #if _CODE_PAGE == 932	/* Japanese Shift-JIS */
 164:../fatfs/ff.c **** #define _DF1S	0x81	/* DBC 1st byte range 1 start */
 165:../fatfs/ff.c **** #define _DF1E	0x9F	/* DBC 1st byte range 1 end */
 166:../fatfs/ff.c **** #define _DF2S	0xE0	/* DBC 1st byte range 2 start */
 167:../fatfs/ff.c **** #define _DF2E	0xFC	/* DBC 1st byte range 2 end */
 168:../fatfs/ff.c **** #define _DS1S	0x40	/* DBC 2nd byte range 1 start */
 169:../fatfs/ff.c **** #define _DS1E	0x7E	/* DBC 2nd byte range 1 end */
 170:../fatfs/ff.c **** #define _DS2S	0x80	/* DBC 2nd byte range 2 start */
 171:../fatfs/ff.c **** #define _DS2E	0xFC	/* DBC 2nd byte range 2 end */
 172:../fatfs/ff.c **** 
 173:../fatfs/ff.c **** #elif _CODE_PAGE == 936	/* Simplified Chinese GBK */
 174:../fatfs/ff.c **** #define _DF1S	0x81
 175:../fatfs/ff.c **** #define _DF1E	0xFE
 176:../fatfs/ff.c **** #define _DS1S	0x40
 177:../fatfs/ff.c **** #define _DS1E	0x7E
 178:../fatfs/ff.c **** #define _DS2S	0x80
 179:../fatfs/ff.c **** #define _DS2E	0xFE
 180:../fatfs/ff.c **** 
 181:../fatfs/ff.c **** #elif _CODE_PAGE == 949	/* Korean */
 182:../fatfs/ff.c **** #define _DF1S	0x81
 183:../fatfs/ff.c **** #define _DF1E	0xFE
 184:../fatfs/ff.c **** #define _DS1S	0x41
 185:../fatfs/ff.c **** #define _DS1E	0x5A
 186:../fatfs/ff.c **** #define _DS2S	0x61
 187:../fatfs/ff.c **** #define _DS2E	0x7A
 188:../fatfs/ff.c **** #define _DS3S	0x81
 189:../fatfs/ff.c **** #define _DS3E	0xFE
 190:../fatfs/ff.c **** 
 191:../fatfs/ff.c **** #elif _CODE_PAGE == 950	/* Traditional Chinese Big5 */
 192:../fatfs/ff.c **** #define _DF1S	0x81
 193:../fatfs/ff.c **** #define _DF1E	0xFE
 194:../fatfs/ff.c **** #define _DS1S	0x40
 195:../fatfs/ff.c **** #define _DS1E	0x7E
 196:../fatfs/ff.c **** #define _DS2S	0xA1
 197:../fatfs/ff.c **** #define _DS2E	0xFE
 198:../fatfs/ff.c **** 
 199:../fatfs/ff.c **** #elif _CODE_PAGE == 437	/* U.S. (OEM) */
 200:../fatfs/ff.c **** #define _DF1S	0
 201:../fatfs/ff.c **** #define _EXCVT {0x80,0x9A,0x90,0x41,0x8E,0x41,0x8F,0x80,0x45,0x45,0x45,0x49,0x49,0x49,0x8E,0x8F,0x9
 202:../fatfs/ff.c **** 				0x41,0x49,0x4F,0x55,0xA5,0xA5,0xA6,0xA7,0xA8,0xA9,0xAA,0xAB,0xAC,0x21,0xAE,0xAF,0xB0,0xB1,0xB2,
 203:../fatfs/ff.c **** 				0xC0,0xC1,0xC2,0xC3,0xC4,0xC5,0xC6,0xC7,0xC8,0xC9,0xCA,0xCB,0xCC,0xCD,0xCE,0xCF,0xD0,0xD1,0xD2,
 204:../fatfs/ff.c **** 				0xE0,0xE1,0xE2,0xE3,0xE4,0xE5,0xE6,0xE7,0xE8,0xE9,0xEA,0xEB,0xEC,0xED,0xEE,0xEF,0xF0,0xF1,0xF2,
 205:../fatfs/ff.c **** 
 206:../fatfs/ff.c **** #elif _CODE_PAGE == 720	/* Arabic (OEM) */
 207:../fatfs/ff.c **** #define _DF1S	0
 208:../fatfs/ff.c **** #define _EXCVT {0x80,0x81,0x45,0x41,0x84,0x41,0x86,0x43,0x45,0x45,0x45,0x49,0x49,0x8D,0x8E,0x8F,0x9
 209:../fatfs/ff.c **** 				0xA0,0xA1,0xA2,0xA3,0xA4,0xA5,0xA6,0xA7,0xA8,0xA9,0xAA,0xAB,0xAC,0xAD,0xAE,0xAF,0xB0,0xB1,0xB2,
 210:../fatfs/ff.c **** 				0xC0,0xC1,0xC2,0xC3,0xC4,0xC5,0xC6,0xC7,0xC8,0xC9,0xCA,0xCB,0xCC,0xCD,0xCE,0xCF,0xD0,0xD1,0xD2,
 211:../fatfs/ff.c **** 				0xE0,0xE1,0xE2,0xE3,0xE4,0xE5,0xE6,0xE7,0xE8,0xE9,0xEA,0xEB,0xEC,0xED,0xEE,0xEF,0xF0,0xF1,0xF2,
 212:../fatfs/ff.c **** 
 213:../fatfs/ff.c **** #elif _CODE_PAGE == 737	/* Greek (OEM) */
 214:../fatfs/ff.c **** #define _DF1S	0
 215:../fatfs/ff.c **** #define _EXCVT {0x80,0x81,0x82,0x83,0x84,0x85,0x86,0x87,0x88,0x89,0x8A,0x8B,0x8C,0x8D,0x8E,0x8F,0x9
 216:../fatfs/ff.c **** 				0x88,0x89,0x8A,0x8B,0x8C,0x8D,0x8E,0x8F,0x90,0x91,0xAA,0x92,0x93,0x94,0x95,0x96,0xB0,0xB1,0xB2,
 217:../fatfs/ff.c **** 				0xC0,0xC1,0xC2,0xC3,0xC4,0xC5,0xC6,0xC7,0xC8,0xC9,0xCA,0xCB,0xCC,0xCD,0xCE,0xCF,0xD0,0xD1,0xD2,
 218:../fatfs/ff.c **** 				0x97,0xEA,0xEB,0xEC,0xE4,0xED,0xEE,0xE7,0xE8,0xF1,0xEA,0xEB,0xEC,0xED,0xEE,0xEF,0xF0,0xF1,0xF2,
 219:../fatfs/ff.c **** 
 220:../fatfs/ff.c **** #elif _CODE_PAGE == 775	/* Baltic (OEM) */
 221:../fatfs/ff.c **** #define _DF1S	0
 222:../fatfs/ff.c **** #define _EXCVT {0x80,0x9A,0x91,0xA0,0x8E,0x95,0x8F,0x80,0xAD,0xED,0x8A,0x8A,0xA1,0x8D,0x8E,0x8F,0x9
 223:../fatfs/ff.c **** 				0xA0,0xA1,0xE0,0xA3,0xA3,0xA5,0xA6,0xA7,0xA8,0xA9,0xAA,0xAB,0xAC,0xAD,0xAE,0xAF,0xB0,0xB1,0xB2,
 224:../fatfs/ff.c **** 				0xC0,0xC1,0xC2,0xC3,0xC4,0xC5,0xC6,0xC7,0xC8,0xC9,0xCA,0xCB,0xCC,0xCD,0xCE,0xCF,0xB5,0xB6,0xB7,
 225:../fatfs/ff.c **** 				0xE0,0xE1,0xE2,0xE3,0xE5,0xE5,0xE6,0xE3,0xE8,0xE8,0xEA,0xEA,0xEE,0xED,0xEE,0xEF,0xF0,0xF1,0xF2,
 226:../fatfs/ff.c **** 
 227:../fatfs/ff.c **** #elif _CODE_PAGE == 850	/* Multilingual Latin 1 (OEM) */
 228:../fatfs/ff.c **** #define _DF1S	0
 229:../fatfs/ff.c **** #define _EXCVT {0x80,0x9A,0x90,0xB6,0x8E,0xB7,0x8F,0x80,0xD2,0xD3,0xD4,0xD8,0xD7,0xDE,0x8E,0x8F,0x9
 230:../fatfs/ff.c **** 				0xB5,0xD6,0xE0,0xE9,0xA5,0xA5,0xA6,0xA7,0xA8,0xA9,0xAA,0xAB,0xAC,0x21,0xAE,0xAF,0xB0,0xB1,0xB2,
 231:../fatfs/ff.c **** 				0xC0,0xC1,0xC2,0xC3,0xC4,0xC5,0xC7,0xC7,0xC8,0xC9,0xCA,0xCB,0xCC,0xCD,0xCE,0xCF,0xD0,0xD1,0xD2,
 232:../fatfs/ff.c **** 				0xE0,0xE1,0xE2,0xE3,0xE5,0xE5,0xE6,0xE7,0xE7,0xE9,0xEA,0xEB,0xED,0xED,0xEE,0xEF,0xF0,0xF1,0xF2,
 233:../fatfs/ff.c **** 
 234:../fatfs/ff.c **** #elif _CODE_PAGE == 852	/* Latin 2 (OEM) */
 235:../fatfs/ff.c **** #define _DF1S	0
 236:../fatfs/ff.c **** #define _EXCVT {0x80,0x9A,0x90,0xB6,0x8E,0xDE,0x8F,0x80,0x9D,0xD3,0x8A,0x8A,0xD7,0x8D,0x8E,0x8F,0x9
 237:../fatfs/ff.c **** 				0xB5,0xD6,0xE0,0xE9,0xA4,0xA4,0xA6,0xA6,0xA8,0xA8,0xAA,0x8D,0xAC,0xB8,0xAE,0xAF,0xB0,0xB1,0xB2,
 238:../fatfs/ff.c **** 				0xC0,0xC1,0xC2,0xC3,0xC4,0xC5,0xC6,0xC6,0xC8,0xC9,0xCA,0xCB,0xCC,0xCD,0xCE,0xCF,0xD1,0xD1,0xD2,
 239:../fatfs/ff.c **** 				0xE0,0xE1,0xE2,0xE3,0xE3,0xD5,0xE6,0xE6,0xE8,0xE9,0xE8,0xEB,0xED,0xED,0xDD,0xEF,0xF0,0xF1,0xF2,
 240:../fatfs/ff.c **** 
 241:../fatfs/ff.c **** #elif _CODE_PAGE == 855	/* Cyrillic (OEM) */
 242:../fatfs/ff.c **** #define _DF1S	0
 243:../fatfs/ff.c **** #define _EXCVT {0x81,0x81,0x83,0x83,0x85,0x85,0x87,0x87,0x89,0x89,0x8B,0x8B,0x8D,0x8D,0x8F,0x8F,0x9
 244:../fatfs/ff.c **** 				0xA1,0xA1,0xA3,0xA3,0xA5,0xA5,0xA7,0xA7,0xA9,0xA9,0xAB,0xAB,0xAD,0xAD,0xAE,0xAF,0xB0,0xB1,0xB2,
 245:../fatfs/ff.c **** 				0xC0,0xC1,0xC2,0xC3,0xC4,0xC5,0xC7,0xC7,0xC8,0xC9,0xCA,0xCB,0xCC,0xCD,0xCE,0xCF,0xD1,0xD1,0xD3,
 246:../fatfs/ff.c **** 				0xE0,0xE2,0xE2,0xE4,0xE4,0xE6,0xE6,0xE8,0xE8,0xEA,0xEA,0xEC,0xEC,0xEE,0xEE,0xEF,0xF0,0xF2,0xF2,
 247:../fatfs/ff.c **** 
 248:../fatfs/ff.c **** #elif _CODE_PAGE == 857	/* Turkish (OEM) */
 249:../fatfs/ff.c **** #define _DF1S	0
 250:../fatfs/ff.c **** #define _EXCVT {0x80,0x9A,0x90,0xB6,0x8E,0xB7,0x8F,0x80,0xD2,0xD3,0xD4,0xD8,0xD7,0x98,0x8E,0x8F,0x9
 251:../fatfs/ff.c **** 				0xB5,0xD6,0xE0,0xE9,0xA5,0xA5,0xA6,0xA6,0xA8,0xA9,0xAA,0xAB,0xAC,0x21,0xAE,0xAF,0xB0,0xB1,0xB2,
 252:../fatfs/ff.c **** 				0xC0,0xC1,0xC2,0xC3,0xC4,0xC5,0xC7,0xC7,0xC8,0xC9,0xCA,0xCB,0xCC,0xCD,0xCE,0xCF,0xD0,0xD1,0xD2,
 253:../fatfs/ff.c **** 				0xE0,0xE1,0xE2,0xE3,0xE5,0xE5,0xE6,0xE7,0xE8,0xE9,0xEA,0xEB,0xDE,0x59,0xEE,0xEF,0xF0,0xF1,0xF2,
 254:../fatfs/ff.c **** 
 255:../fatfs/ff.c **** #elif _CODE_PAGE == 858	/* Multilingual Latin 1 + Euro (OEM) */
 256:../fatfs/ff.c **** #define _DF1S	0
 257:../fatfs/ff.c **** #define _EXCVT {0x80,0x9A,0x90,0xB6,0x8E,0xB7,0x8F,0x80,0xD2,0xD3,0xD4,0xD8,0xD7,0xDE,0x8E,0x8F,0x9
 258:../fatfs/ff.c **** 				0xB5,0xD6,0xE0,0xE9,0xA5,0xA5,0xA6,0xA7,0xA8,0xA9,0xAA,0xAB,0xAC,0x21,0xAE,0xAF,0xB0,0xB1,0xB2,
 259:../fatfs/ff.c **** 				0xC0,0xC1,0xC2,0xC3,0xC4,0xC5,0xC7,0xC7,0xC8,0xC9,0xCA,0xCB,0xCC,0xCD,0xCE,0xCF,0xD1,0xD1,0xD2,
 260:../fatfs/ff.c **** 				0xE0,0xE1,0xE2,0xE3,0xE5,0xE5,0xE6,0xE7,0xE7,0xE9,0xEA,0xEB,0xED,0xED,0xEE,0xEF,0xF0,0xF1,0xF2,
 261:../fatfs/ff.c **** 
 262:../fatfs/ff.c **** #elif _CODE_PAGE == 862	/* Hebrew (OEM) */
 263:../fatfs/ff.c **** #define _DF1S	0
 264:../fatfs/ff.c **** #define _EXCVT {0x80,0x81,0x82,0x83,0x84,0x85,0x86,0x87,0x88,0x89,0x8A,0x8B,0x8C,0x8D,0x8E,0x8F,0x9
 265:../fatfs/ff.c **** 				0x41,0x49,0x4F,0x55,0xA5,0xA5,0xA6,0xA7,0xA8,0xA9,0xAA,0xAB,0xAC,0x21,0xAE,0xAF,0xB0,0xB1,0xB2,
 266:../fatfs/ff.c **** 				0xC0,0xC1,0xC2,0xC3,0xC4,0xC5,0xC6,0xC7,0xC8,0xC9,0xCA,0xCB,0xCC,0xCD,0xCE,0xCF,0xD0,0xD1,0xD2,
 267:../fatfs/ff.c **** 				0xE0,0xE1,0xE2,0xE3,0xE4,0xE5,0xE6,0xE7,0xE8,0xE9,0xEA,0xEB,0xEC,0xED,0xEE,0xEF,0xF0,0xF1,0xF2,
 268:../fatfs/ff.c **** 
 269:../fatfs/ff.c **** #elif _CODE_PAGE == 866	/* Russian (OEM) */
 270:../fatfs/ff.c **** #define _DF1S	0
 271:../fatfs/ff.c **** #define _EXCVT {0x80,0x81,0x82,0x83,0x84,0x85,0x86,0x87,0x88,0x89,0x8A,0x8B,0x8C,0x8D,0x8E,0x8F,0x9
 272:../fatfs/ff.c **** 				0x80,0x81,0x82,0x83,0x84,0x85,0x86,0x87,0x88,0x89,0x8A,0x8B,0x8C,0x8D,0x8E,0x8F,0xB0,0xB1,0xB2,
 273:../fatfs/ff.c **** 				0xC0,0xC1,0xC2,0xC3,0xC4,0xC5,0xC6,0xC7,0xC8,0xC9,0xCA,0xCB,0xCC,0xCD,0xCE,0xCF,0xD0,0xD1,0xD2,
 274:../fatfs/ff.c **** 				0x90,0x91,0x92,0x93,0x9d,0x95,0x96,0x97,0x98,0x99,0x9A,0x9B,0x9C,0x9D,0x9E,0x9F,0xF0,0xF0,0xF2,
 275:../fatfs/ff.c **** 
 276:../fatfs/ff.c **** #elif _CODE_PAGE == 874	/* Thai (OEM, Windows) */
 277:../fatfs/ff.c **** #define _DF1S	0
 278:../fatfs/ff.c **** #define _EXCVT {0x80,0x81,0x82,0x83,0x84,0x85,0x86,0x87,0x88,0x89,0x8A,0x8B,0x8C,0x8D,0x8E,0x8F,0x9
 279:../fatfs/ff.c **** 				0xA0,0xA1,0xA2,0xA3,0xA4,0xA5,0xA6,0xA7,0xA8,0xA9,0xAA,0xAB,0xAC,0xAD,0xAE,0xAF,0xB0,0xB1,0xB2,
 280:../fatfs/ff.c **** 				0xC0,0xC1,0xC2,0xC3,0xC4,0xC5,0xC6,0xC7,0xC8,0xC9,0xCA,0xCB,0xCC,0xCD,0xCE,0xCF,0xD0,0xD1,0xD2,
 281:../fatfs/ff.c **** 				0xE0,0xE1,0xE2,0xE3,0xE4,0xE5,0xE6,0xE7,0xE8,0xE9,0xEA,0xEB,0xEC,0xED,0xEE,0xEF,0xF0,0xF1,0xF2,
 282:../fatfs/ff.c **** 
 283:../fatfs/ff.c **** #elif _CODE_PAGE == 1250 /* Central Europe (Windows) */
 284:../fatfs/ff.c **** #define _DF1S	0
 285:../fatfs/ff.c **** #define _EXCVT {0x80,0x81,0x82,0x83,0x84,0x85,0x86,0x87,0x88,0x89,0x8A,0x8B,0x8C,0x8D,0x8E,0x8F,0x9
 286:../fatfs/ff.c **** 				0xA0,0xA1,0xA2,0xA3,0xA4,0xA5,0xA6,0xA7,0xA8,0xA9,0xAA,0xAB,0xAC,0xAD,0xAE,0xAF,0xB0,0xB1,0xB2,
 287:../fatfs/ff.c **** 				0xC0,0xC1,0xC2,0xC3,0xC4,0xC5,0xC6,0xC7,0xC8,0xC9,0xCA,0xCB,0xCC,0xCD,0xCE,0xCF,0xD0,0xD1,0xD2,
 288:../fatfs/ff.c **** 				0xC0,0xC1,0xC2,0xC3,0xC4,0xC5,0xC6,0xC7,0xC8,0xC9,0xCA,0xCB,0xCC,0xCD,0xCE,0xCF,0xD0,0xD1,0xD2,
 289:../fatfs/ff.c **** 
 290:../fatfs/ff.c **** #elif _CODE_PAGE == 1251 /* Cyrillic (Windows) */
 291:../fatfs/ff.c **** #define _DF1S	0
 292:../fatfs/ff.c **** #define _EXCVT {0x80,0x81,0x82,0x82,0x84,0x85,0x86,0x87,0x88,0x89,0x8A,0x8B,0x8C,0x8D,0x8E,0x8F,0x8
 293:../fatfs/ff.c **** 				0xA0,0xA2,0xA2,0xA3,0xA4,0xA5,0xA6,0xA7,0xA8,0xA9,0xAA,0xAB,0xAC,0xAD,0xAE,0xAF,0xB0,0xB1,0xB2,
 294:../fatfs/ff.c **** 				0xC0,0xC1,0xC2,0xC3,0xC4,0xC5,0xC6,0xC7,0xC8,0xC9,0xCA,0xCB,0xCC,0xCD,0xCE,0xCF,0xD0,0xD1,0xD2,
 295:../fatfs/ff.c **** 				0xC0,0xC1,0xC2,0xC3,0xC4,0xC5,0xC6,0xC7,0xC8,0xC9,0xCA,0xCB,0xCC,0xCD,0xCE,0xCF,0xD0,0xD1,0xD2,
 296:../fatfs/ff.c **** 
 297:../fatfs/ff.c **** #elif _CODE_PAGE == 1252 /* Latin 1 (Windows) */
 298:../fatfs/ff.c **** #define _DF1S	0
 299:../fatfs/ff.c **** #define _EXCVT {0x80,0x81,0x82,0x83,0x84,0x85,0x86,0x87,0x88,0x89,0x8A,0x8B,0x8C,0x8D,0x8E,0x8F,0x9
 300:../fatfs/ff.c **** 				0xA0,0x21,0xA2,0xA3,0xA4,0xA5,0xA6,0xA7,0xA8,0xA9,0xAA,0xAB,0xAC,0xAD,0xAE,0xAF,0xB0,0xB1,0xB2,
 301:../fatfs/ff.c **** 				0xC0,0xC1,0xC2,0xC3,0xC4,0xC5,0xC6,0xC7,0xC8,0xC9,0xCA,0xCB,0xCC,0xCD,0xCE,0xCF,0xD0,0xD1,0xD2,
 302:../fatfs/ff.c **** 				0xC0,0xC1,0xC2,0xC3,0xC4,0xC5,0xC6,0xC7,0xC8,0xC9,0xCA,0xCB,0xCC,0xCD,0xCE,0xCF,0xD0,0xD1,0xD2,
 303:../fatfs/ff.c **** 
 304:../fatfs/ff.c **** #elif _CODE_PAGE == 1253 /* Greek (Windows) */
 305:../fatfs/ff.c **** #define _DF1S	0
 306:../fatfs/ff.c **** #define _EXCVT {0x80,0x81,0x82,0x83,0x84,0x85,0x86,0x87,0x88,0x89,0x8A,0x8B,0x8C,0x8D,0x8E,0x8F,0x9
 307:../fatfs/ff.c **** 				0xA0,0xA1,0xA2,0xA3,0xA4,0xA5,0xA6,0xA7,0xA8,0xA9,0xAA,0xAB,0xAC,0xAD,0xAE,0xAF,0xB0,0xB1,0xB2,
 308:../fatfs/ff.c **** 				0xC0,0xC1,0xC2,0xC3,0xC4,0xC5,0xC6,0xC7,0xC8,0xC9,0xCA,0xCB,0xCC,0xCD,0xCE,0xCF,0xD0,0xD1,0xD2,
 309:../fatfs/ff.c **** 				0xE0,0xC1,0xC2,0xC3,0xC4,0xC5,0xC6,0xC7,0xC8,0xC9,0xCA,0xCB,0xCC,0xCD,0xCE,0xCF,0xD0,0xD1,0xF2,
 310:../fatfs/ff.c **** 
 311:../fatfs/ff.c **** #elif _CODE_PAGE == 1254 /* Turkish (Windows) */
 312:../fatfs/ff.c **** #define _DF1S	0
 313:../fatfs/ff.c **** #define _EXCVT {0x80,0x81,0x82,0x83,0x84,0x85,0x86,0x87,0x88,0x89,0x8A,0x8B,0x8C,0x8D,0x8E,0x8F,0x9
 314:../fatfs/ff.c **** 				0xA0,0x21,0xA2,0xA3,0xA4,0xA5,0xA6,0xA7,0xA8,0xA9,0xAA,0xAB,0xAC,0xAD,0xAE,0xAF,0xB0,0xB1,0xB2,
 315:../fatfs/ff.c **** 				0xC0,0xC1,0xC2,0xC3,0xC4,0xC5,0xC6,0xC7,0xC8,0xC9,0xCA,0xCB,0xCC,0xCD,0xCE,0xCF,0xD0,0xD1,0xD2,
 316:../fatfs/ff.c **** 				0xC0,0xC1,0xC2,0xC3,0xC4,0xC5,0xC6,0xC7,0xC8,0xC9,0xCA,0xCB,0xCC,0xCD,0xCE,0xCF,0xD0,0xD1,0xD2,
 317:../fatfs/ff.c **** 
 318:../fatfs/ff.c **** #elif _CODE_PAGE == 1255 /* Hebrew (Windows) */
 319:../fatfs/ff.c **** #define _DF1S	0
 320:../fatfs/ff.c **** #define _EXCVT {0x80,0x81,0x82,0x83,0x84,0x85,0x86,0x87,0x88,0x89,0x8A,0x8B,0x8C,0x8D,0x8E,0x8F,0x9
 321:../fatfs/ff.c **** 				0xA0,0x21,0xA2,0xA3,0xA4,0xA5,0xA6,0xA7,0xA8,0xA9,0xAA,0xAB,0xAC,0xAD,0xAE,0xAF,0xB0,0xB1,0xB2,
 322:../fatfs/ff.c **** 				0xC0,0xC1,0xC2,0xC3,0xC4,0xC5,0xC6,0xC7,0xC8,0xC9,0xCA,0xCB,0xCC,0xCD,0xCE,0xCF,0xD0,0xD1,0xD2,
 323:../fatfs/ff.c **** 				0xE0,0xE1,0xE2,0xE3,0xE4,0xE5,0xE6,0xE7,0xE8,0xE9,0xEA,0xEB,0xEC,0xED,0xEE,0xEF,0xF0,0xF1,0xF2,
 324:../fatfs/ff.c **** 
 325:../fatfs/ff.c **** #elif _CODE_PAGE == 1256 /* Arabic (Windows) */
 326:../fatfs/ff.c **** #define _DF1S	0
 327:../fatfs/ff.c **** #define _EXCVT {0x80,0x81,0x82,0x83,0x84,0x85,0x86,0x87,0x88,0x89,0x8A,0x8B,0x8C,0x8D,0x8E,0x8F,0x9
 328:../fatfs/ff.c **** 				0xA0,0xA1,0xA2,0xA3,0xA4,0xA5,0xA6,0xA7,0xA8,0xA9,0xAA,0xAB,0xAC,0xAD,0xAE,0xAF,0xB0,0xB1,0xB2,
 329:../fatfs/ff.c **** 				0xC0,0xC1,0xC2,0xC3,0xC4,0xC5,0xC6,0xC7,0xC8,0xC9,0xCA,0xCB,0xCC,0xCD,0xCE,0xCF,0xD0,0xD1,0xD2,
 330:../fatfs/ff.c **** 				0x41,0xE1,0x41,0xE3,0xE4,0xE5,0xE6,0x43,0x45,0x45,0x45,0x45,0xEC,0xED,0x49,0x49,0xF0,0xF1,0xF2,
 331:../fatfs/ff.c **** 
 332:../fatfs/ff.c **** #elif _CODE_PAGE == 1257 /* Baltic (Windows) */
 333:../fatfs/ff.c **** #define _DF1S	0
 334:../fatfs/ff.c **** #define _EXCVT {0x80,0x81,0x82,0x83,0x84,0x85,0x86,0x87,0x88,0x89,0x8A,0x8B,0x8C,0x8D,0x8E,0x8F,0x9
 335:../fatfs/ff.c **** 				0xA0,0xA1,0xA2,0xA3,0xA4,0xA5,0xA6,0xA7,0xA8,0xA9,0xAA,0xAB,0xAC,0xAD,0xAE,0xAF,0xB0,0xB1,0xB2,
 336:../fatfs/ff.c **** 				0xC0,0xC1,0xC2,0xC3,0xC4,0xC5,0xC6,0xC7,0xC8,0xC9,0xCA,0xCB,0xCC,0xCD,0xCE,0xCF,0xD0,0xD1,0xD2,
 337:../fatfs/ff.c **** 				0xC0,0xC1,0xC2,0xC3,0xC4,0xC5,0xC6,0xC7,0xC8,0xC9,0xCA,0xCB,0xCC,0xCD,0xCE,0xCF,0xD0,0xD1,0xD2,
 338:../fatfs/ff.c **** 
 339:../fatfs/ff.c **** #elif _CODE_PAGE == 1258 /* Vietnam (OEM, Windows) */
 340:../fatfs/ff.c **** #define _DF1S	0
 341:../fatfs/ff.c **** #define _EXCVT {0x80,0x81,0x82,0x83,0x84,0x85,0x86,0x87,0x88,0x89,0x8A,0x8B,0x8C,0x8D,0x8E,0x8F,0x9
 342:../fatfs/ff.c **** 				0xA0,0x21,0xA2,0xA3,0xA4,0xA5,0xA6,0xA7,0xA8,0xA9,0xAA,0xAB,0xAC,0xAD,0xAE,0xAF,0xB0,0xB1,0xB2,
 343:../fatfs/ff.c **** 				0xC0,0xC1,0xC2,0xC3,0xC4,0xC5,0xC6,0xC7,0xC8,0xC9,0xCA,0xCB,0xCC,0xCD,0xCE,0xCF,0xD0,0xD1,0xD2,
 344:../fatfs/ff.c **** 				0xC0,0xC1,0xC2,0xC3,0xC4,0xC5,0xC6,0xC7,0xC8,0xC9,0xCA,0xCB,0xEC,0xCD,0xCE,0xCF,0xD0,0xD1,0xF2,
 345:../fatfs/ff.c **** 
 346:../fatfs/ff.c **** #elif _CODE_PAGE == 1	/* ASCII (for only non-LFN cfg) */
 347:../fatfs/ff.c **** #if _USE_LFN
 348:../fatfs/ff.c **** #error Cannot use LFN feature without valid code page.
 349:../fatfs/ff.c **** #endif
 350:../fatfs/ff.c **** #define _DF1S	0
 351:../fatfs/ff.c **** 
 352:../fatfs/ff.c **** #else
 353:../fatfs/ff.c **** #error Unknown code page
 354:../fatfs/ff.c **** 
 355:../fatfs/ff.c **** #endif
 356:../fatfs/ff.c **** 
 357:../fatfs/ff.c **** 
 358:../fatfs/ff.c **** 
 359:../fatfs/ff.c **** /* Character code support macros */
 360:../fatfs/ff.c **** #define IsUpper(c)	(((c)>='A')&&((c)<='Z'))
 361:../fatfs/ff.c **** #define IsLower(c)	(((c)>='a')&&((c)<='z'))
 362:../fatfs/ff.c **** #define IsDigit(c)	(((c)>='0')&&((c)<='9'))
 363:../fatfs/ff.c **** 
 364:../fatfs/ff.c **** #if _DF1S		/* Code page is DBCS */
 365:../fatfs/ff.c **** 
 366:../fatfs/ff.c **** #ifdef _DF2S	/* Two 1st byte areas */
 367:../fatfs/ff.c **** #define IsDBCS1(c)	(((BYTE)(c) >= _DF1S && (BYTE)(c) <= _DF1E) || ((BYTE)(c) >= _DF2S && (BYTE)(c) 
 368:../fatfs/ff.c **** #else			/* One 1st byte area */
 369:../fatfs/ff.c **** #define IsDBCS1(c)	((BYTE)(c) >= _DF1S && (BYTE)(c) <= _DF1E)
 370:../fatfs/ff.c **** #endif
 371:../fatfs/ff.c **** 
 372:../fatfs/ff.c **** #ifdef _DS3S	/* Three 2nd byte areas */
 373:../fatfs/ff.c **** #define IsDBCS2(c)	(((BYTE)(c) >= _DS1S && (BYTE)(c) <= _DS1E) || ((BYTE)(c) >= _DS2S && (BYTE)(c) 
 374:../fatfs/ff.c **** #else			/* Two 2nd byte areas */
 375:../fatfs/ff.c **** #define IsDBCS2(c)	(((BYTE)(c) >= _DS1S && (BYTE)(c) <= _DS1E) || ((BYTE)(c) >= _DS2S && (BYTE)(c) 
 376:../fatfs/ff.c **** #endif
 377:../fatfs/ff.c **** 
 378:../fatfs/ff.c **** #else			/* Code page is SBCS */
 379:../fatfs/ff.c **** 
 380:../fatfs/ff.c **** #define IsDBCS1(c)	0
 381:../fatfs/ff.c **** #define IsDBCS2(c)	0
 382:../fatfs/ff.c **** 
 383:../fatfs/ff.c **** #endif /* _DF1S */
 384:../fatfs/ff.c **** 
 385:../fatfs/ff.c **** 
 386:../fatfs/ff.c **** /* Name status flags */
 387:../fatfs/ff.c **** #define NS			11		/* Index of name status byte in fn[] */
 388:../fatfs/ff.c **** #define NS_LOSS		0x01	/* Out of 8.3 format */
 389:../fatfs/ff.c **** #define NS_LFN		0x02	/* Force to create LFN entry */
 390:../fatfs/ff.c **** #define NS_LAST		0x04	/* Last segment */
 391:../fatfs/ff.c **** #define NS_BODY		0x08	/* Lower case flag (body) */
 392:../fatfs/ff.c **** #define NS_EXT		0x10	/* Lower case flag (ext) */
 393:../fatfs/ff.c **** #define NS_DOT		0x20	/* Dot entry */
 394:../fatfs/ff.c **** 
 395:../fatfs/ff.c **** 
 396:../fatfs/ff.c **** /* FAT sub-type boundaries */
 397:../fatfs/ff.c **** /* Note that the FAT spec by Microsoft says 4085 but Windows works with 4087! */
 398:../fatfs/ff.c **** #define MIN_FAT16	4086	/* Minimum number of clusters for FAT16 */
 399:../fatfs/ff.c **** #define	MIN_FAT32	65526	/* Minimum number of clusters for FAT32 */
 400:../fatfs/ff.c **** 
 401:../fatfs/ff.c **** 
 402:../fatfs/ff.c **** /* FatFs refers the members in the FAT structures as byte array instead of
 403:../fatfs/ff.c **** / structure member because the structure is not binary compatible between
 404:../fatfs/ff.c **** / different platforms */
 405:../fatfs/ff.c **** 
 406:../fatfs/ff.c **** #define BS_jmpBoot			0	/* Jump instruction (3) */
 407:../fatfs/ff.c **** #define BS_OEMName			3	/* OEM name (8) */
 408:../fatfs/ff.c **** #define BPB_BytsPerSec		11	/* Sector size [byte] (2) */
 409:../fatfs/ff.c **** #define BPB_SecPerClus		13	/* Cluster size [sector] (1) */
 410:../fatfs/ff.c **** #define BPB_RsvdSecCnt		14	/* Size of reserved area [sector] (2) */
 411:../fatfs/ff.c **** #define BPB_NumFATs			16	/* Number of FAT copies (1) */
 412:../fatfs/ff.c **** #define BPB_RootEntCnt		17	/* Number of root dir entries for FAT12/16 (2) */
 413:../fatfs/ff.c **** #define BPB_TotSec16		19	/* Volume size [sector] (2) */
 414:../fatfs/ff.c **** #define BPB_Media			21	/* Media descriptor (1) */
 415:../fatfs/ff.c **** #define BPB_FATSz16			22	/* FAT size [sector] (2) */
 416:../fatfs/ff.c **** #define BPB_SecPerTrk		24	/* Track size [sector] (2) */
 417:../fatfs/ff.c **** #define BPB_NumHeads		26	/* Number of heads (2) */
 418:../fatfs/ff.c **** #define BPB_HiddSec			28	/* Number of special hidden sectors (4) */
 419:../fatfs/ff.c **** #define BPB_TotSec32		32	/* Volume size [sector] (4) */
 420:../fatfs/ff.c **** #define BS_DrvNum			36	/* Physical drive number (2) */
 421:../fatfs/ff.c **** #define BS_BootSig			38	/* Extended boot signature (1) */
 422:../fatfs/ff.c **** #define BS_VolID			39	/* Volume serial number (4) */
 423:../fatfs/ff.c **** #define BS_VolLab			43	/* Volume label (8) */
 424:../fatfs/ff.c **** #define BS_FilSysType		54	/* File system type (1) */
 425:../fatfs/ff.c **** #define BPB_FATSz32			36	/* FAT size [sector] (4) */
 426:../fatfs/ff.c **** #define BPB_ExtFlags		40	/* Extended flags (2) */
 427:../fatfs/ff.c **** #define BPB_FSVer			42	/* File system version (2) */
 428:../fatfs/ff.c **** #define BPB_RootClus		44	/* Root dir first cluster (4) */
 429:../fatfs/ff.c **** #define BPB_FSInfo			48	/* Offset of FSInfo sector (2) */
 430:../fatfs/ff.c **** #define BPB_BkBootSec		50	/* Offset of backup boot sector (2) */
 431:../fatfs/ff.c **** #define BS_DrvNum32			64	/* Physical drive number (2) */
 432:../fatfs/ff.c **** #define BS_BootSig32		66	/* Extended boot signature (1) */
 433:../fatfs/ff.c **** #define BS_VolID32			67	/* Volume serial number (4) */
 434:../fatfs/ff.c **** #define BS_VolLab32			71	/* Volume label (8) */
 435:../fatfs/ff.c **** #define BS_FilSysType32		82	/* File system type (1) */
 436:../fatfs/ff.c **** #define	FSI_LeadSig			0	/* FSI: Leading signature (4) */
 437:../fatfs/ff.c **** #define	FSI_StrucSig		484	/* FSI: Structure signature (4) */
 438:../fatfs/ff.c **** #define	FSI_Free_Count		488	/* FSI: Number of free clusters (4) */
 439:../fatfs/ff.c **** #define	FSI_Nxt_Free		492	/* FSI: Last allocated cluster (4) */
 440:../fatfs/ff.c **** #define MBR_Table			446	/* MBR: Partition table offset (2) */
 441:../fatfs/ff.c **** #define	SZ_PTE				16	/* MBR: Size of a partition table entry */
 442:../fatfs/ff.c **** #define BS_55AA				510	/* Boot sector signature (2) */
 443:../fatfs/ff.c **** 
 444:../fatfs/ff.c **** #define	DIR_Name			0	/* Short file name (11) */
 445:../fatfs/ff.c **** #define	DIR_Attr			11	/* Attribute (1) */
 446:../fatfs/ff.c **** #define	DIR_NTres			12	/* NT flag (1) */
 447:../fatfs/ff.c **** #define DIR_CrtTimeTenth	13	/* Created time sub-second (1) */
 448:../fatfs/ff.c **** #define	DIR_CrtTime			14	/* Created time (2) */
 449:../fatfs/ff.c **** #define	DIR_CrtDate			16	/* Created date (2) */
 450:../fatfs/ff.c **** #define DIR_LstAccDate		18	/* Last accessed date (2) */
 451:../fatfs/ff.c **** #define	DIR_FstClusHI		20	/* Higher 16-bit of first cluster (2) */
 452:../fatfs/ff.c **** #define	DIR_WrtTime			22	/* Modified time (2) */
 453:../fatfs/ff.c **** #define	DIR_WrtDate			24	/* Modified date (2) */
 454:../fatfs/ff.c **** #define	DIR_FstClusLO		26	/* Lower 16-bit of first cluster (2) */
 455:../fatfs/ff.c **** #define	DIR_FileSize		28	/* File size (4) */
 456:../fatfs/ff.c **** #define	LDIR_Ord			0	/* LFN entry order and LLE flag (1) */
 457:../fatfs/ff.c **** #define	LDIR_Attr			11	/* LFN attribute (1) */
 458:../fatfs/ff.c **** #define	LDIR_Type			12	/* LFN type (1) */
 459:../fatfs/ff.c **** #define	LDIR_Chksum			13	/* Sum of corresponding SFN entry */
 460:../fatfs/ff.c **** #define	LDIR_FstClusLO		26	/* Filled by zero (0) */
 461:../fatfs/ff.c **** #define	SZ_DIR				32		/* Size of a directory entry */
 462:../fatfs/ff.c **** #define	LLE					0x40	/* Last long entry flag in LDIR_Ord */
 463:../fatfs/ff.c **** #define	DDE					0xE5	/* Deleted directory entry mark in DIR_Name[0] */
 464:../fatfs/ff.c **** #define	NDDE				0x05	/* Replacement of the character collides with DDE */
 465:../fatfs/ff.c **** 
 466:../fatfs/ff.c **** 
 467:../fatfs/ff.c **** /*------------------------------------------------------------*/
 468:../fatfs/ff.c **** /* Module private work area                                   */
 469:../fatfs/ff.c **** /*------------------------------------------------------------*/
 470:../fatfs/ff.c **** /* Note that uninitialized variables with static duration are
 471:../fatfs/ff.c **** /  zeroed/nulled at start-up. If not, the compiler or start-up
 472:../fatfs/ff.c **** /  routine is out of ANSI-C standard.
 473:../fatfs/ff.c **** */
 474:../fatfs/ff.c **** 
 475:../fatfs/ff.c **** #if _VOLUMES
 476:../fatfs/ff.c **** static
 477:../fatfs/ff.c **** FATFS *FatFs[_VOLUMES];	/* Pointer to the file system objects (logical drives) */
 478:../fatfs/ff.c **** #else
 479:../fatfs/ff.c **** #error Number of volumes must not be 0.
 480:../fatfs/ff.c **** #endif
 481:../fatfs/ff.c **** 
 482:../fatfs/ff.c **** static
 483:../fatfs/ff.c **** WORD Fsid;				/* File system mount ID */
 484:../fatfs/ff.c **** 
 485:../fatfs/ff.c **** #if _FS_RPATH
 486:../fatfs/ff.c **** static
 487:../fatfs/ff.c **** BYTE CurrVol;			/* Current drive */
 488:../fatfs/ff.c **** #endif
 489:../fatfs/ff.c **** 
 490:../fatfs/ff.c **** #if _FS_LOCK
 491:../fatfs/ff.c **** static
 492:../fatfs/ff.c **** FILESEM	Files[_FS_LOCK];	/* File lock semaphores */
 493:../fatfs/ff.c **** #endif
 494:../fatfs/ff.c **** 
 495:../fatfs/ff.c **** #if _USE_LFN == 0			/* No LFN feature */
 496:../fatfs/ff.c **** #define	DEF_NAMEBUF			BYTE sfn[12]
 497:../fatfs/ff.c **** #define INIT_BUF(dobj)		(dobj).fn = sfn
 498:../fatfs/ff.c **** #define	FREE_BUF()
 499:../fatfs/ff.c **** 
 500:../fatfs/ff.c **** #elif _USE_LFN == 1			/* LFN feature with static working buffer */
 501:../fatfs/ff.c **** static WCHAR LfnBuf[_MAX_LFN+1];
 502:../fatfs/ff.c **** #define	DEF_NAMEBUF			BYTE sfn[12]
 503:../fatfs/ff.c **** #define INIT_BUF(dobj)		{ (dobj).fn = sfn; (dobj).lfn = LfnBuf; }
 504:../fatfs/ff.c **** #define	FREE_BUF()
 505:../fatfs/ff.c **** 
 506:../fatfs/ff.c **** #elif _USE_LFN == 2 		/* LFN feature with dynamic working buffer on the stack */
 507:../fatfs/ff.c **** #define	DEF_NAMEBUF			BYTE sfn[12]; WCHAR lbuf[_MAX_LFN+1]
 508:../fatfs/ff.c **** #define INIT_BUF(dobj)		{ (dobj).fn = sfn; (dobj).lfn = lbuf; }
 509:../fatfs/ff.c **** #define	FREE_BUF()
 510:../fatfs/ff.c **** 
 511:../fatfs/ff.c **** #elif _USE_LFN == 3 		/* LFN feature with dynamic working buffer on the heap */
 512:../fatfs/ff.c **** #define	DEF_NAMEBUF			BYTE sfn[12]; WCHAR *lfn
 513:../fatfs/ff.c **** #define INIT_BUF(dobj)		{ lfn = ff_memalloc((_MAX_LFN + 1) * 2); \
 514:../fatfs/ff.c **** 							  if (!lfn) LEAVE_FF((dobj).fs, FR_NOT_ENOUGH_CORE); \
 515:../fatfs/ff.c **** 							  (dobj).lfn = lfn;	(dobj).fn = sfn; }
 516:../fatfs/ff.c **** #define	FREE_BUF()			ff_memfree(lfn)
 517:../fatfs/ff.c **** 
 518:../fatfs/ff.c **** #else
 519:../fatfs/ff.c **** #error Wrong LFN configuration.
 520:../fatfs/ff.c **** #endif
 521:../fatfs/ff.c **** 
 522:../fatfs/ff.c **** 
 523:../fatfs/ff.c **** #ifdef _EXCVT
 524:../fatfs/ff.c **** static
 525:../fatfs/ff.c **** const BYTE ExCvt[] = _EXCVT;	/* Upper conversion table for extended chars */
 526:../fatfs/ff.c **** #endif
 527:../fatfs/ff.c **** 
 528:../fatfs/ff.c **** 
 529:../fatfs/ff.c **** 
 530:../fatfs/ff.c **** 
 531:../fatfs/ff.c **** 
 532:../fatfs/ff.c **** 
 533:../fatfs/ff.c **** /*--------------------------------------------------------------------------
 534:../fatfs/ff.c **** 
 535:../fatfs/ff.c ****    Module Private Functions
 536:../fatfs/ff.c **** 
 537:../fatfs/ff.c **** ---------------------------------------------------------------------------*/
 538:../fatfs/ff.c **** void SD_mount(void)
 539:../fatfs/ff.c **** {
 196              		.loc 1 539 0
 197              		.cfi_startproc
 198              		@ args = 0, pretend = 0, frame = 0
 199              		@ frame_needed = 1, uses_anonymous_args = 0
 200 0000 80B5     		push	{r7, lr}
 201              		.cfi_def_cfa_offset 8
 202              		.cfi_offset 7, -8
 203              		.cfi_offset 14, -4
 204 0002 00AF     		add	r7, sp, #0
 205              		.cfi_def_cfa_register 7
 540:../fatfs/ff.c **** 	if (f_mount(0, &fatfs[0])!=FR_OK)
 206              		.loc 1 540 0
 207 0004 0020     		movs	r0, #0
 208 0006 0449     		ldr	r1, .L4
 209 0008 FFF7FEFF 		bl	f_mount
 210 000c 0346     		mov	r3, r0
 211 000e 002B     		cmp	r3, #0
 212 0010 00D0     		beq	.L1
 213              	.L3:
 541:../fatfs/ff.c **** 	{
 542:../fatfs/ff.c **** 			while(1);
 214              		.loc 1 542 0 discriminator 1
 215 0012 FEE7     		b	.L3
 216              	.L1:
 543:../fatfs/ff.c **** 	}
 544:../fatfs/ff.c **** 
 545:../fatfs/ff.c **** }
 217              		.loc 1 545 0
 218 0014 80BD     		pop	{r7, pc}
 219              	.L5:
 220 0016 00BF     		.align	2
 221              	.L4:
 222 0018 00000000 		.word	fatfs
 223              		.cfi_endproc
 224              	.LFE0:
 226              		.section	.text.mem_cpy,"ax",%progbits
 227              		.align	2
 228              		.thumb
 229              		.thumb_func
 231              	mem_cpy:
 232              	.LFB1:
 546:../fatfs/ff.c **** 
 547:../fatfs/ff.c **** /*-----------------------------------------------------------------------*/
 548:../fatfs/ff.c **** /* String functions                                                      */
 549:../fatfs/ff.c **** /*-----------------------------------------------------------------------*/
 550:../fatfs/ff.c **** 
 551:../fatfs/ff.c **** /* Copy memory to memory */
 552:../fatfs/ff.c **** static
 553:../fatfs/ff.c **** void mem_cpy (void* dst, const void* src, UINT cnt) {
 233              		.loc 1 553 0
 234              		.cfi_startproc
 235              		@ args = 0, pretend = 0, frame = 24
 236              		@ frame_needed = 1, uses_anonymous_args = 0
 237              		@ link register save eliminated.
 238 0000 80B4     		push	{r7}
 239              		.cfi_def_cfa_offset 4
 240              		.cfi_offset 7, -4
 241 0002 87B0     		sub	sp, sp, #28
 242              		.cfi_def_cfa_offset 32
 243 0004 00AF     		add	r7, sp, #0
 244              		.cfi_def_cfa_register 7
 245 0006 F860     		str	r0, [r7, #12]
 246 0008 B960     		str	r1, [r7, #8]
 247 000a 7A60     		str	r2, [r7, #4]
 554:../fatfs/ff.c **** 	BYTE *d = (BYTE*)dst;
 248              		.loc 1 554 0
 249 000c FB68     		ldr	r3, [r7, #12]
 250 000e 7B61     		str	r3, [r7, #20]
 555:../fatfs/ff.c **** 	const BYTE *s = (const BYTE*)src;
 251              		.loc 1 555 0
 252 0010 BB68     		ldr	r3, [r7, #8]
 253 0012 3B61     		str	r3, [r7, #16]
 556:../fatfs/ff.c **** 
 557:../fatfs/ff.c **** #if _WORD_ACCESS == 1
 558:../fatfs/ff.c **** 	while (cnt >= sizeof (int)) {
 559:../fatfs/ff.c **** 		*(int*)d = *(int*)s;
 560:../fatfs/ff.c **** 		d += sizeof (int); s += sizeof (int);
 561:../fatfs/ff.c **** 		cnt -= sizeof (int);
 562:../fatfs/ff.c **** 	}
 563:../fatfs/ff.c **** #endif
 564:../fatfs/ff.c **** 	while (cnt--)
 254              		.loc 1 564 0
 255 0014 07E0     		b	.L7
 256              	.L8:
 565:../fatfs/ff.c **** 		*d++ = *s++;
 257              		.loc 1 565 0
 258 0016 7B69     		ldr	r3, [r7, #20]
 259 0018 5A1C     		adds	r2, r3, #1
 260 001a 7A61     		str	r2, [r7, #20]
 261 001c 3A69     		ldr	r2, [r7, #16]
 262 001e 511C     		adds	r1, r2, #1
 263 0020 3961     		str	r1, [r7, #16]
 264 0022 1278     		ldrb	r2, [r2]	@ zero_extendqisi2
 265 0024 1A70     		strb	r2, [r3]
 266              	.L7:
 564:../fatfs/ff.c **** 		*d++ = *s++;
 267              		.loc 1 564 0
 268 0026 7B68     		ldr	r3, [r7, #4]
 269 0028 5A1E     		subs	r2, r3, #1
 270 002a 7A60     		str	r2, [r7, #4]
 271 002c 002B     		cmp	r3, #0
 272 002e F2D1     		bne	.L8
 566:../fatfs/ff.c **** }
 273              		.loc 1 566 0
 274 0030 1C37     		adds	r7, r7, #28
 275              		.cfi_def_cfa_offset 4
 276 0032 BD46     		mov	sp, r7
 277              		.cfi_def_cfa_register 13
 278              		@ sp needed
 279 0034 5DF8047B 		ldr	r7, [sp], #4
 280              		.cfi_restore 7
 281              		.cfi_def_cfa_offset 0
 282 0038 7047     		bx	lr
 283              		.cfi_endproc
 284              	.LFE1:
 286 003a 00BF     		.section	.text.mem_set,"ax",%progbits
 287              		.align	2
 288              		.thumb
 289              		.thumb_func
 291              	mem_set:
 292              	.LFB2:
 567:../fatfs/ff.c **** 
 568:../fatfs/ff.c **** /* Fill memory */
 569:../fatfs/ff.c **** static
 570:../fatfs/ff.c **** void mem_set (void* dst, int val, UINT cnt) {
 293              		.loc 1 570 0
 294              		.cfi_startproc
 295              		@ args = 0, pretend = 0, frame = 24
 296              		@ frame_needed = 1, uses_anonymous_args = 0
 297              		@ link register save eliminated.
 298 0000 80B4     		push	{r7}
 299              		.cfi_def_cfa_offset 4
 300              		.cfi_offset 7, -4
 301 0002 87B0     		sub	sp, sp, #28
 302              		.cfi_def_cfa_offset 32
 303 0004 00AF     		add	r7, sp, #0
 304              		.cfi_def_cfa_register 7
 305 0006 F860     		str	r0, [r7, #12]
 306 0008 B960     		str	r1, [r7, #8]
 307 000a 7A60     		str	r2, [r7, #4]
 571:../fatfs/ff.c **** 	BYTE *d = (BYTE*)dst;
 308              		.loc 1 571 0
 309 000c FB68     		ldr	r3, [r7, #12]
 310 000e 7B61     		str	r3, [r7, #20]
 572:../fatfs/ff.c **** 
 573:../fatfs/ff.c **** 	while (cnt--)
 311              		.loc 1 573 0
 312 0010 05E0     		b	.L10
 313              	.L11:
 574:../fatfs/ff.c **** 		*d++ = (BYTE)val;
 314              		.loc 1 574 0
 315 0012 7B69     		ldr	r3, [r7, #20]
 316 0014 5A1C     		adds	r2, r3, #1
 317 0016 7A61     		str	r2, [r7, #20]
 318 0018 BA68     		ldr	r2, [r7, #8]
 319 001a D2B2     		uxtb	r2, r2
 320 001c 1A70     		strb	r2, [r3]
 321              	.L10:
 573:../fatfs/ff.c **** 		*d++ = (BYTE)val;
 322              		.loc 1 573 0
 323 001e 7B68     		ldr	r3, [r7, #4]
 324 0020 5A1E     		subs	r2, r3, #1
 325 0022 7A60     		str	r2, [r7, #4]
 326 0024 002B     		cmp	r3, #0
 327 0026 F4D1     		bne	.L11
 575:../fatfs/ff.c **** }
 328              		.loc 1 575 0
 329 0028 1C37     		adds	r7, r7, #28
 330              		.cfi_def_cfa_offset 4
 331 002a BD46     		mov	sp, r7
 332              		.cfi_def_cfa_register 13
 333              		@ sp needed
 334 002c 5DF8047B 		ldr	r7, [sp], #4
 335              		.cfi_restore 7
 336              		.cfi_def_cfa_offset 0
 337 0030 7047     		bx	lr
 338              		.cfi_endproc
 339              	.LFE2:
 341 0032 00BF     		.section	.text.mem_cmp,"ax",%progbits
 342              		.align	2
 343              		.thumb
 344              		.thumb_func
 346              	mem_cmp:
 347              	.LFB3:
 576:../fatfs/ff.c **** 
 577:../fatfs/ff.c **** /* Compare memory to memory */
 578:../fatfs/ff.c **** static
 579:../fatfs/ff.c **** int mem_cmp (const void* dst, const void* src, UINT cnt) {
 348              		.loc 1 579 0
 349              		.cfi_startproc
 350              		@ args = 0, pretend = 0, frame = 32
 351              		@ frame_needed = 1, uses_anonymous_args = 0
 352              		@ link register save eliminated.
 353 0000 80B4     		push	{r7}
 354              		.cfi_def_cfa_offset 4
 355              		.cfi_offset 7, -4
 356 0002 89B0     		sub	sp, sp, #36
 357              		.cfi_def_cfa_offset 40
 358 0004 00AF     		add	r7, sp, #0
 359              		.cfi_def_cfa_register 7
 360 0006 F860     		str	r0, [r7, #12]
 361 0008 B960     		str	r1, [r7, #8]
 362 000a 7A60     		str	r2, [r7, #4]
 580:../fatfs/ff.c **** 	const BYTE *d = (const BYTE *)dst, *s = (const BYTE *)src;
 363              		.loc 1 580 0
 364 000c FB68     		ldr	r3, [r7, #12]
 365 000e FB61     		str	r3, [r7, #28]
 366 0010 BB68     		ldr	r3, [r7, #8]
 367 0012 BB61     		str	r3, [r7, #24]
 581:../fatfs/ff.c **** 	int r = 0;
 368              		.loc 1 581 0
 369 0014 0023     		movs	r3, #0
 370 0016 7B61     		str	r3, [r7, #20]
 582:../fatfs/ff.c **** 
 583:../fatfs/ff.c **** 	while (cnt-- && (r = *d++ - *s++) == 0) ;
 371              		.loc 1 583 0
 372 0018 00BF     		nop
 373              	.L14:
 374              		.loc 1 583 0 is_stmt 0 discriminator 2
 375 001a 7B68     		ldr	r3, [r7, #4]
 376 001c 5A1E     		subs	r2, r3, #1
 377 001e 7A60     		str	r2, [r7, #4]
 378 0020 002B     		cmp	r3, #0
 379 0022 0DD0     		beq	.L13
 380              		.loc 1 583 0 discriminator 1
 381 0024 FB69     		ldr	r3, [r7, #28]
 382 0026 5A1C     		adds	r2, r3, #1
 383 0028 FA61     		str	r2, [r7, #28]
 384 002a 1B78     		ldrb	r3, [r3]	@ zero_extendqisi2
 385 002c 1946     		mov	r1, r3
 386 002e BB69     		ldr	r3, [r7, #24]
 387 0030 5A1C     		adds	r2, r3, #1
 388 0032 BA61     		str	r2, [r7, #24]
 389 0034 1B78     		ldrb	r3, [r3]	@ zero_extendqisi2
 390 0036 CB1A     		subs	r3, r1, r3
 391 0038 7B61     		str	r3, [r7, #20]
 392 003a 7B69     		ldr	r3, [r7, #20]
 393 003c 002B     		cmp	r3, #0
 394 003e ECD0     		beq	.L14
 395              	.L13:
 584:../fatfs/ff.c **** 	return r;
 396              		.loc 1 584 0 is_stmt 1
 397 0040 7B69     		ldr	r3, [r7, #20]
 585:../fatfs/ff.c **** }
 398              		.loc 1 585 0
 399 0042 1846     		mov	r0, r3
 400 0044 2437     		adds	r7, r7, #36
 401              		.cfi_def_cfa_offset 4
 402 0046 BD46     		mov	sp, r7
 403              		.cfi_def_cfa_register 13
 404              		@ sp needed
 405 0048 5DF8047B 		ldr	r7, [sp], #4
 406              		.cfi_restore 7
 407              		.cfi_def_cfa_offset 0
 408 004c 7047     		bx	lr
 409              		.cfi_endproc
 410              	.LFE3:
 412 004e 00BF     		.section	.text.chk_chr,"ax",%progbits
 413              		.align	2
 414              		.thumb
 415              		.thumb_func
 417              	chk_chr:
 418              	.LFB4:
 586:../fatfs/ff.c **** 
 587:../fatfs/ff.c **** /* Check if chr is contained in the string */
 588:../fatfs/ff.c **** static
 589:../fatfs/ff.c **** int chk_chr (const char* str, int chr) {
 419              		.loc 1 589 0
 420              		.cfi_startproc
 421              		@ args = 0, pretend = 0, frame = 8
 422              		@ frame_needed = 1, uses_anonymous_args = 0
 423              		@ link register save eliminated.
 424 0000 80B4     		push	{r7}
 425              		.cfi_def_cfa_offset 4
 426              		.cfi_offset 7, -4
 427 0002 83B0     		sub	sp, sp, #12
 428              		.cfi_def_cfa_offset 16
 429 0004 00AF     		add	r7, sp, #0
 430              		.cfi_def_cfa_register 7
 431 0006 7860     		str	r0, [r7, #4]
 432 0008 3960     		str	r1, [r7]
 590:../fatfs/ff.c **** 	while (*str && *str != chr) str++;
 433              		.loc 1 590 0
 434 000a 02E0     		b	.L17
 435              	.L19:
 436              		.loc 1 590 0 is_stmt 0 discriminator 3
 437 000c 7B68     		ldr	r3, [r7, #4]
 438 000e 0133     		adds	r3, r3, #1
 439 0010 7B60     		str	r3, [r7, #4]
 440              	.L17:
 441              		.loc 1 590 0 discriminator 1
 442 0012 7B68     		ldr	r3, [r7, #4]
 443 0014 1B78     		ldrb	r3, [r3]	@ zero_extendqisi2
 444 0016 002B     		cmp	r3, #0
 445 0018 05D0     		beq	.L18
 446              		.loc 1 590 0 discriminator 2
 447 001a 7B68     		ldr	r3, [r7, #4]
 448 001c 1B78     		ldrb	r3, [r3]	@ zero_extendqisi2
 449 001e 1A46     		mov	r2, r3
 450 0020 3B68     		ldr	r3, [r7]
 451 0022 9A42     		cmp	r2, r3
 452 0024 F2D1     		bne	.L19
 453              	.L18:
 591:../fatfs/ff.c **** 	return *str;
 454              		.loc 1 591 0 is_stmt 1
 455 0026 7B68     		ldr	r3, [r7, #4]
 456 0028 1B78     		ldrb	r3, [r3]	@ zero_extendqisi2
 592:../fatfs/ff.c **** }
 457              		.loc 1 592 0
 458 002a 1846     		mov	r0, r3
 459 002c 0C37     		adds	r7, r7, #12
 460              		.cfi_def_cfa_offset 4
 461 002e BD46     		mov	sp, r7
 462              		.cfi_def_cfa_register 13
 463              		@ sp needed
 464 0030 5DF8047B 		ldr	r7, [sp], #4
 465              		.cfi_restore 7
 466              		.cfi_def_cfa_offset 0
 467 0034 7047     		bx	lr
 468              		.cfi_endproc
 469              	.LFE4:
 471 0036 00BF     		.section	.text.sync_window,"ax",%progbits
 472              		.align	2
 473              		.thumb
 474              		.thumb_func
 476              	sync_window:
 477              	.LFB5:
 593:../fatfs/ff.c **** 
 594:../fatfs/ff.c **** 
 595:../fatfs/ff.c **** 
 596:../fatfs/ff.c **** /*-----------------------------------------------------------------------*/
 597:../fatfs/ff.c **** /* Request/Release grant to access the volume                            */
 598:../fatfs/ff.c **** /*-----------------------------------------------------------------------*/
 599:../fatfs/ff.c **** #if _FS_REENTRANT
 600:../fatfs/ff.c **** 
 601:../fatfs/ff.c **** static
 602:../fatfs/ff.c **** int lock_fs (
 603:../fatfs/ff.c **** 	FATFS *fatfs		/* File system object */
 604:../fatfs/ff.c **** )
 605:../fatfs/ff.c **** {
 606:../fatfs/ff.c **** 	return ff_req_grant(fatfs->sobj);
 607:../fatfs/ff.c **** }
 608:../fatfs/ff.c **** 
 609:../fatfs/ff.c **** 
 610:../fatfs/ff.c **** static
 611:../fatfs/ff.c **** void unlock_fs (
 612:../fatfs/ff.c **** 	FATFS *fatfs,		/* File system object */
 613:../fatfs/ff.c **** 	FRESULT res		/* Result code to be returned */
 614:../fatfs/ff.c **** )
 615:../fatfs/ff.c **** {
 616:../fatfs/ff.c **** 	if (fatfs &&
 617:../fatfs/ff.c **** 		res != FR_NOT_ENABLED &&
 618:../fatfs/ff.c **** 		res != FR_INVALID_DRIVE &&
 619:../fatfs/ff.c **** 		res != FR_INVALID_OBJECT &&
 620:../fatfs/ff.c **** 		res != FR_TIMEOUT) {
 621:../fatfs/ff.c **** 		ff_rel_grant(fatfs->sobj);
 622:../fatfs/ff.c **** 	}
 623:../fatfs/ff.c **** }
 624:../fatfs/ff.c **** #endif
 625:../fatfs/ff.c **** 
 626:../fatfs/ff.c **** 
 627:../fatfs/ff.c **** 
 628:../fatfs/ff.c **** /*-----------------------------------------------------------------------*/
 629:../fatfs/ff.c **** /* File lock control functions                                           */
 630:../fatfs/ff.c **** /*-----------------------------------------------------------------------*/
 631:../fatfs/ff.c **** #if _FS_LOCK
 632:../fatfs/ff.c **** 
 633:../fatfs/ff.c **** static
 634:../fatfs/ff.c **** FRESULT chk_lock (	/* Check if the file can be accessed */
 635:../fatfs/ff.c **** 	DIR* dj,		/* Directory object pointing the file to be checked */
 636:../fatfs/ff.c **** 	int acc			/* Desired access (0:Read, 1:Write, 2:Delete/Rename) */
 637:../fatfs/ff.c **** )
 638:../fatfs/ff.c **** {
 639:../fatfs/ff.c **** 	UINT i, be;
 640:../fatfs/ff.c **** 
 641:../fatfs/ff.c **** 	/* Search file semaphore table */
 642:../fatfs/ff.c **** 	for (i = be = 0; i < _FS_LOCK; i++) {
 643:../fatfs/ff.c **** 		if (Files[i].fatfs) {	/* Existing entry */
 644:../fatfs/ff.c **** 			if (Files[i].fatfs == dj->fatfs &&	 	/* Check if the file matched with an open file */
 645:../fatfs/ff.c **** 				Files[i].clu == dj->sclust &&
 646:../fatfs/ff.c **** 				Files[i].idx == dj->index) break;
 647:../fatfs/ff.c **** 		} else {			/* Blank entry */
 648:../fatfs/ff.c **** 			be++;
 649:../fatfs/ff.c **** 		}
 650:../fatfs/ff.c **** 	}
 651:../fatfs/ff.c **** 	if (i == _FS_LOCK)	/* The file is not opened */
 652:../fatfs/ff.c **** 		return (be || acc == 2) ? FR_OK : FR_TOO_MANY_OPEN_FILES;	/* Is there a blank entry for new file?
 653:../fatfs/ff.c **** 
 654:../fatfs/ff.c **** 	/* The file has been opened. Reject any open against writing file and all write mode open */
 655:../fatfs/ff.c **** 	return (acc || Files[i].ctr == 0x100) ? FR_LOCKED : FR_OK;
 656:../fatfs/ff.c **** }
 657:../fatfs/ff.c **** 
 658:../fatfs/ff.c **** 
 659:../fatfs/ff.c **** static
 660:../fatfs/ff.c **** int enq_lock (void)	/* Check if an entry is available for a new file */
 661:../fatfs/ff.c **** {
 662:../fatfs/ff.c **** 	UINT i;
 663:../fatfs/ff.c **** 
 664:../fatfs/ff.c **** 	for (i = 0; i < _FS_LOCK && Files[i].fatfs; i++) ;
 665:../fatfs/ff.c **** 	return (i == _FS_LOCK) ? 0 : 1;
 666:../fatfs/ff.c **** }
 667:../fatfs/ff.c **** 
 668:../fatfs/ff.c **** 
 669:../fatfs/ff.c **** static
 670:../fatfs/ff.c **** UINT inc_lock (	/* Increment file open counter and returns its index (0:int error) */
 671:../fatfs/ff.c **** 	DIR* dj,	/* Directory object pointing the file to register or increment */
 672:../fatfs/ff.c **** 	int acc		/* Desired access mode (0:Read, !0:Write) */
 673:../fatfs/ff.c **** )
 674:../fatfs/ff.c **** {
 675:../fatfs/ff.c **** 	UINT i;
 676:../fatfs/ff.c **** 
 677:../fatfs/ff.c **** 
 678:../fatfs/ff.c **** 	for (i = 0; i < _FS_LOCK; i++) {	/* Find the file */
 679:../fatfs/ff.c **** 		if (Files[i].fatfs == dj->fatfs &&
 680:../fatfs/ff.c **** 			Files[i].clu == dj->sclust &&
 681:../fatfs/ff.c **** 			Files[i].idx == dj->index) break;
 682:../fatfs/ff.c **** 	}
 683:../fatfs/ff.c **** 
 684:../fatfs/ff.c **** 	if (i == _FS_LOCK) {				/* Not opened. Register it as new. */
 685:../fatfs/ff.c **** 		for (i = 0; i < _FS_LOCK && Files[i].fatfs; i++) ;
 686:../fatfs/ff.c **** 		if (i == _FS_LOCK) return 0;	/* No space to register (int err) */
 687:../fatfs/ff.c **** 		Files[i].fatfs = dj->fatfs;
 688:../fatfs/ff.c **** 		Files[i].clu = dj->sclust;
 689:../fatfs/ff.c **** 		Files[i].idx = dj->index;
 690:../fatfs/ff.c **** 		Files[i].ctr = 0;
 691:../fatfs/ff.c **** 	}
 692:../fatfs/ff.c **** 
 693:../fatfs/ff.c **** 	if (acc && Files[i].ctr) return 0;	/* Access violation (int err) */
 694:../fatfs/ff.c **** 
 695:../fatfs/ff.c **** 	Files[i].ctr = acc ? 0x100 : Files[i].ctr + 1;	/* Set semaphore value */
 696:../fatfs/ff.c **** 
 697:../fatfs/ff.c **** 	return i + 1;
 698:../fatfs/ff.c **** }
 699:../fatfs/ff.c **** 
 700:../fatfs/ff.c **** 
 701:../fatfs/ff.c **** static
 702:../fatfs/ff.c **** FRESULT dec_lock (	/* Decrement file open counter */
 703:../fatfs/ff.c **** 	UINT i			/* Semaphore index */
 704:../fatfs/ff.c **** )
 705:../fatfs/ff.c **** {
 706:../fatfs/ff.c **** 	WORD n;
 707:../fatfs/ff.c **** 	FRESULT res;
 708:../fatfs/ff.c **** 
 709:../fatfs/ff.c **** 
 710:../fatfs/ff.c **** 	if (--i < _FS_LOCK) {
 711:../fatfs/ff.c **** 		n = Files[i].ctr;
 712:../fatfs/ff.c **** 		if (n == 0x100) n = 0;
 713:../fatfs/ff.c **** 		if (n) n--;
 714:../fatfs/ff.c **** 		Files[i].ctr = n;
 715:../fatfs/ff.c **** 		if (!n) Files[i].fatfs = 0;
 716:../fatfs/ff.c **** 		res = FR_OK;
 717:../fatfs/ff.c **** 	} else {
 718:../fatfs/ff.c **** 		res = FR_INT_ERR;
 719:../fatfs/ff.c **** 	}
 720:../fatfs/ff.c **** 	return res;
 721:../fatfs/ff.c **** }
 722:../fatfs/ff.c **** 
 723:../fatfs/ff.c **** 
 724:../fatfs/ff.c **** static
 725:../fatfs/ff.c **** void clear_lock (	/* Clear lock entries of the volume */
 726:../fatfs/ff.c **** 	FATFS *fatfs
 727:../fatfs/ff.c **** )
 728:../fatfs/ff.c **** {
 729:../fatfs/ff.c **** 	UINT i;
 730:../fatfs/ff.c **** 
 731:../fatfs/ff.c **** 	for (i = 0; i < _FS_LOCK; i++) {
 732:../fatfs/ff.c **** 		if (Files[i].fatfs == fatfs) Files[i].fatfs = 0;
 733:../fatfs/ff.c **** 	}
 734:../fatfs/ff.c **** }
 735:../fatfs/ff.c **** #endif
 736:../fatfs/ff.c **** 
 737:../fatfs/ff.c **** 
 738:../fatfs/ff.c **** 
 739:../fatfs/ff.c **** /*-----------------------------------------------------------------------*/
 740:../fatfs/ff.c **** /* Move/Flush disk access window                                         */
 741:../fatfs/ff.c **** /*-----------------------------------------------------------------------*/
 742:../fatfs/ff.c **** 
 743:../fatfs/ff.c **** 
 744:../fatfs/ff.c **** #if !_FS_READONLY
 745:../fatfs/ff.c **** static
 746:../fatfs/ff.c **** FRESULT sync_window (
 747:../fatfs/ff.c **** 	FATFS *fs		/* File system object */
 748:../fatfs/ff.c **** )
 749:../fatfs/ff.c **** {
 478              		.loc 1 749 0
 479              		.cfi_startproc
 480              		@ args = 0, pretend = 0, frame = 16
 481              		@ frame_needed = 1, uses_anonymous_args = 0
 482 0000 80B5     		push	{r7, lr}
 483              		.cfi_def_cfa_offset 8
 484              		.cfi_offset 7, -8
 485              		.cfi_offset 14, -4
 486 0002 84B0     		sub	sp, sp, #16
 487              		.cfi_def_cfa_offset 24
 488 0004 00AF     		add	r7, sp, #0
 489              		.cfi_def_cfa_register 7
 490 0006 7860     		str	r0, [r7, #4]
 750:../fatfs/ff.c **** 	DWORD wsect;
 751:../fatfs/ff.c **** 	UINT nf;
 752:../fatfs/ff.c **** 
 753:../fatfs/ff.c **** 	
 754:../fatfs/ff.c **** 	if (fs->wflag) {	/* Write back the sector if it is dirty */
 491              		.loc 1 754 0
 492 0008 7B68     		ldr	r3, [r7, #4]
 493 000a 1B79     		ldrb	r3, [r3, #4]	@ zero_extendqisi2
 494 000c 002B     		cmp	r3, #0
 495 000e 3AD0     		beq	.L22
 755:../fatfs/ff.c **** 		wsect = fs->winsect;	/* Current sector number */
 496              		.loc 1 755 0
 497 0010 7B68     		ldr	r3, [r7, #4]
 498 0012 5B6B     		ldr	r3, [r3, #52]
 499 0014 FB60     		str	r3, [r7, #12]
 756:../fatfs/ff.c **** 		if (disk_write(fs->drv, fs->win, wsect, 1) != RES_OK)
 500              		.loc 1 756 0
 501 0016 7B68     		ldr	r3, [r7, #4]
 502 0018 5A78     		ldrb	r2, [r3, #1]	@ zero_extendqisi2
 503 001a 7B68     		ldr	r3, [r7, #4]
 504 001c 3833     		adds	r3, r3, #56
 505 001e 1046     		mov	r0, r2
 506 0020 1946     		mov	r1, r3
 507 0022 FA68     		ldr	r2, [r7, #12]
 508 0024 0123     		movs	r3, #1
 509 0026 FFF7FEFF 		bl	disk_write
 510 002a 0346     		mov	r3, r0
 511 002c 002B     		cmp	r3, #0
 512 002e 01D0     		beq	.L23
 757:../fatfs/ff.c **** 			return FR_DISK_ERR;
 513              		.loc 1 757 0
 514 0030 0123     		movs	r3, #1
 515 0032 29E0     		b	.L24
 516              	.L23:
 758:../fatfs/ff.c **** 		fs->wflag = 0;
 517              		.loc 1 758 0
 518 0034 7B68     		ldr	r3, [r7, #4]
 519 0036 0022     		movs	r2, #0
 520 0038 1A71     		strb	r2, [r3, #4]
 759:../fatfs/ff.c **** 		if (wsect >= fs->fatbase && wsect < (fs->fatbase + fs->fsize)) {	/* In FAT area? */
 521              		.loc 1 759 0
 522 003a 7B68     		ldr	r3, [r7, #4]
 523 003c 9A6A     		ldr	r2, [r3, #40]
 524 003e FB68     		ldr	r3, [r7, #12]
 525 0040 9A42     		cmp	r2, r3
 526 0042 20D8     		bhi	.L22
 527              		.loc 1 759 0 is_stmt 0 discriminator 1
 528 0044 7B68     		ldr	r3, [r7, #4]
 529 0046 9A6A     		ldr	r2, [r3, #40]
 530 0048 7B68     		ldr	r3, [r7, #4]
 531 004a 1B6A     		ldr	r3, [r3, #32]
 532 004c 1A44     		add	r2, r2, r3
 533 004e FB68     		ldr	r3, [r7, #12]
 534 0050 9A42     		cmp	r2, r3
 535 0052 18D9     		bls	.L22
 760:../fatfs/ff.c **** 			for (nf = fs->n_fats; nf >= 2; nf--) {	/* Reflect the change to all FAT copies */
 536              		.loc 1 760 0 is_stmt 1
 537 0054 7B68     		ldr	r3, [r7, #4]
 538 0056 DB78     		ldrb	r3, [r3, #3]	@ zero_extendqisi2
 539 0058 BB60     		str	r3, [r7, #8]
 540 005a 11E0     		b	.L25
 541              	.L26:
 761:../fatfs/ff.c **** 				wsect += fs->fsize;
 542              		.loc 1 761 0 discriminator 3
 543 005c 7B68     		ldr	r3, [r7, #4]
 544 005e 1B6A     		ldr	r3, [r3, #32]
 545 0060 FA68     		ldr	r2, [r7, #12]
 546 0062 1344     		add	r3, r3, r2
 547 0064 FB60     		str	r3, [r7, #12]
 762:../fatfs/ff.c **** 				disk_write(fs->drv, fs->win, wsect, 1);
 548              		.loc 1 762 0 discriminator 3
 549 0066 7B68     		ldr	r3, [r7, #4]
 550 0068 5A78     		ldrb	r2, [r3, #1]	@ zero_extendqisi2
 551 006a 7B68     		ldr	r3, [r7, #4]
 552 006c 3833     		adds	r3, r3, #56
 553 006e 1046     		mov	r0, r2
 554 0070 1946     		mov	r1, r3
 555 0072 FA68     		ldr	r2, [r7, #12]
 556 0074 0123     		movs	r3, #1
 557 0076 FFF7FEFF 		bl	disk_write
 760:../fatfs/ff.c **** 			for (nf = fs->n_fats; nf >= 2; nf--) {	/* Reflect the change to all FAT copies */
 558              		.loc 1 760 0 discriminator 3
 559 007a BB68     		ldr	r3, [r7, #8]
 560 007c 013B     		subs	r3, r3, #1
 561 007e BB60     		str	r3, [r7, #8]
 562              	.L25:
 760:../fatfs/ff.c **** 			for (nf = fs->n_fats; nf >= 2; nf--) {	/* Reflect the change to all FAT copies */
 563              		.loc 1 760 0 is_stmt 0 discriminator 1
 564 0080 BB68     		ldr	r3, [r7, #8]
 565 0082 012B     		cmp	r3, #1
 566 0084 EAD8     		bhi	.L26
 567              	.L22:
 763:../fatfs/ff.c **** 			}
 764:../fatfs/ff.c **** 		}
 765:../fatfs/ff.c **** 	}
 766:../fatfs/ff.c **** 	return FR_OK;
 568              		.loc 1 766 0 is_stmt 1
 569 0086 0023     		movs	r3, #0
 570              	.L24:
 767:../fatfs/ff.c **** }
 571              		.loc 1 767 0
 572 0088 1846     		mov	r0, r3
 573 008a 1037     		adds	r7, r7, #16
 574              		.cfi_def_cfa_offset 8
 575 008c BD46     		mov	sp, r7
 576              		.cfi_def_cfa_register 13
 577              		@ sp needed
 578 008e 80BD     		pop	{r7, pc}
 579              		.cfi_endproc
 580              	.LFE5:
 582              		.section	.text.move_window,"ax",%progbits
 583              		.align	2
 584              		.thumb
 585              		.thumb_func
 587              	move_window:
 588              	.LFB6:
 768:../fatfs/ff.c **** #endif
 769:../fatfs/ff.c **** 
 770:../fatfs/ff.c **** 
 771:../fatfs/ff.c **** static
 772:../fatfs/ff.c **** FRESULT move_window (
 773:../fatfs/ff.c **** 	FATFS *fs,		/* File system object */
 774:../fatfs/ff.c **** 	DWORD sector	/* Sector number to make appearance in the fs->win[] */
 775:../fatfs/ff.c **** )
 776:../fatfs/ff.c **** {
 589              		.loc 1 776 0
 590              		.cfi_startproc
 591              		@ args = 0, pretend = 0, frame = 8
 592              		@ frame_needed = 1, uses_anonymous_args = 0
 593 0000 80B5     		push	{r7, lr}
 594              		.cfi_def_cfa_offset 8
 595              		.cfi_offset 7, -8
 596              		.cfi_offset 14, -4
 597 0002 82B0     		sub	sp, sp, #8
 598              		.cfi_def_cfa_offset 16
 599 0004 00AF     		add	r7, sp, #0
 600              		.cfi_def_cfa_register 7
 601 0006 7860     		str	r0, [r7, #4]
 602 0008 3960     		str	r1, [r7]
 777:../fatfs/ff.c **** 	if (sector != fs->winsect) {	/* Changed current window */
 603              		.loc 1 777 0
 604 000a 7B68     		ldr	r3, [r7, #4]
 605 000c 5A6B     		ldr	r2, [r3, #52]
 606 000e 3B68     		ldr	r3, [r7]
 607 0010 9A42     		cmp	r2, r3
 608 0012 19D0     		beq	.L28
 778:../fatfs/ff.c **** #if !_FS_READONLY
 779:../fatfs/ff.c **** 		if (sync_window(fs) != FR_OK)
 609              		.loc 1 779 0
 610 0014 7868     		ldr	r0, [r7, #4]
 611 0016 FFF7FEFF 		bl	sync_window
 612 001a 0346     		mov	r3, r0
 613 001c 002B     		cmp	r3, #0
 614 001e 01D0     		beq	.L29
 780:../fatfs/ff.c **** 			return FR_DISK_ERR;
 615              		.loc 1 780 0
 616 0020 0123     		movs	r3, #1
 617 0022 12E0     		b	.L30
 618              	.L29:
 781:../fatfs/ff.c **** #endif
 782:../fatfs/ff.c **** 		if (disk_read(fs->drv, fs->win, sector, 1) != RES_OK)
 619              		.loc 1 782 0
 620 0024 7B68     		ldr	r3, [r7, #4]
 621 0026 5A78     		ldrb	r2, [r3, #1]	@ zero_extendqisi2
 622 0028 7B68     		ldr	r3, [r7, #4]
 623 002a 3833     		adds	r3, r3, #56
 624 002c 1046     		mov	r0, r2
 625 002e 1946     		mov	r1, r3
 626 0030 3A68     		ldr	r2, [r7]
 627 0032 0123     		movs	r3, #1
 628 0034 FFF7FEFF 		bl	disk_read
 629 0038 0346     		mov	r3, r0
 630 003a 002B     		cmp	r3, #0
 631 003c 01D0     		beq	.L31
 783:../fatfs/ff.c **** 			return FR_DISK_ERR;
 632              		.loc 1 783 0
 633 003e 0123     		movs	r3, #1
 634 0040 03E0     		b	.L30
 635              	.L31:
 784:../fatfs/ff.c **** 		fs->winsect = sector;
 636              		.loc 1 784 0
 637 0042 7B68     		ldr	r3, [r7, #4]
 638 0044 3A68     		ldr	r2, [r7]
 639 0046 5A63     		str	r2, [r3, #52]
 640              	.L28:
 785:../fatfs/ff.c **** 	}
 786:../fatfs/ff.c **** 
 787:../fatfs/ff.c **** 	return FR_OK;
 641              		.loc 1 787 0
 642 0048 0023     		movs	r3, #0
 643              	.L30:
 788:../fatfs/ff.c **** }
 644              		.loc 1 788 0
 645 004a 1846     		mov	r0, r3
 646 004c 0837     		adds	r7, r7, #8
 647              		.cfi_def_cfa_offset 8
 648 004e BD46     		mov	sp, r7
 649              		.cfi_def_cfa_register 13
 650              		@ sp needed
 651 0050 80BD     		pop	{r7, pc}
 652              		.cfi_endproc
 653              	.LFE6:
 655 0052 00BF     		.section	.text.sync_fs,"ax",%progbits
 656              		.align	2
 657              		.thumb
 658              		.thumb_func
 660              	sync_fs:
 661              	.LFB7:
 789:../fatfs/ff.c **** 
 790:../fatfs/ff.c **** 
 791:../fatfs/ff.c **** 
 792:../fatfs/ff.c **** 
 793:../fatfs/ff.c **** /*-----------------------------------------------------------------------*/
 794:../fatfs/ff.c **** /* Synchronize file system and strage device                             */
 795:../fatfs/ff.c **** /*-----------------------------------------------------------------------*/
 796:../fatfs/ff.c **** #if !_FS_READONLY
 797:../fatfs/ff.c **** static
 798:../fatfs/ff.c **** FRESULT sync_fs (	/* FR_OK: successful, FR_DISK_ERR: failed */
 799:../fatfs/ff.c **** 	FATFS *fs		/* File system object */
 800:../fatfs/ff.c **** )
 801:../fatfs/ff.c **** {
 662              		.loc 1 801 0
 663              		.cfi_startproc
 664              		@ args = 0, pretend = 0, frame = 16
 665              		@ frame_needed = 1, uses_anonymous_args = 0
 666 0000 80B5     		push	{r7, lr}
 667              		.cfi_def_cfa_offset 8
 668              		.cfi_offset 7, -8
 669              		.cfi_offset 14, -4
 670 0002 84B0     		sub	sp, sp, #16
 671              		.cfi_def_cfa_offset 24
 672 0004 00AF     		add	r7, sp, #0
 673              		.cfi_def_cfa_register 7
 674 0006 7860     		str	r0, [r7, #4]
 802:../fatfs/ff.c **** 	FRESULT res;
 803:../fatfs/ff.c **** 
 804:../fatfs/ff.c **** 
 805:../fatfs/ff.c **** 	res = sync_window(fs);
 675              		.loc 1 805 0
 676 0008 7868     		ldr	r0, [r7, #4]
 677 000a FFF7FEFF 		bl	sync_window
 678 000e 0346     		mov	r3, r0
 679 0010 FB73     		strb	r3, [r7, #15]
 806:../fatfs/ff.c **** 	if (res == FR_OK) {
 680              		.loc 1 806 0
 681 0012 FB7B     		ldrb	r3, [r7, #15]	@ zero_extendqisi2
 682 0014 002B     		cmp	r3, #0
 683 0016 40F09280 		bne	.L33
 807:../fatfs/ff.c **** 		/* Update FSInfo sector if needed */
 808:../fatfs/ff.c **** 		if (fs->fs_type == FS_FAT32 && fs->fsi_flag) {
 684              		.loc 1 808 0
 685 001a 7B68     		ldr	r3, [r7, #4]
 686 001c 1B78     		ldrb	r3, [r3]	@ zero_extendqisi2
 687 001e 032B     		cmp	r3, #3
 688 0020 40F08180 		bne	.L34
 689              		.loc 1 808 0 is_stmt 0 discriminator 1
 690 0024 7B68     		ldr	r3, [r7, #4]
 691 0026 5B79     		ldrb	r3, [r3, #5]	@ zero_extendqisi2
 692 0028 002B     		cmp	r3, #0
 693 002a 7CD0     		beq	.L34
 809:../fatfs/ff.c **** 			fs->winsect = 0;
 694              		.loc 1 809 0 is_stmt 1
 695 002c 7B68     		ldr	r3, [r7, #4]
 696 002e 0022     		movs	r2, #0
 697 0030 5A63     		str	r2, [r3, #52]
 810:../fatfs/ff.c **** 			/* Create FSInfo structure */
 811:../fatfs/ff.c **** 			mem_set(fs->win, 0, 512);
 698              		.loc 1 811 0
 699 0032 7B68     		ldr	r3, [r7, #4]
 700 0034 3833     		adds	r3, r3, #56
 701 0036 1846     		mov	r0, r3
 702 0038 0021     		movs	r1, #0
 703 003a 4FF40072 		mov	r2, #512
 704 003e FFF7FEFF 		bl	mem_set
 812:../fatfs/ff.c **** 			ST_WORD(fs->win+BS_55AA, 0xAA55);
 705              		.loc 1 812 0
 706 0042 7B68     		ldr	r3, [r7, #4]
 707 0044 5522     		movs	r2, #85
 708 0046 83F83622 		strb	r2, [r3, #566]
 709 004a 7B68     		ldr	r3, [r7, #4]
 710 004c AA22     		movs	r2, #170
 711 004e 83F83722 		strb	r2, [r3, #567]
 813:../fatfs/ff.c **** 			ST_DWORD(fs->win+FSI_LeadSig, 0x41615252);
 712              		.loc 1 813 0
 713 0052 7B68     		ldr	r3, [r7, #4]
 714 0054 5222     		movs	r2, #82
 715 0056 83F83820 		strb	r2, [r3, #56]
 716 005a 7B68     		ldr	r3, [r7, #4]
 717 005c 5222     		movs	r2, #82
 718 005e 83F83920 		strb	r2, [r3, #57]
 719 0062 7B68     		ldr	r3, [r7, #4]
 720 0064 6122     		movs	r2, #97
 721 0066 83F83A20 		strb	r2, [r3, #58]
 722 006a 7B68     		ldr	r3, [r7, #4]
 723 006c 4122     		movs	r2, #65
 724 006e 83F83B20 		strb	r2, [r3, #59]
 814:../fatfs/ff.c **** 			ST_DWORD(fs->win+FSI_StrucSig, 0x61417272);
 725              		.loc 1 814 0
 726 0072 7B68     		ldr	r3, [r7, #4]
 727 0074 7222     		movs	r2, #114
 728 0076 83F81C22 		strb	r2, [r3, #540]
 729 007a 7B68     		ldr	r3, [r7, #4]
 730 007c 7222     		movs	r2, #114
 731 007e 83F81D22 		strb	r2, [r3, #541]
 732 0082 7B68     		ldr	r3, [r7, #4]
 733 0084 4122     		movs	r2, #65
 734 0086 83F81E22 		strb	r2, [r3, #542]
 735 008a 7B68     		ldr	r3, [r7, #4]
 736 008c 6122     		movs	r2, #97
 737 008e 83F81F22 		strb	r2, [r3, #543]
 815:../fatfs/ff.c **** 			ST_DWORD(fs->win+FSI_Free_Count, fs->free_clust);
 738              		.loc 1 815 0
 739 0092 7B68     		ldr	r3, [r7, #4]
 740 0094 1B69     		ldr	r3, [r3, #16]
 741 0096 DAB2     		uxtb	r2, r3
 742 0098 7B68     		ldr	r3, [r7, #4]
 743 009a 83F82022 		strb	r2, [r3, #544]
 744 009e 7B68     		ldr	r3, [r7, #4]
 745 00a0 1B69     		ldr	r3, [r3, #16]
 746 00a2 9BB2     		uxth	r3, r3
 747 00a4 1B0A     		lsrs	r3, r3, #8
 748 00a6 9BB2     		uxth	r3, r3
 749 00a8 DAB2     		uxtb	r2, r3
 750 00aa 7B68     		ldr	r3, [r7, #4]
 751 00ac 83F82122 		strb	r2, [r3, #545]
 752 00b0 7B68     		ldr	r3, [r7, #4]
 753 00b2 1B69     		ldr	r3, [r3, #16]
 754 00b4 1B0C     		lsrs	r3, r3, #16
 755 00b6 DAB2     		uxtb	r2, r3
 756 00b8 7B68     		ldr	r3, [r7, #4]
 757 00ba 83F82222 		strb	r2, [r3, #546]
 758 00be 7B68     		ldr	r3, [r7, #4]
 759 00c0 1B69     		ldr	r3, [r3, #16]
 760 00c2 1B0E     		lsrs	r3, r3, #24
 761 00c4 DAB2     		uxtb	r2, r3
 762 00c6 7B68     		ldr	r3, [r7, #4]
 763 00c8 83F82322 		strb	r2, [r3, #547]
 816:../fatfs/ff.c **** 			ST_DWORD(fs->win+FSI_Nxt_Free, fs->last_clust);
 764              		.loc 1 816 0
 765 00cc 7B68     		ldr	r3, [r7, #4]
 766 00ce DB68     		ldr	r3, [r3, #12]
 767 00d0 DAB2     		uxtb	r2, r3
 768 00d2 7B68     		ldr	r3, [r7, #4]
 769 00d4 83F82422 		strb	r2, [r3, #548]
 770 00d8 7B68     		ldr	r3, [r7, #4]
 771 00da DB68     		ldr	r3, [r3, #12]
 772 00dc 9BB2     		uxth	r3, r3
 773 00de 1B0A     		lsrs	r3, r3, #8
 774 00e0 9BB2     		uxth	r3, r3
 775 00e2 DAB2     		uxtb	r2, r3
 776 00e4 7B68     		ldr	r3, [r7, #4]
 777 00e6 83F82522 		strb	r2, [r3, #549]
 778 00ea 7B68     		ldr	r3, [r7, #4]
 779 00ec DB68     		ldr	r3, [r3, #12]
 780 00ee 1B0C     		lsrs	r3, r3, #16
 781 00f0 DAB2     		uxtb	r2, r3
 782 00f2 7B68     		ldr	r3, [r7, #4]
 783 00f4 83F82622 		strb	r2, [r3, #550]
 784 00f8 7B68     		ldr	r3, [r7, #4]
 785 00fa DB68     		ldr	r3, [r3, #12]
 786 00fc 1B0E     		lsrs	r3, r3, #24
 787 00fe DAB2     		uxtb	r2, r3
 788 0100 7B68     		ldr	r3, [r7, #4]
 789 0102 83F82722 		strb	r2, [r3, #551]
 817:../fatfs/ff.c **** 			/* Write it into the FSInfo sector */
 818:../fatfs/ff.c **** 			disk_write(fs->drv, fs->win, fs->fsi_sector, 1);
 790              		.loc 1 818 0
 791 0106 7B68     		ldr	r3, [r7, #4]
 792 0108 5978     		ldrb	r1, [r3, #1]	@ zero_extendqisi2
 793 010a 7B68     		ldr	r3, [r7, #4]
 794 010c 03F13802 		add	r2, r3, #56
 795 0110 7B68     		ldr	r3, [r7, #4]
 796 0112 5B69     		ldr	r3, [r3, #20]
 797 0114 0846     		mov	r0, r1
 798 0116 1146     		mov	r1, r2
 799 0118 1A46     		mov	r2, r3
 800 011a 0123     		movs	r3, #1
 801 011c FFF7FEFF 		bl	disk_write
 819:../fatfs/ff.c **** 			fs->fsi_flag = 0;
 802              		.loc 1 819 0
 803 0120 7B68     		ldr	r3, [r7, #4]
 804 0122 0022     		movs	r2, #0
 805 0124 5A71     		strb	r2, [r3, #5]
 806              	.L34:
 820:../fatfs/ff.c **** 		}
 821:../fatfs/ff.c **** 		/* Make sure that no pending write process in the physical drive */
 822:../fatfs/ff.c **** 		if (disk_ioctl(fs->drv, CTRL_SYNC, 0) != RES_OK)
 807              		.loc 1 822 0
 808 0126 7B68     		ldr	r3, [r7, #4]
 809 0128 5B78     		ldrb	r3, [r3, #1]	@ zero_extendqisi2
 810 012a 1846     		mov	r0, r3
 811 012c 0021     		movs	r1, #0
 812 012e 0022     		movs	r2, #0
 813 0130 FFF7FEFF 		bl	disk_ioctl
 814 0134 0346     		mov	r3, r0
 815 0136 002B     		cmp	r3, #0
 816 0138 01D0     		beq	.L33
 823:../fatfs/ff.c **** 			res = FR_DISK_ERR;
 817              		.loc 1 823 0
 818 013a 0123     		movs	r3, #1
 819 013c FB73     		strb	r3, [r7, #15]
 820              	.L33:
 824:../fatfs/ff.c **** 	}
 825:../fatfs/ff.c **** 
 826:../fatfs/ff.c **** 	return res;
 821              		.loc 1 826 0
 822 013e FB7B     		ldrb	r3, [r7, #15]	@ zero_extendqisi2
 827:../fatfs/ff.c **** }
 823              		.loc 1 827 0
 824 0140 1846     		mov	r0, r3
 825 0142 1037     		adds	r7, r7, #16
 826              		.cfi_def_cfa_offset 8
 827 0144 BD46     		mov	sp, r7
 828              		.cfi_def_cfa_register 13
 829              		@ sp needed
 830 0146 80BD     		pop	{r7, pc}
 831              		.cfi_endproc
 832              	.LFE7:
 834              		.section	.text.clust2sect,"ax",%progbits
 835              		.align	2
 836              		.global	clust2sect
 837              		.thumb
 838              		.thumb_func
 840              	clust2sect:
 841              	.LFB8:
 828:../fatfs/ff.c **** #endif
 829:../fatfs/ff.c **** 
 830:../fatfs/ff.c **** 
 831:../fatfs/ff.c **** 
 832:../fatfs/ff.c **** 
 833:../fatfs/ff.c **** /*-----------------------------------------------------------------------*/
 834:../fatfs/ff.c **** /* Get sector# from cluster#                                             */
 835:../fatfs/ff.c **** /*-----------------------------------------------------------------------*/
 836:../fatfs/ff.c **** 
 837:../fatfs/ff.c **** 
 838:../fatfs/ff.c **** DWORD clust2sect (	/* !=0: Sector number, 0: Failed - invalid cluster# */
 839:../fatfs/ff.c **** 	FATFS *fs,		/* File system object */
 840:../fatfs/ff.c **** 	DWORD clst		/* Cluster# to be converted */
 841:../fatfs/ff.c **** )
 842:../fatfs/ff.c **** {
 842              		.loc 1 842 0
 843              		.cfi_startproc
 844              		@ args = 0, pretend = 0, frame = 8
 845              		@ frame_needed = 1, uses_anonymous_args = 0
 846              		@ link register save eliminated.
 847 0000 80B4     		push	{r7}
 848              		.cfi_def_cfa_offset 4
 849              		.cfi_offset 7, -4
 850 0002 83B0     		sub	sp, sp, #12
 851              		.cfi_def_cfa_offset 16
 852 0004 00AF     		add	r7, sp, #0
 853              		.cfi_def_cfa_register 7
 854 0006 7860     		str	r0, [r7, #4]
 855 0008 3960     		str	r1, [r7]
 843:../fatfs/ff.c **** 	clst -= 2;
 856              		.loc 1 843 0
 857 000a 3B68     		ldr	r3, [r7]
 858 000c 023B     		subs	r3, r3, #2
 859 000e 3B60     		str	r3, [r7]
 844:../fatfs/ff.c **** 	if (clst >= (fs->n_fatent - 2)) return 0;		/* Invalid cluster# */
 860              		.loc 1 844 0
 861 0010 7B68     		ldr	r3, [r7, #4]
 862 0012 DB69     		ldr	r3, [r3, #28]
 863 0014 9A1E     		subs	r2, r3, #2
 864 0016 3B68     		ldr	r3, [r7]
 865 0018 9A42     		cmp	r2, r3
 866 001a 01D8     		bhi	.L37
 867              		.loc 1 844 0 is_stmt 0 discriminator 1
 868 001c 0023     		movs	r3, #0
 869 001e 08E0     		b	.L38
 870              	.L37:
 845:../fatfs/ff.c **** 	return clst * fs->csize + fs->database;
 871              		.loc 1 845 0 is_stmt 1
 872 0020 7B68     		ldr	r3, [r7, #4]
 873 0022 9B78     		ldrb	r3, [r3, #2]	@ zero_extendqisi2
 874 0024 1A46     		mov	r2, r3
 875 0026 3B68     		ldr	r3, [r7]
 876 0028 03FB02F2 		mul	r2, r3, r2
 877 002c 7B68     		ldr	r3, [r7, #4]
 878 002e 1B6B     		ldr	r3, [r3, #48]
 879 0030 1344     		add	r3, r3, r2
 880              	.L38:
 846:../fatfs/ff.c **** }
 881              		.loc 1 846 0
 882 0032 1846     		mov	r0, r3
 883 0034 0C37     		adds	r7, r7, #12
 884              		.cfi_def_cfa_offset 4
 885 0036 BD46     		mov	sp, r7
 886              		.cfi_def_cfa_register 13
 887              		@ sp needed
 888 0038 5DF8047B 		ldr	r7, [sp], #4
 889              		.cfi_restore 7
 890              		.cfi_def_cfa_offset 0
 891 003c 7047     		bx	lr
 892              		.cfi_endproc
 893              	.LFE8:
 895 003e 00BF     		.section	.text.get_fat,"ax",%progbits
 896              		.align	2
 897              		.global	get_fat
 898              		.thumb
 899              		.thumb_func
 901              	get_fat:
 902              	.LFB9:
 847:../fatfs/ff.c **** 
 848:../fatfs/ff.c **** 
 849:../fatfs/ff.c **** 
 850:../fatfs/ff.c **** 
 851:../fatfs/ff.c **** /*-----------------------------------------------------------------------*/
 852:../fatfs/ff.c **** /* FAT access - Read value of a FAT entry                                */
 853:../fatfs/ff.c **** /*-----------------------------------------------------------------------*/
 854:../fatfs/ff.c **** 
 855:../fatfs/ff.c **** 
 856:../fatfs/ff.c **** DWORD get_fat (	/* 0xFFFFFFFF:Disk error, 1:Internal error, Else:Cluster status */
 857:../fatfs/ff.c **** 	FATFS *fs,	/* File system object */
 858:../fatfs/ff.c **** 	DWORD clst	/* Cluster# to get the link information */
 859:../fatfs/ff.c **** )
 860:../fatfs/ff.c **** {
 903              		.loc 1 860 0
 904              		.cfi_startproc
 905              		@ args = 0, pretend = 0, frame = 24
 906              		@ frame_needed = 1, uses_anonymous_args = 0
 907 0000 80B5     		push	{r7, lr}
 908              		.cfi_def_cfa_offset 8
 909              		.cfi_offset 7, -8
 910              		.cfi_offset 14, -4
 911 0002 86B0     		sub	sp, sp, #24
 912              		.cfi_def_cfa_offset 32
 913 0004 00AF     		add	r7, sp, #0
 914              		.cfi_def_cfa_register 7
 915 0006 7860     		str	r0, [r7, #4]
 916 0008 3960     		str	r1, [r7]
 861:../fatfs/ff.c **** 	UINT wc, bc;
 862:../fatfs/ff.c **** 	BYTE *p;
 863:../fatfs/ff.c **** 
 864:../fatfs/ff.c **** 
 865:../fatfs/ff.c **** 	if (clst < 2 || clst >= fs->n_fatent)	/* Check range */
 917              		.loc 1 865 0
 918 000a 3B68     		ldr	r3, [r7]
 919 000c 012B     		cmp	r3, #1
 920 000e 04D9     		bls	.L40
 921              		.loc 1 865 0 is_stmt 0 discriminator 1
 922 0010 7B68     		ldr	r3, [r7, #4]
 923 0012 DA69     		ldr	r2, [r3, #28]
 924 0014 3B68     		ldr	r3, [r7]
 925 0016 9A42     		cmp	r2, r3
 926 0018 01D8     		bhi	.L41
 927              	.L40:
 866:../fatfs/ff.c **** 		return 1;
 928              		.loc 1 866 0 is_stmt 1
 929 001a 0123     		movs	r3, #1
 930 001c 98E0     		b	.L42
 931              	.L41:
 867:../fatfs/ff.c **** 
 868:../fatfs/ff.c **** 	switch (fs->fs_type) {
 932              		.loc 1 868 0
 933 001e 7B68     		ldr	r3, [r7, #4]
 934 0020 1B78     		ldrb	r3, [r3]	@ zero_extendqisi2
 935 0022 022B     		cmp	r3, #2
 936 0024 48D0     		beq	.L44
 937 0026 032B     		cmp	r3, #3
 938 0028 67D0     		beq	.L45
 939 002a 012B     		cmp	r3, #1
 940 002c 40F08E80 		bne	.L43
 869:../fatfs/ff.c **** 	case FS_FAT12 :
 870:../fatfs/ff.c **** 		bc = (UINT)clst; bc += bc / 2;
 941              		.loc 1 870 0
 942 0030 3B68     		ldr	r3, [r7]
 943 0032 7B61     		str	r3, [r7, #20]
 944 0034 7B69     		ldr	r3, [r7, #20]
 945 0036 5B08     		lsrs	r3, r3, #1
 946 0038 7A69     		ldr	r2, [r7, #20]
 947 003a 1344     		add	r3, r3, r2
 948 003c 7B61     		str	r3, [r7, #20]
 871:../fatfs/ff.c **** 		if (move_window(fs, fs->fatbase + (bc / SS(fatfs)))) break;
 949              		.loc 1 871 0
 950 003e 7B68     		ldr	r3, [r7, #4]
 951 0040 9A6A     		ldr	r2, [r3, #40]
 952 0042 7B69     		ldr	r3, [r7, #20]
 953 0044 5B0A     		lsrs	r3, r3, #9
 954 0046 1344     		add	r3, r3, r2
 955 0048 7868     		ldr	r0, [r7, #4]
 956 004a 1946     		mov	r1, r3
 957 004c FFF7FEFF 		bl	move_window
 958 0050 0346     		mov	r3, r0
 959 0052 002B     		cmp	r3, #0
 960 0054 00D0     		beq	.L47
 961 0056 79E0     		b	.L43
 962              	.L47:
 872:../fatfs/ff.c **** 		wc = fs->win[bc % SS(fatfs)]; bc++;
 963              		.loc 1 872 0
 964 0058 7B69     		ldr	r3, [r7, #20]
 965 005a C3F30803 		ubfx	r3, r3, #0, #9
 966 005e 7A68     		ldr	r2, [r7, #4]
 967 0060 1344     		add	r3, r3, r2
 968 0062 93F83830 		ldrb	r3, [r3, #56]	@ zero_extendqisi2
 969 0066 3B61     		str	r3, [r7, #16]
 970 0068 7B69     		ldr	r3, [r7, #20]
 971 006a 0133     		adds	r3, r3, #1
 972 006c 7B61     		str	r3, [r7, #20]
 873:../fatfs/ff.c **** 		if (move_window(fs, fs->fatbase + (bc / SS(fatfs)))) break;
 973              		.loc 1 873 0
 974 006e 7B68     		ldr	r3, [r7, #4]
 975 0070 9A6A     		ldr	r2, [r3, #40]
 976 0072 7B69     		ldr	r3, [r7, #20]
 977 0074 5B0A     		lsrs	r3, r3, #9
 978 0076 1344     		add	r3, r3, r2
 979 0078 7868     		ldr	r0, [r7, #4]
 980 007a 1946     		mov	r1, r3
 981 007c FFF7FEFF 		bl	move_window
 982 0080 0346     		mov	r3, r0
 983 0082 002B     		cmp	r3, #0
 984 0084 00D0     		beq	.L48
 985 0086 61E0     		b	.L43
 986              	.L48:
 874:../fatfs/ff.c **** 		wc |= fs->win[bc % SS(fatfs)] << 8;
 987              		.loc 1 874 0
 988 0088 7B69     		ldr	r3, [r7, #20]
 989 008a C3F30803 		ubfx	r3, r3, #0, #9
 990 008e 7A68     		ldr	r2, [r7, #4]
 991 0090 1344     		add	r3, r3, r2
 992 0092 93F83830 		ldrb	r3, [r3, #56]	@ zero_extendqisi2
 993 0096 1B02     		lsls	r3, r3, #8
 994 0098 1A46     		mov	r2, r3
 995 009a 3B69     		ldr	r3, [r7, #16]
 996 009c 1343     		orrs	r3, r3, r2
 997 009e 3B61     		str	r3, [r7, #16]
 875:../fatfs/ff.c **** 		return (clst & 1) ? (wc >> 4) : (wc & 0xFFF);
 998              		.loc 1 875 0
 999 00a0 3B68     		ldr	r3, [r7]
 1000 00a2 03F00103 		and	r3, r3, #1
 1001 00a6 002B     		cmp	r3, #0
 1002 00a8 02D0     		beq	.L49
 1003              		.loc 1 875 0 is_stmt 0 discriminator 1
 1004 00aa 3B69     		ldr	r3, [r7, #16]
 1005 00ac 1B09     		lsrs	r3, r3, #4
 1006 00ae 4FE0     		b	.L42
 1007              	.L49:
 1008              		.loc 1 875 0 discriminator 2
 1009 00b0 3B69     		ldr	r3, [r7, #16]
 1010 00b2 C3F30B03 		ubfx	r3, r3, #0, #12
 1011 00b6 4BE0     		b	.L42
 1012              	.L44:
 876:../fatfs/ff.c **** 
 877:../fatfs/ff.c **** 	case FS_FAT16 :
 878:../fatfs/ff.c **** 		if (move_window(fs, fs->fatbase + (clst / (SS(fatfs) / 2)))) break;
 1013              		.loc 1 878 0 is_stmt 1
 1014 00b8 7B68     		ldr	r3, [r7, #4]
 1015 00ba 9A6A     		ldr	r2, [r3, #40]
 1016 00bc 3B68     		ldr	r3, [r7]
 1017 00be 1B0A     		lsrs	r3, r3, #8
 1018 00c0 1344     		add	r3, r3, r2
 1019 00c2 7868     		ldr	r0, [r7, #4]
 1020 00c4 1946     		mov	r1, r3
 1021 00c6 FFF7FEFF 		bl	move_window
 1022 00ca 0346     		mov	r3, r0
 1023 00cc 002B     		cmp	r3, #0
 1024 00ce 00D0     		beq	.L51
 1025 00d0 3CE0     		b	.L43
 1026              	.L51:
 879:../fatfs/ff.c **** 		p = &fs->win[clst * 2 % SS(fatfs)];
 1027              		.loc 1 879 0
 1028 00d2 3B68     		ldr	r3, [r7]
 1029 00d4 5B00     		lsls	r3, r3, #1
 1030 00d6 03F4FF73 		and	r3, r3, #510
 1031 00da 3833     		adds	r3, r3, #56
 1032 00dc 7A68     		ldr	r2, [r7, #4]
 1033 00de 1344     		add	r3, r3, r2
 1034 00e0 FB60     		str	r3, [r7, #12]
 880:../fatfs/ff.c **** 		return LD_WORD(p);
 1035              		.loc 1 880 0
 1036 00e2 FB68     		ldr	r3, [r7, #12]
 1037 00e4 0133     		adds	r3, r3, #1
 1038 00e6 1B78     		ldrb	r3, [r3]	@ zero_extendqisi2
 1039 00e8 1B02     		lsls	r3, r3, #8
 1040 00ea 9AB2     		uxth	r2, r3
 1041 00ec FB68     		ldr	r3, [r7, #12]
 1042 00ee 1B78     		ldrb	r3, [r3]	@ zero_extendqisi2
 1043 00f0 9BB2     		uxth	r3, r3
 1044 00f2 1343     		orrs	r3, r3, r2
 1045 00f4 9BB2     		uxth	r3, r3
 1046 00f6 9BB2     		uxth	r3, r3
 1047 00f8 2AE0     		b	.L42
 1048              	.L45:
 881:../fatfs/ff.c **** 
 882:../fatfs/ff.c **** 	case FS_FAT32 :
 883:../fatfs/ff.c **** 		if (move_window(fs, fs->fatbase + (clst / (SS(fatfs) / 4)))) break;
 1049              		.loc 1 883 0
 1050 00fa 7B68     		ldr	r3, [r7, #4]
 1051 00fc 9A6A     		ldr	r2, [r3, #40]
 1052 00fe 3B68     		ldr	r3, [r7]
 1053 0100 DB09     		lsrs	r3, r3, #7
 1054 0102 1344     		add	r3, r3, r2
 1055 0104 7868     		ldr	r0, [r7, #4]
 1056 0106 1946     		mov	r1, r3
 1057 0108 FFF7FEFF 		bl	move_window
 1058 010c 0346     		mov	r3, r0
 1059 010e 002B     		cmp	r3, #0
 1060 0110 00D0     		beq	.L52
 1061 0112 1BE0     		b	.L43
 1062              	.L52:
 884:../fatfs/ff.c **** 		p = &fs->win[clst * 4 % SS(fatfs)];
 1063              		.loc 1 884 0
 1064 0114 3B68     		ldr	r3, [r7]
 1065 0116 9B00     		lsls	r3, r3, #2
 1066 0118 03F4FE73 		and	r3, r3, #508
 1067 011c 3833     		adds	r3, r3, #56
 1068 011e 7A68     		ldr	r2, [r7, #4]
 1069 0120 1344     		add	r3, r3, r2
 1070 0122 FB60     		str	r3, [r7, #12]
 885:../fatfs/ff.c **** 		return LD_DWORD(p) & 0x0FFFFFFF;
 1071              		.loc 1 885 0
 1072 0124 FB68     		ldr	r3, [r7, #12]
 1073 0126 0333     		adds	r3, r3, #3
 1074 0128 1B78     		ldrb	r3, [r3]	@ zero_extendqisi2
 1075 012a 1A06     		lsls	r2, r3, #24
 1076 012c FB68     		ldr	r3, [r7, #12]
 1077 012e 0233     		adds	r3, r3, #2
 1078 0130 1B78     		ldrb	r3, [r3]	@ zero_extendqisi2
 1079 0132 1B04     		lsls	r3, r3, #16
 1080 0134 1343     		orrs	r3, r3, r2
 1081 0136 FA68     		ldr	r2, [r7, #12]
 1082 0138 0132     		adds	r2, r2, #1
 1083 013a 1278     		ldrb	r2, [r2]	@ zero_extendqisi2
 1084 013c 1202     		lsls	r2, r2, #8
 1085 013e 1343     		orrs	r3, r3, r2
 1086 0140 FA68     		ldr	r2, [r7, #12]
 1087 0142 1278     		ldrb	r2, [r2]	@ zero_extendqisi2
 1088 0144 1343     		orrs	r3, r3, r2
 1089 0146 23F07043 		bic	r3, r3, #-268435456
 1090 014a 01E0     		b	.L42
 1091              	.L43:
 886:../fatfs/ff.c **** 	}
 887:../fatfs/ff.c **** 
 888:../fatfs/ff.c **** 	return 0xFFFFFFFF;	/* An error occurred at the disk I/O layer */
 1092              		.loc 1 888 0
 1093 014c 4FF0FF33 		mov	r3, #-1
 1094              	.L42:
 889:../fatfs/ff.c **** }
 1095              		.loc 1 889 0
 1096 0150 1846     		mov	r0, r3
 1097 0152 1837     		adds	r7, r7, #24
 1098              		.cfi_def_cfa_offset 8
 1099 0154 BD46     		mov	sp, r7
 1100              		.cfi_def_cfa_register 13
 1101              		@ sp needed
 1102 0156 80BD     		pop	{r7, pc}
 1103              		.cfi_endproc
 1104              	.LFE9:
 1106              		.section	.text.put_fat,"ax",%progbits
 1107              		.align	2
 1108              		.global	put_fat
 1109              		.thumb
 1110              		.thumb_func
 1112              	put_fat:
 1113              	.LFB10:
 890:../fatfs/ff.c **** 
 891:../fatfs/ff.c **** 
 892:../fatfs/ff.c **** 
 893:../fatfs/ff.c **** 
 894:../fatfs/ff.c **** /*-----------------------------------------------------------------------*/
 895:../fatfs/ff.c **** /* FAT access - Change value of a FAT entry                              */
 896:../fatfs/ff.c **** /*-----------------------------------------------------------------------*/
 897:../fatfs/ff.c **** #if !_FS_READONLY
 898:../fatfs/ff.c **** 
 899:../fatfs/ff.c **** FRESULT put_fat (
 900:../fatfs/ff.c **** 	FATFS *fs,	/* File system object */
 901:../fatfs/ff.c **** 	DWORD clst,	/* Cluster# to be changed in range of 2 to fs->n_fatent - 1 */
 902:../fatfs/ff.c **** 	DWORD val	/* New value to mark the cluster */
 903:../fatfs/ff.c **** )
 904:../fatfs/ff.c **** {
 1114              		.loc 1 904 0
 1115              		.cfi_startproc
 1116              		@ args = 0, pretend = 0, frame = 32
 1117              		@ frame_needed = 1, uses_anonymous_args = 0
 1118 0000 80B5     		push	{r7, lr}
 1119              		.cfi_def_cfa_offset 8
 1120              		.cfi_offset 7, -8
 1121              		.cfi_offset 14, -4
 1122 0002 88B0     		sub	sp, sp, #32
 1123              		.cfi_def_cfa_offset 40
 1124 0004 00AF     		add	r7, sp, #0
 1125              		.cfi_def_cfa_register 7
 1126 0006 F860     		str	r0, [r7, #12]
 1127 0008 B960     		str	r1, [r7, #8]
 1128 000a 7A60     		str	r2, [r7, #4]
 905:../fatfs/ff.c **** 	UINT bc;
 906:../fatfs/ff.c **** 	BYTE *p;
 907:../fatfs/ff.c **** 	FRESULT res;
 908:../fatfs/ff.c **** 
 909:../fatfs/ff.c **** 
 910:../fatfs/ff.c **** 	if (clst < 2 || clst >= fs->n_fatent) {	/* Check range */
 1129              		.loc 1 910 0
 1130 000c BB68     		ldr	r3, [r7, #8]
 1131 000e 012B     		cmp	r3, #1
 1132 0010 04D9     		bls	.L54
 1133              		.loc 1 910 0 is_stmt 0 discriminator 1
 1134 0012 FB68     		ldr	r3, [r7, #12]
 1135 0014 DA69     		ldr	r2, [r3, #28]
 1136 0016 BB68     		ldr	r3, [r7, #8]
 1137 0018 9A42     		cmp	r2, r3
 1138 001a 02D8     		bhi	.L55
 1139              	.L54:
 911:../fatfs/ff.c **** 		res = FR_INT_ERR;
 1140              		.loc 1 911 0 is_stmt 1
 1141 001c 0223     		movs	r3, #2
 1142 001e FB77     		strb	r3, [r7, #31]
 1143 0020 E3E0     		b	.L56
 1144              	.L55:
 912:../fatfs/ff.c **** 
 913:../fatfs/ff.c **** 	} else {
 914:../fatfs/ff.c **** 		switch (fs->fs_type) {
 1145              		.loc 1 914 0
 1146 0022 FB68     		ldr	r3, [r7, #12]
 1147 0024 1B78     		ldrb	r3, [r3]	@ zero_extendqisi2
 1148 0026 022B     		cmp	r3, #2
 1149 0028 70D0     		beq	.L58
 1150 002a 032B     		cmp	r3, #3
 1151 002c 00F09280 		beq	.L59
 1152 0030 012B     		cmp	r3, #1
 1153 0032 40F0D580 		bne	.L71
 915:../fatfs/ff.c **** 		case FS_FAT12 :
 916:../fatfs/ff.c **** 			bc = (UINT)clst; bc += bc / 2;
 1154              		.loc 1 916 0
 1155 0036 BB68     		ldr	r3, [r7, #8]
 1156 0038 BB61     		str	r3, [r7, #24]
 1157 003a BB69     		ldr	r3, [r7, #24]
 1158 003c 5B08     		lsrs	r3, r3, #1
 1159 003e BA69     		ldr	r2, [r7, #24]
 1160 0040 1344     		add	r3, r3, r2
 1161 0042 BB61     		str	r3, [r7, #24]
 917:../fatfs/ff.c **** 			res = move_window(fs, fs->fatbase + (bc / SS(fatfs)));
 1162              		.loc 1 917 0
 1163 0044 FB68     		ldr	r3, [r7, #12]
 1164 0046 9A6A     		ldr	r2, [r3, #40]
 1165 0048 BB69     		ldr	r3, [r7, #24]
 1166 004a 5B0A     		lsrs	r3, r3, #9
 1167 004c 1344     		add	r3, r3, r2
 1168 004e F868     		ldr	r0, [r7, #12]
 1169 0050 1946     		mov	r1, r3
 1170 0052 FFF7FEFF 		bl	move_window
 1171 0056 0346     		mov	r3, r0
 1172 0058 FB77     		strb	r3, [r7, #31]
 918:../fatfs/ff.c **** 			if (res != FR_OK) break;
 1173              		.loc 1 918 0
 1174 005a FB7F     		ldrb	r3, [r7, #31]	@ zero_extendqisi2
 1175 005c 002B     		cmp	r3, #0
 1176 005e 00D0     		beq	.L61
 1177 0060 C0E0     		b	.L62
 1178              	.L61:
 919:../fatfs/ff.c **** 			p = &fs->win[bc % SS(fatfs)];
 1179              		.loc 1 919 0
 1180 0062 BB69     		ldr	r3, [r7, #24]
 1181 0064 C3F30803 		ubfx	r3, r3, #0, #9
 1182 0068 3833     		adds	r3, r3, #56
 1183 006a FA68     		ldr	r2, [r7, #12]
 1184 006c 1344     		add	r3, r3, r2
 1185 006e 7B61     		str	r3, [r7, #20]
 920:../fatfs/ff.c **** 			*p = (clst & 1) ? ((*p & 0x0F) | ((BYTE)val << 4)) : (BYTE)val;
 1186              		.loc 1 920 0
 1187 0070 BB68     		ldr	r3, [r7, #8]
 1188 0072 03F00103 		and	r3, r3, #1
 1189 0076 002B     		cmp	r3, #0
 1190 0078 0DD0     		beq	.L63
 1191              		.loc 1 920 0 is_stmt 0 discriminator 1
 1192 007a 7B69     		ldr	r3, [r7, #20]
 1193 007c 1B78     		ldrb	r3, [r3]	@ zero_extendqisi2
 1194 007e DBB2     		uxtb	r3, r3
 1195 0080 03F00F03 		and	r3, r3, #15
 1196 0084 DAB2     		uxtb	r2, r3
 1197 0086 7B68     		ldr	r3, [r7, #4]
 1198 0088 DBB2     		uxtb	r3, r3
 1199 008a 1B01     		lsls	r3, r3, #4
 1200 008c DBB2     		uxtb	r3, r3
 1201 008e 1343     		orrs	r3, r3, r2
 1202 0090 DBB2     		uxtb	r3, r3
 1203 0092 DBB2     		uxtb	r3, r3
 1204 0094 01E0     		b	.L64
 1205              	.L63:
 1206              		.loc 1 920 0 discriminator 2
 1207 0096 7B68     		ldr	r3, [r7, #4]
 1208 0098 DBB2     		uxtb	r3, r3
 1209              	.L64:
 1210              		.loc 1 920 0 discriminator 4
 1211 009a 7A69     		ldr	r2, [r7, #20]
 1212 009c 1370     		strb	r3, [r2]
 921:../fatfs/ff.c **** 			bc++;
 1213              		.loc 1 921 0 is_stmt 1 discriminator 4
 1214 009e BB69     		ldr	r3, [r7, #24]
 1215 00a0 0133     		adds	r3, r3, #1
 1216 00a2 BB61     		str	r3, [r7, #24]
 922:../fatfs/ff.c **** 			fs->wflag = 1;
 1217              		.loc 1 922 0 discriminator 4
 1218 00a4 FB68     		ldr	r3, [r7, #12]
 1219 00a6 0122     		movs	r2, #1
 1220 00a8 1A71     		strb	r2, [r3, #4]
 923:../fatfs/ff.c **** 			res = move_window(fs, fs->fatbase + (bc / SS(fatfs)));
 1221              		.loc 1 923 0 discriminator 4
 1222 00aa FB68     		ldr	r3, [r7, #12]
 1223 00ac 9A6A     		ldr	r2, [r3, #40]
 1224 00ae BB69     		ldr	r3, [r7, #24]
 1225 00b0 5B0A     		lsrs	r3, r3, #9
 1226 00b2 1344     		add	r3, r3, r2
 1227 00b4 F868     		ldr	r0, [r7, #12]
 1228 00b6 1946     		mov	r1, r3
 1229 00b8 FFF7FEFF 		bl	move_window
 1230 00bc 0346     		mov	r3, r0
 1231 00be FB77     		strb	r3, [r7, #31]
 924:../fatfs/ff.c **** 			if (res != FR_OK) break;
 1232              		.loc 1 924 0 discriminator 4
 1233 00c0 FB7F     		ldrb	r3, [r7, #31]	@ zero_extendqisi2
 1234 00c2 002B     		cmp	r3, #0
 1235 00c4 00D0     		beq	.L65
 1236              		.loc 1 924 0 is_stmt 0
 1237 00c6 8DE0     		b	.L62
 1238              	.L65:
 925:../fatfs/ff.c **** 			p = &fs->win[bc % SS(fatfs)];
 1239              		.loc 1 925 0 is_stmt 1
 1240 00c8 BB69     		ldr	r3, [r7, #24]
 1241 00ca C3F30803 		ubfx	r3, r3, #0, #9
 1242 00ce 3833     		adds	r3, r3, #56
 1243 00d0 FA68     		ldr	r2, [r7, #12]
 1244 00d2 1344     		add	r3, r3, r2
 1245 00d4 7B61     		str	r3, [r7, #20]
 926:../fatfs/ff.c **** 			*p = (clst & 1) ? (BYTE)(val >> 4) : ((*p & 0xF0) | ((BYTE)(val >> 8) & 0x0F));
 1246              		.loc 1 926 0
 1247 00d6 BB68     		ldr	r3, [r7, #8]
 1248 00d8 03F00103 		and	r3, r3, #1
 1249 00dc 002B     		cmp	r3, #0
 1250 00de 03D0     		beq	.L66
 1251              		.loc 1 926 0 is_stmt 0 discriminator 1
 1252 00e0 7B68     		ldr	r3, [r7, #4]
 1253 00e2 1B09     		lsrs	r3, r3, #4
 1254 00e4 DBB2     		uxtb	r3, r3
 1255 00e6 0EE0     		b	.L67
 1256              	.L66:
 1257              		.loc 1 926 0 discriminator 2
 1258 00e8 7B69     		ldr	r3, [r7, #20]
 1259 00ea 1B78     		ldrb	r3, [r3]	@ zero_extendqisi2
 1260 00ec DBB2     		uxtb	r3, r3
 1261 00ee 23F00F03 		bic	r3, r3, #15
 1262 00f2 DAB2     		uxtb	r2, r3
 1263 00f4 7B68     		ldr	r3, [r7, #4]
 1264 00f6 1B0A     		lsrs	r3, r3, #8
 1265 00f8 DBB2     		uxtb	r3, r3
 1266 00fa 03F00F03 		and	r3, r3, #15
 1267 00fe DBB2     		uxtb	r3, r3
 1268 0100 1343     		orrs	r3, r3, r2
 1269 0102 DBB2     		uxtb	r3, r3
 1270 0104 DBB2     		uxtb	r3, r3
 1271              	.L67:
 1272              		.loc 1 926 0 discriminator 4
 1273 0106 7A69     		ldr	r2, [r7, #20]
 1274 0108 1370     		strb	r3, [r2]
 927:../fatfs/ff.c **** 			break;
 1275              		.loc 1 927 0 is_stmt 1 discriminator 4
 1276 010a 6BE0     		b	.L62
 1277              	.L58:
 928:../fatfs/ff.c **** 
 929:../fatfs/ff.c **** 		case FS_FAT16 :
 930:../fatfs/ff.c **** 			res = move_window(fs, fs->fatbase + (clst / (SS(fatfs) / 2)));
 1278              		.loc 1 930 0
 1279 010c FB68     		ldr	r3, [r7, #12]
 1280 010e 9A6A     		ldr	r2, [r3, #40]
 1281 0110 BB68     		ldr	r3, [r7, #8]
 1282 0112 1B0A     		lsrs	r3, r3, #8
 1283 0114 1344     		add	r3, r3, r2
 1284 0116 F868     		ldr	r0, [r7, #12]
 1285 0118 1946     		mov	r1, r3
 1286 011a FFF7FEFF 		bl	move_window
 1287 011e 0346     		mov	r3, r0
 1288 0120 FB77     		strb	r3, [r7, #31]
 931:../fatfs/ff.c **** 			if (res != FR_OK) break;
 1289              		.loc 1 931 0
 1290 0122 FB7F     		ldrb	r3, [r7, #31]	@ zero_extendqisi2
 1291 0124 002B     		cmp	r3, #0
 1292 0126 00D0     		beq	.L68
 1293 0128 5CE0     		b	.L62
 1294              	.L68:
 932:../fatfs/ff.c **** 			p = &fs->win[clst * 2 % SS(fatfs)];
 1295              		.loc 1 932 0
 1296 012a BB68     		ldr	r3, [r7, #8]
 1297 012c 5B00     		lsls	r3, r3, #1
 1298 012e 03F4FF73 		and	r3, r3, #510
 1299 0132 3833     		adds	r3, r3, #56
 1300 0134 FA68     		ldr	r2, [r7, #12]
 1301 0136 1344     		add	r3, r3, r2
 1302 0138 7B61     		str	r3, [r7, #20]
 933:../fatfs/ff.c **** 			ST_WORD(p, (WORD)val);
 1303              		.loc 1 933 0
 1304 013a 7B68     		ldr	r3, [r7, #4]
 1305 013c DAB2     		uxtb	r2, r3
 1306 013e 7B69     		ldr	r3, [r7, #20]
 1307 0140 1A70     		strb	r2, [r3]
 1308 0142 7B69     		ldr	r3, [r7, #20]
 1309 0144 0133     		adds	r3, r3, #1
 1310 0146 7A68     		ldr	r2, [r7, #4]
 1311 0148 92B2     		uxth	r2, r2
 1312 014a 120A     		lsrs	r2, r2, #8
 1313 014c 92B2     		uxth	r2, r2
 1314 014e D2B2     		uxtb	r2, r2
 1315 0150 1A70     		strb	r2, [r3]
 934:../fatfs/ff.c **** 			break;
 1316              		.loc 1 934 0
 1317 0152 47E0     		b	.L62
 1318              	.L59:
 935:../fatfs/ff.c **** 
 936:../fatfs/ff.c **** 		case FS_FAT32 :
 937:../fatfs/ff.c **** 			res = move_window(fs, fs->fatbase + (clst / (SS(fatfs) / 4)));
 1319              		.loc 1 937 0
 1320 0154 FB68     		ldr	r3, [r7, #12]
 1321 0156 9A6A     		ldr	r2, [r3, #40]
 1322 0158 BB68     		ldr	r3, [r7, #8]
 1323 015a DB09     		lsrs	r3, r3, #7
 1324 015c 1344     		add	r3, r3, r2
 1325 015e F868     		ldr	r0, [r7, #12]
 1326 0160 1946     		mov	r1, r3
 1327 0162 FFF7FEFF 		bl	move_window
 1328 0166 0346     		mov	r3, r0
 1329 0168 FB77     		strb	r3, [r7, #31]
 938:../fatfs/ff.c **** 			if (res != FR_OK) break;
 1330              		.loc 1 938 0
 1331 016a FB7F     		ldrb	r3, [r7, #31]	@ zero_extendqisi2
 1332 016c 002B     		cmp	r3, #0
 1333 016e 00D0     		beq	.L69
 1334 0170 38E0     		b	.L62
 1335              	.L69:
 939:../fatfs/ff.c **** 			p = &fs->win[clst * 4 % SS(fatfs)];
 1336              		.loc 1 939 0
 1337 0172 BB68     		ldr	r3, [r7, #8]
 1338 0174 9B00     		lsls	r3, r3, #2
 1339 0176 03F4FE73 		and	r3, r3, #508
 1340 017a 3833     		adds	r3, r3, #56
 1341 017c FA68     		ldr	r2, [r7, #12]
 1342 017e 1344     		add	r3, r3, r2
 1343 0180 7B61     		str	r3, [r7, #20]
 940:../fatfs/ff.c **** 			val |= LD_DWORD(p) & 0xF0000000;
 1344              		.loc 1 940 0
 1345 0182 7B69     		ldr	r3, [r7, #20]
 1346 0184 0333     		adds	r3, r3, #3
 1347 0186 1B78     		ldrb	r3, [r3]	@ zero_extendqisi2
 1348 0188 1A06     		lsls	r2, r3, #24
 1349 018a 7B69     		ldr	r3, [r7, #20]
 1350 018c 0233     		adds	r3, r3, #2
 1351 018e 1B78     		ldrb	r3, [r3]	@ zero_extendqisi2
 1352 0190 1B04     		lsls	r3, r3, #16
 1353 0192 1343     		orrs	r3, r3, r2
 1354 0194 7A69     		ldr	r2, [r7, #20]
 1355 0196 0132     		adds	r2, r2, #1
 1356 0198 1278     		ldrb	r2, [r2]	@ zero_extendqisi2
 1357 019a 1202     		lsls	r2, r2, #8
 1358 019c 1343     		orrs	r3, r3, r2
 1359 019e 7A69     		ldr	r2, [r7, #20]
 1360 01a0 1278     		ldrb	r2, [r2]	@ zero_extendqisi2
 1361 01a2 1343     		orrs	r3, r3, r2
 1362 01a4 03F07043 		and	r3, r3, #-268435456
 1363 01a8 7A68     		ldr	r2, [r7, #4]
 1364 01aa 1343     		orrs	r3, r3, r2
 1365 01ac 7B60     		str	r3, [r7, #4]
 941:../fatfs/ff.c **** 			ST_DWORD(p, val);
 1366              		.loc 1 941 0
 1367 01ae 7B68     		ldr	r3, [r7, #4]
 1368 01b0 DAB2     		uxtb	r2, r3
 1369 01b2 7B69     		ldr	r3, [r7, #20]
 1370 01b4 1A70     		strb	r2, [r3]
 1371 01b6 7B69     		ldr	r3, [r7, #20]
 1372 01b8 0133     		adds	r3, r3, #1
 1373 01ba 7A68     		ldr	r2, [r7, #4]
 1374 01bc 92B2     		uxth	r2, r2
 1375 01be 120A     		lsrs	r2, r2, #8
 1376 01c0 92B2     		uxth	r2, r2
 1377 01c2 D2B2     		uxtb	r2, r2
 1378 01c4 1A70     		strb	r2, [r3]
 1379 01c6 7B69     		ldr	r3, [r7, #20]
 1380 01c8 0233     		adds	r3, r3, #2
 1381 01ca 7A68     		ldr	r2, [r7, #4]
 1382 01cc 120C     		lsrs	r2, r2, #16
 1383 01ce D2B2     		uxtb	r2, r2
 1384 01d0 1A70     		strb	r2, [r3]
 1385 01d2 7B69     		ldr	r3, [r7, #20]
 1386 01d4 0333     		adds	r3, r3, #3
 1387 01d6 7A68     		ldr	r2, [r7, #4]
 1388 01d8 120E     		lsrs	r2, r2, #24
 1389 01da D2B2     		uxtb	r2, r2
 1390 01dc 1A70     		strb	r2, [r3]
 942:../fatfs/ff.c **** 			break;
 1391              		.loc 1 942 0
 1392 01de 01E0     		b	.L62
 1393              	.L71:
 943:../fatfs/ff.c **** 
 944:../fatfs/ff.c **** 		default :
 945:../fatfs/ff.c **** 			res = FR_INT_ERR;
 1394              		.loc 1 945 0
 1395 01e0 0223     		movs	r3, #2
 1396 01e2 FB77     		strb	r3, [r7, #31]
 1397              	.L62:
 946:../fatfs/ff.c **** 		}
 947:../fatfs/ff.c **** 		fs->wflag = 1;
 1398              		.loc 1 947 0
 1399 01e4 FB68     		ldr	r3, [r7, #12]
 1400 01e6 0122     		movs	r2, #1
 1401 01e8 1A71     		strb	r2, [r3, #4]
 1402              	.L56:
 948:../fatfs/ff.c **** 	}
 949:../fatfs/ff.c **** 
 950:../fatfs/ff.c **** 	return res;
 1403              		.loc 1 950 0
 1404 01ea FB7F     		ldrb	r3, [r7, #31]	@ zero_extendqisi2
 951:../fatfs/ff.c **** }
 1405              		.loc 1 951 0
 1406 01ec 1846     		mov	r0, r3
 1407 01ee 2037     		adds	r7, r7, #32
 1408              		.cfi_def_cfa_offset 8
 1409 01f0 BD46     		mov	sp, r7
 1410              		.cfi_def_cfa_register 13
 1411              		@ sp needed
 1412 01f2 80BD     		pop	{r7, pc}
 1413              		.cfi_endproc
 1414              	.LFE10:
 1416              		.section	.text.remove_chain,"ax",%progbits
 1417              		.align	2
 1418              		.thumb
 1419              		.thumb_func
 1421              	remove_chain:
 1422              	.LFB11:
 952:../fatfs/ff.c **** #endif /* !_FS_READONLY */
 953:../fatfs/ff.c **** 
 954:../fatfs/ff.c **** 
 955:../fatfs/ff.c **** 
 956:../fatfs/ff.c **** 
 957:../fatfs/ff.c **** /*-----------------------------------------------------------------------*/
 958:../fatfs/ff.c **** /* FAT handling - Remove a cluster chain                                 */
 959:../fatfs/ff.c **** /*-----------------------------------------------------------------------*/
 960:../fatfs/ff.c **** #if !_FS_READONLY
 961:../fatfs/ff.c **** static
 962:../fatfs/ff.c **** FRESULT remove_chain (
 963:../fatfs/ff.c **** 	FATFS *fs,			/* File system object */
 964:../fatfs/ff.c **** 	DWORD clst			/* Cluster# to remove a chain from */
 965:../fatfs/ff.c **** )
 966:../fatfs/ff.c **** {
 1423              		.loc 1 966 0
 1424              		.cfi_startproc
 1425              		@ args = 0, pretend = 0, frame = 16
 1426              		@ frame_needed = 1, uses_anonymous_args = 0
 1427 0000 80B5     		push	{r7, lr}
 1428              		.cfi_def_cfa_offset 8
 1429              		.cfi_offset 7, -8
 1430              		.cfi_offset 14, -4
 1431 0002 84B0     		sub	sp, sp, #16
 1432              		.cfi_def_cfa_offset 24
 1433 0004 00AF     		add	r7, sp, #0
 1434              		.cfi_def_cfa_register 7
 1435 0006 7860     		str	r0, [r7, #4]
 1436 0008 3960     		str	r1, [r7]
 967:../fatfs/ff.c **** 	FRESULT res;
 968:../fatfs/ff.c **** 	DWORD nxt;
 969:../fatfs/ff.c **** #if _USE_ERASE
 970:../fatfs/ff.c **** 	DWORD scl = clst, ecl = clst, rt[2];
 971:../fatfs/ff.c **** #endif
 972:../fatfs/ff.c **** 
 973:../fatfs/ff.c **** 	if (clst < 2 || clst >= fs->n_fatent) {	/* Check range */
 1437              		.loc 1 973 0
 1438 000a 3B68     		ldr	r3, [r7]
 1439 000c 012B     		cmp	r3, #1
 1440 000e 04D9     		bls	.L73
 1441              		.loc 1 973 0 is_stmt 0 discriminator 1
 1442 0010 7B68     		ldr	r3, [r7, #4]
 1443 0012 DA69     		ldr	r2, [r3, #28]
 1444 0014 3B68     		ldr	r3, [r7]
 1445 0016 9A42     		cmp	r2, r3
 1446 0018 02D8     		bhi	.L74
 1447              	.L73:
 974:../fatfs/ff.c **** 		res = FR_INT_ERR;
 1448              		.loc 1 974 0 is_stmt 1
 1449 001a 0223     		movs	r3, #2
 1450 001c FB73     		strb	r3, [r7, #15]
 1451 001e 37E0     		b	.L75
 1452              	.L74:
 975:../fatfs/ff.c **** 
 976:../fatfs/ff.c **** 	} else {
 977:../fatfs/ff.c **** 		res = FR_OK;
 1453              		.loc 1 977 0
 1454 0020 0023     		movs	r3, #0
 1455 0022 FB73     		strb	r3, [r7, #15]
 978:../fatfs/ff.c **** 		while (clst < fs->n_fatent) {			/* Not a last link? */
 1456              		.loc 1 978 0
 1457 0024 2FE0     		b	.L76
 1458              	.L82:
 979:../fatfs/ff.c **** 			nxt = get_fat(fs, clst);			/* Get cluster status */
 1459              		.loc 1 979 0
 1460 0026 7868     		ldr	r0, [r7, #4]
 1461 0028 3968     		ldr	r1, [r7]
 1462 002a FFF7FEFF 		bl	get_fat
 1463 002e B860     		str	r0, [r7, #8]
 980:../fatfs/ff.c **** 			if (nxt == 0) break;				/* Empty cluster? */
 1464              		.loc 1 980 0
 1465 0030 BB68     		ldr	r3, [r7, #8]
 1466 0032 002B     		cmp	r3, #0
 1467 0034 00D1     		bne	.L77
 1468 0036 2BE0     		b	.L75
 1469              	.L77:
 981:../fatfs/ff.c **** 			if (nxt == 1) { res = FR_INT_ERR; break; }	/* Internal error? */
 1470              		.loc 1 981 0
 1471 0038 BB68     		ldr	r3, [r7, #8]
 1472 003a 012B     		cmp	r3, #1
 1473 003c 02D1     		bne	.L78
 1474              		.loc 1 981 0 is_stmt 0 discriminator 1
 1475 003e 0223     		movs	r3, #2
 1476 0040 FB73     		strb	r3, [r7, #15]
 1477 0042 25E0     		b	.L75
 1478              	.L78:
 982:../fatfs/ff.c **** 			if (nxt == 0xFFFFFFFF) { res = FR_DISK_ERR; break; }	/* Disk error? */
 1479              		.loc 1 982 0 is_stmt 1
 1480 0044 BB68     		ldr	r3, [r7, #8]
 1481 0046 B3F1FF3F 		cmp	r3, #-1
 1482 004a 02D1     		bne	.L79
 1483              		.loc 1 982 0 is_stmt 0 discriminator 1
 1484 004c 0123     		movs	r3, #1
 1485 004e FB73     		strb	r3, [r7, #15]
 1486 0050 1EE0     		b	.L75
 1487              	.L79:
 983:../fatfs/ff.c **** 			res = put_fat(fs, clst, 0);			/* Mark the cluster "empty" */
 1488              		.loc 1 983 0 is_stmt 1
 1489 0052 7868     		ldr	r0, [r7, #4]
 1490 0054 3968     		ldr	r1, [r7]
 1491 0056 0022     		movs	r2, #0
 1492 0058 FFF7FEFF 		bl	put_fat
 1493 005c 0346     		mov	r3, r0
 1494 005e FB73     		strb	r3, [r7, #15]
 984:../fatfs/ff.c **** 			if (res != FR_OK) break;
 1495              		.loc 1 984 0
 1496 0060 FB7B     		ldrb	r3, [r7, #15]	@ zero_extendqisi2
 1497 0062 002B     		cmp	r3, #0
 1498 0064 00D0     		beq	.L80
 1499 0066 13E0     		b	.L75
 1500              	.L80:
 985:../fatfs/ff.c **** 			if (fs->free_clust != 0xFFFFFFFF) {	/* Update FSInfo */
 1501              		.loc 1 985 0
 1502 0068 7B68     		ldr	r3, [r7, #4]
 1503 006a 1B69     		ldr	r3, [r3, #16]
 1504 006c B3F1FF3F 		cmp	r3, #-1
 1505 0070 07D0     		beq	.L81
 986:../fatfs/ff.c **** 				fs->free_clust++;
 1506              		.loc 1 986 0
 1507 0072 7B68     		ldr	r3, [r7, #4]
 1508 0074 1B69     		ldr	r3, [r3, #16]
 1509 0076 5A1C     		adds	r2, r3, #1
 1510 0078 7B68     		ldr	r3, [r7, #4]
 1511 007a 1A61     		str	r2, [r3, #16]
 987:../fatfs/ff.c **** 				fs->fsi_flag = 1;
 1512              		.loc 1 987 0
 1513 007c 7B68     		ldr	r3, [r7, #4]
 1514 007e 0122     		movs	r2, #1
 1515 0080 5A71     		strb	r2, [r3, #5]
 1516              	.L81:
 988:../fatfs/ff.c **** 			}
 989:../fatfs/ff.c **** #if _USE_ERASE
 990:../fatfs/ff.c **** 			if (ecl + 1 == nxt) {	/* Is next cluster contiguous? */
 991:../fatfs/ff.c **** 				ecl = nxt;
 992:../fatfs/ff.c **** 			} else {				/* End of contiguous clusters */ 
 993:../fatfs/ff.c **** 				rt[0] = clust2sect(fatfs, scl);					/* Start sector */
 994:../fatfs/ff.c **** 				rt[1] = clust2sect(fatfs, ecl) + fatfs->csize - 1;	/* End sector */
 995:../fatfs/ff.c **** 				disk_ioctl(fatfs->drv, CTRL_ERASE_SECTOR, rt);		/* Erase the block */
 996:../fatfs/ff.c **** 				scl = ecl = nxt;
 997:../fatfs/ff.c **** 			}
 998:../fatfs/ff.c **** #endif
 999:../fatfs/ff.c **** 			clst = nxt;	/* Next cluster */
 1517              		.loc 1 999 0
 1518 0082 BB68     		ldr	r3, [r7, #8]
 1519 0084 3B60     		str	r3, [r7]
 1520              	.L76:
 978:../fatfs/ff.c **** 			nxt = get_fat(fs, clst);			/* Get cluster status */
 1521              		.loc 1 978 0
 1522 0086 7B68     		ldr	r3, [r7, #4]
 1523 0088 DA69     		ldr	r2, [r3, #28]
 1524 008a 3B68     		ldr	r3, [r7]
 1525 008c 9A42     		cmp	r2, r3
 1526 008e CAD8     		bhi	.L82
 1527              	.L75:
1000:../fatfs/ff.c **** 		}
1001:../fatfs/ff.c **** 	}
1002:../fatfs/ff.c **** 
1003:../fatfs/ff.c **** 	return res;
 1528              		.loc 1 1003 0
 1529 0090 FB7B     		ldrb	r3, [r7, #15]	@ zero_extendqisi2
1004:../fatfs/ff.c **** }
 1530              		.loc 1 1004 0
 1531 0092 1846     		mov	r0, r3
 1532 0094 1037     		adds	r7, r7, #16
 1533              		.cfi_def_cfa_offset 8
 1534 0096 BD46     		mov	sp, r7
 1535              		.cfi_def_cfa_register 13
 1536              		@ sp needed
 1537 0098 80BD     		pop	{r7, pc}
 1538              		.cfi_endproc
 1539              	.LFE11:
 1541 009a 00BF     		.section	.text.create_chain,"ax",%progbits
 1542              		.align	2
 1543              		.thumb
 1544              		.thumb_func
 1546              	create_chain:
 1547              	.LFB12:
1005:../fatfs/ff.c **** #endif
1006:../fatfs/ff.c **** 
1007:../fatfs/ff.c **** 
1008:../fatfs/ff.c **** 
1009:../fatfs/ff.c **** 
1010:../fatfs/ff.c **** /*-----------------------------------------------------------------------*/
1011:../fatfs/ff.c **** /* FAT handling - Stretch or Create a cluster chain                      */
1012:../fatfs/ff.c **** /*-----------------------------------------------------------------------*/
1013:../fatfs/ff.c **** #if !_FS_READONLY
1014:../fatfs/ff.c **** static
1015:../fatfs/ff.c **** DWORD create_chain (	/* 0:No free cluster, 1:Internal error, 0xFFFFFFFF:Disk error, >=2:New cluster
1016:../fatfs/ff.c **** 	FATFS *fs,			/* File system object */
1017:../fatfs/ff.c **** 	DWORD clst			/* Cluster# to stretch. 0 means create a new chain. */
1018:../fatfs/ff.c **** )
1019:../fatfs/ff.c **** {
 1548              		.loc 1 1019 0
 1549              		.cfi_startproc
 1550              		@ args = 0, pretend = 0, frame = 24
 1551              		@ frame_needed = 1, uses_anonymous_args = 0
 1552 0000 80B5     		push	{r7, lr}
 1553              		.cfi_def_cfa_offset 8
 1554              		.cfi_offset 7, -8
 1555              		.cfi_offset 14, -4
 1556 0002 86B0     		sub	sp, sp, #24
 1557              		.cfi_def_cfa_offset 32
 1558 0004 00AF     		add	r7, sp, #0
 1559              		.cfi_def_cfa_register 7
 1560 0006 7860     		str	r0, [r7, #4]
 1561 0008 3960     		str	r1, [r7]
1020:../fatfs/ff.c **** 	DWORD cs, ncl, scl;
1021:../fatfs/ff.c **** 	FRESULT res;
1022:../fatfs/ff.c **** 
1023:../fatfs/ff.c **** 
1024:../fatfs/ff.c **** 	if (clst == 0) {		/* Create a new chain */
 1562              		.loc 1 1024 0
 1563 000a 3B68     		ldr	r3, [r7]
 1564 000c 002B     		cmp	r3, #0
 1565 000e 0DD1     		bne	.L85
1025:../fatfs/ff.c **** 		scl = fs->last_clust;			/* Get suggested start point */
 1566              		.loc 1 1025 0
 1567 0010 7B68     		ldr	r3, [r7, #4]
 1568 0012 DB68     		ldr	r3, [r3, #12]
 1569 0014 3B61     		str	r3, [r7, #16]
1026:../fatfs/ff.c **** 		if (!scl || scl >= fs->n_fatent) scl = 1;
 1570              		.loc 1 1026 0
 1571 0016 3B69     		ldr	r3, [r7, #16]
 1572 0018 002B     		cmp	r3, #0
 1573 001a 04D0     		beq	.L86
 1574              		.loc 1 1026 0 is_stmt 0 discriminator 2
 1575 001c 7B68     		ldr	r3, [r7, #4]
 1576 001e DA69     		ldr	r2, [r3, #28]
 1577 0020 3B69     		ldr	r3, [r7, #16]
 1578 0022 9A42     		cmp	r2, r3
 1579 0024 15D8     		bhi	.L88
 1580              	.L86:
 1581              		.loc 1 1026 0 discriminator 3
 1582 0026 0123     		movs	r3, #1
 1583 0028 3B61     		str	r3, [r7, #16]
 1584 002a 12E0     		b	.L88
 1585              	.L85:
1027:../fatfs/ff.c **** 	}
1028:../fatfs/ff.c **** 	else {					/* Stretch the current chain */
1029:../fatfs/ff.c **** 		cs = get_fat(fs, clst);			/* Check the cluster status */
 1586              		.loc 1 1029 0 is_stmt 1
 1587 002c 7868     		ldr	r0, [r7, #4]
 1588 002e 3968     		ldr	r1, [r7]
 1589 0030 FFF7FEFF 		bl	get_fat
 1590 0034 B860     		str	r0, [r7, #8]
1030:../fatfs/ff.c **** 		if (cs < 2) return 1;			/* It is an invalid cluster */
 1591              		.loc 1 1030 0
 1592 0036 BB68     		ldr	r3, [r7, #8]
 1593 0038 012B     		cmp	r3, #1
 1594 003a 01D8     		bhi	.L89
 1595              		.loc 1 1030 0 is_stmt 0 discriminator 1
 1596 003c 0123     		movs	r3, #1
 1597 003e 66E0     		b	.L90
 1598              	.L89:
1031:../fatfs/ff.c **** 		if (cs < fs->n_fatent) return cs;	/* It is already followed by next cluster */
 1599              		.loc 1 1031 0 is_stmt 1
 1600 0040 7B68     		ldr	r3, [r7, #4]
 1601 0042 DA69     		ldr	r2, [r3, #28]
 1602 0044 BB68     		ldr	r3, [r7, #8]
 1603 0046 9A42     		cmp	r2, r3
 1604 0048 01D9     		bls	.L91
 1605              		.loc 1 1031 0 is_stmt 0 discriminator 1
 1606 004a BB68     		ldr	r3, [r7, #8]
 1607 004c 5FE0     		b	.L90
 1608              	.L91:
1032:../fatfs/ff.c **** 		scl = clst;
 1609              		.loc 1 1032 0 is_stmt 1
 1610 004e 3B68     		ldr	r3, [r7]
 1611 0050 3B61     		str	r3, [r7, #16]
 1612              	.L88:
1033:../fatfs/ff.c **** 	}
1034:../fatfs/ff.c **** 
1035:../fatfs/ff.c **** 	ncl = scl;				/* Start cluster */
 1613              		.loc 1 1035 0
 1614 0052 3B69     		ldr	r3, [r7, #16]
 1615 0054 7B61     		str	r3, [r7, #20]
 1616              	.L98:
1036:../fatfs/ff.c **** 	for (;;) {
1037:../fatfs/ff.c **** 		ncl++;							/* Next cluster */
 1617              		.loc 1 1037 0
 1618 0056 7B69     		ldr	r3, [r7, #20]
 1619 0058 0133     		adds	r3, r3, #1
 1620 005a 7B61     		str	r3, [r7, #20]
1038:../fatfs/ff.c **** 		if (ncl >= fs->n_fatent) {		/* Wrap around */
 1621              		.loc 1 1038 0
 1622 005c 7B68     		ldr	r3, [r7, #4]
 1623 005e DA69     		ldr	r2, [r3, #28]
 1624 0060 7B69     		ldr	r3, [r7, #20]
 1625 0062 9A42     		cmp	r2, r3
 1626 0064 07D8     		bhi	.L92
1039:../fatfs/ff.c **** 			ncl = 2;
 1627              		.loc 1 1039 0
 1628 0066 0223     		movs	r3, #2
 1629 0068 7B61     		str	r3, [r7, #20]
1040:../fatfs/ff.c **** 			if (ncl > scl) return 0;	/* No free cluster */
 1630              		.loc 1 1040 0
 1631 006a 7A69     		ldr	r2, [r7, #20]
 1632 006c 3B69     		ldr	r3, [r7, #16]
 1633 006e 9A42     		cmp	r2, r3
 1634 0070 01D9     		bls	.L92
 1635              		.loc 1 1040 0 is_stmt 0 discriminator 1
 1636 0072 0023     		movs	r3, #0
 1637 0074 4BE0     		b	.L90
 1638              	.L92:
1041:../fatfs/ff.c **** 		}
1042:../fatfs/ff.c **** 		cs = get_fat(fs, ncl);			/* Get the cluster status */
 1639              		.loc 1 1042 0 is_stmt 1
 1640 0076 7868     		ldr	r0, [r7, #4]
 1641 0078 7969     		ldr	r1, [r7, #20]
 1642 007a FFF7FEFF 		bl	get_fat
 1643 007e B860     		str	r0, [r7, #8]
1043:../fatfs/ff.c **** 		if (cs == 0) break;				/* Found a free cluster */
 1644              		.loc 1 1043 0
 1645 0080 BB68     		ldr	r3, [r7, #8]
 1646 0082 002B     		cmp	r3, #0
 1647 0084 0CD1     		bne	.L93
 1648 0086 00BF     		nop
1044:../fatfs/ff.c **** 		if (cs == 0xFFFFFFFF || cs == 1)/* An error occurred */
1045:../fatfs/ff.c **** 			return cs;
1046:../fatfs/ff.c **** 		if (ncl == scl) return 0;		/* No free cluster */
1047:../fatfs/ff.c **** 	}
1048:../fatfs/ff.c **** 
1049:../fatfs/ff.c **** 	res = put_fat(fs, ncl, 0x0FFFFFFF);	/* Mark the new cluster "last link" */
 1649              		.loc 1 1049 0
 1650 0088 7868     		ldr	r0, [r7, #4]
 1651 008a 7969     		ldr	r1, [r7, #20]
 1652 008c 6FF07042 		mvn	r2, #-268435456
 1653 0090 FFF7FEFF 		bl	put_fat
 1654 0094 0346     		mov	r3, r0
 1655 0096 FB73     		strb	r3, [r7, #15]
1050:../fatfs/ff.c **** 	if (res == FR_OK && clst != 0) {
 1656              		.loc 1 1050 0
 1657 0098 FB7B     		ldrb	r3, [r7, #15]	@ zero_extendqisi2
 1658 009a 002B     		cmp	r3, #0
 1659 009c 1AD1     		bne	.L99
 1660 009e 0FE0     		b	.L105
 1661              	.L93:
1044:../fatfs/ff.c **** 		if (cs == 0xFFFFFFFF || cs == 1)/* An error occurred */
 1662              		.loc 1 1044 0
 1663 00a0 BB68     		ldr	r3, [r7, #8]
 1664 00a2 B3F1FF3F 		cmp	r3, #-1
 1665 00a6 02D0     		beq	.L95
1044:../fatfs/ff.c **** 		if (cs == 0xFFFFFFFF || cs == 1)/* An error occurred */
 1666              		.loc 1 1044 0 is_stmt 0 discriminator 1
 1667 00a8 BB68     		ldr	r3, [r7, #8]
 1668 00aa 012B     		cmp	r3, #1
 1669 00ac 01D1     		bne	.L96
 1670              	.L95:
1045:../fatfs/ff.c **** 		if (ncl == scl) return 0;		/* No free cluster */
 1671              		.loc 1 1045 0 is_stmt 1
 1672 00ae BB68     		ldr	r3, [r7, #8]
 1673 00b0 2DE0     		b	.L90
 1674              	.L96:
1046:../fatfs/ff.c **** 	}
 1675              		.loc 1 1046 0
 1676 00b2 7A69     		ldr	r2, [r7, #20]
 1677 00b4 3B69     		ldr	r3, [r7, #16]
 1678 00b6 9A42     		cmp	r2, r3
 1679 00b8 01D1     		bne	.L97
1046:../fatfs/ff.c **** 	}
 1680              		.loc 1 1046 0 is_stmt 0 discriminator 1
 1681 00ba 0023     		movs	r3, #0
 1682 00bc 27E0     		b	.L90
 1683              	.L97:
1047:../fatfs/ff.c **** 
 1684              		.loc 1 1047 0 is_stmt 1
 1685 00be CAE7     		b	.L98
 1686              	.L105:
 1687              		.loc 1 1050 0 discriminator 1
 1688 00c0 3B68     		ldr	r3, [r7]
 1689 00c2 002B     		cmp	r3, #0
 1690 00c4 06D0     		beq	.L99
1051:../fatfs/ff.c **** 		res = put_fat(fs, clst, ncl);	/* Link it to the previous one if needed */
 1691              		.loc 1 1051 0
 1692 00c6 7868     		ldr	r0, [r7, #4]
 1693 00c8 3968     		ldr	r1, [r7]
 1694 00ca 7A69     		ldr	r2, [r7, #20]
 1695 00cc FFF7FEFF 		bl	put_fat
 1696 00d0 0346     		mov	r3, r0
 1697 00d2 FB73     		strb	r3, [r7, #15]
 1698              	.L99:
1052:../fatfs/ff.c **** 	}
1053:../fatfs/ff.c **** 	if (res == FR_OK) {
 1699              		.loc 1 1053 0
 1700 00d4 FB7B     		ldrb	r3, [r7, #15]	@ zero_extendqisi2
 1701 00d6 002B     		cmp	r3, #0
 1702 00d8 10D1     		bne	.L100
1054:../fatfs/ff.c **** 		fs->last_clust = ncl;			/* Update FSINFO */
 1703              		.loc 1 1054 0
 1704 00da 7B68     		ldr	r3, [r7, #4]
 1705 00dc 7A69     		ldr	r2, [r7, #20]
 1706 00de DA60     		str	r2, [r3, #12]
1055:../fatfs/ff.c **** 		if (fs->free_clust != 0xFFFFFFFF) {
 1707              		.loc 1 1055 0
 1708 00e0 7B68     		ldr	r3, [r7, #4]
 1709 00e2 1B69     		ldr	r3, [r3, #16]
 1710 00e4 B3F1FF3F 		cmp	r3, #-1
 1711 00e8 10D0     		beq	.L102
1056:../fatfs/ff.c **** 			fs->free_clust--;
 1712              		.loc 1 1056 0
 1713 00ea 7B68     		ldr	r3, [r7, #4]
 1714 00ec 1B69     		ldr	r3, [r3, #16]
 1715 00ee 5A1E     		subs	r2, r3, #1
 1716 00f0 7B68     		ldr	r3, [r7, #4]
 1717 00f2 1A61     		str	r2, [r3, #16]
1057:../fatfs/ff.c **** 			fs->fsi_flag = 1;
 1718              		.loc 1 1057 0
 1719 00f4 7B68     		ldr	r3, [r7, #4]
 1720 00f6 0122     		movs	r2, #1
 1721 00f8 5A71     		strb	r2, [r3, #5]
 1722 00fa 07E0     		b	.L102
 1723              	.L100:
1058:../fatfs/ff.c **** 		}
1059:../fatfs/ff.c **** 	} else {
1060:../fatfs/ff.c **** 		ncl = (res == FR_DISK_ERR) ? 0xFFFFFFFF : 1;
 1724              		.loc 1 1060 0
 1725 00fc FB7B     		ldrb	r3, [r7, #15]	@ zero_extendqisi2
 1726 00fe 012B     		cmp	r3, #1
 1727 0100 02D1     		bne	.L103
 1728              		.loc 1 1060 0 is_stmt 0 discriminator 1
 1729 0102 4FF0FF33 		mov	r3, #-1
 1730 0106 00E0     		b	.L104
 1731              	.L103:
 1732              		.loc 1 1060 0 discriminator 2
 1733 0108 0123     		movs	r3, #1
 1734              	.L104:
 1735              		.loc 1 1060 0 discriminator 4
 1736 010a 7B61     		str	r3, [r7, #20]
 1737              	.L102:
1061:../fatfs/ff.c **** 	}
1062:../fatfs/ff.c **** 
1063:../fatfs/ff.c **** 	return ncl;		/* Return new cluster number or error code */
 1738              		.loc 1 1063 0 is_stmt 1
 1739 010c 7B69     		ldr	r3, [r7, #20]
 1740              	.L90:
1064:../fatfs/ff.c **** }
 1741              		.loc 1 1064 0
 1742 010e 1846     		mov	r0, r3
 1743 0110 1837     		adds	r7, r7, #24
 1744              		.cfi_def_cfa_offset 8
 1745 0112 BD46     		mov	sp, r7
 1746              		.cfi_def_cfa_register 13
 1747              		@ sp needed
 1748 0114 80BD     		pop	{r7, pc}
 1749              		.cfi_endproc
 1750              	.LFE12:
 1752 0116 00BF     		.section	.text.dir_sdi,"ax",%progbits
 1753              		.align	2
 1754              		.thumb
 1755              		.thumb_func
 1757              	dir_sdi:
 1758              	.LFB13:
1065:../fatfs/ff.c **** #endif /* !_FS_READONLY */
1066:../fatfs/ff.c **** 
1067:../fatfs/ff.c **** 
1068:../fatfs/ff.c **** 
1069:../fatfs/ff.c **** /*-----------------------------------------------------------------------*/
1070:../fatfs/ff.c **** /* FAT handling - Convert offset into cluster with link map table        */
1071:../fatfs/ff.c **** /*-----------------------------------------------------------------------*/
1072:../fatfs/ff.c **** 
1073:../fatfs/ff.c **** #if _USE_FASTSEEK
1074:../fatfs/ff.c **** static
1075:../fatfs/ff.c **** DWORD clmt_clust (	/* <2:Error, >=2:Cluster number */
1076:../fatfs/ff.c **** 	FIL* fp,		/* Pointer to the file object */
1077:../fatfs/ff.c **** 	DWORD ofs		/* File offset to be converted to cluster# */
1078:../fatfs/ff.c **** )
1079:../fatfs/ff.c **** {
1080:../fatfs/ff.c **** 	DWORD cl, ncl, *tbl;
1081:../fatfs/ff.c **** 
1082:../fatfs/ff.c **** 
1083:../fatfs/ff.c **** 	tbl = fp->cltbl + 1;	/* Top of CLMT */
1084:../fatfs/ff.c **** 	cl = ofs / SS(fp->fatfs) / fp->fatfs->csize;	/* Cluster order from top of the file */
1085:../fatfs/ff.c **** 	for (;;) {
1086:../fatfs/ff.c **** 		ncl = *tbl++;			/* Number of cluters in the fragment */
1087:../fatfs/ff.c **** 		if (!ncl) return 0;		/* End of table? (error) */
1088:../fatfs/ff.c **** 		if (cl < ncl) break;	/* In this fragment? */
1089:../fatfs/ff.c **** 		cl -= ncl; tbl++;		/* Next fragment */
1090:../fatfs/ff.c **** 	}
1091:../fatfs/ff.c **** 	return cl + *tbl;	/* Return the cluster number */
1092:../fatfs/ff.c **** }
1093:../fatfs/ff.c **** #endif	/* _USE_FASTSEEK */
1094:../fatfs/ff.c **** 
1095:../fatfs/ff.c **** 
1096:../fatfs/ff.c **** 
1097:../fatfs/ff.c **** /*-----------------------------------------------------------------------*/
1098:../fatfs/ff.c **** /* Directory handling - Set directory index                              */
1099:../fatfs/ff.c **** /*-----------------------------------------------------------------------*/
1100:../fatfs/ff.c **** 
1101:../fatfs/ff.c **** static
1102:../fatfs/ff.c **** FRESULT dir_sdi (
1103:../fatfs/ff.c **** 	DIR *dj,		/* Pointer to directory object */
1104:../fatfs/ff.c **** 	WORD idx		/* Index of directory table */
1105:../fatfs/ff.c **** )
1106:../fatfs/ff.c **** {
 1759              		.loc 1 1106 0
 1760              		.cfi_startproc
 1761              		@ args = 0, pretend = 0, frame = 16
 1762              		@ frame_needed = 1, uses_anonymous_args = 0
 1763 0000 80B5     		push	{r7, lr}
 1764              		.cfi_def_cfa_offset 8
 1765              		.cfi_offset 7, -8
 1766              		.cfi_offset 14, -4
 1767 0002 84B0     		sub	sp, sp, #16
 1768              		.cfi_def_cfa_offset 24
 1769 0004 00AF     		add	r7, sp, #0
 1770              		.cfi_def_cfa_register 7
 1771 0006 7860     		str	r0, [r7, #4]
 1772 0008 0B46     		mov	r3, r1
 1773 000a 7B80     		strh	r3, [r7, #2]	@ movhi
1107:../fatfs/ff.c **** 	DWORD clst;
1108:../fatfs/ff.c **** 	WORD ic;
1109:../fatfs/ff.c **** 
1110:../fatfs/ff.c **** 
1111:../fatfs/ff.c **** 	dj->index = idx;
 1774              		.loc 1 1111 0
 1775 000c 7B68     		ldr	r3, [r7, #4]
 1776 000e 7A88     		ldrh	r2, [r7, #2]	@ movhi
 1777 0010 DA80     		strh	r2, [r3, #6]	@ movhi
1112:../fatfs/ff.c **** 	clst = dj->sclust;
 1778              		.loc 1 1112 0
 1779 0012 7B68     		ldr	r3, [r7, #4]
 1780 0014 9B68     		ldr	r3, [r3, #8]
 1781 0016 FB60     		str	r3, [r7, #12]
1113:../fatfs/ff.c **** 	if (clst == 1 || clst >= dj->fs->n_fatent)	/* Check start cluster range */
 1782              		.loc 1 1113 0
 1783 0018 FB68     		ldr	r3, [r7, #12]
 1784 001a 012B     		cmp	r3, #1
 1785 001c 05D0     		beq	.L107
 1786              		.loc 1 1113 0 is_stmt 0 discriminator 1
 1787 001e 7B68     		ldr	r3, [r7, #4]
 1788 0020 1B68     		ldr	r3, [r3]
 1789 0022 DA69     		ldr	r2, [r3, #28]
 1790 0024 FB68     		ldr	r3, [r7, #12]
 1791 0026 9A42     		cmp	r2, r3
 1792 0028 01D8     		bhi	.L108
 1793              	.L107:
1114:../fatfs/ff.c **** 		return FR_INT_ERR;
 1794              		.loc 1 1114 0 is_stmt 1
 1795 002a 0223     		movs	r3, #2
 1796 002c 65E0     		b	.L109
 1797              	.L108:
1115:../fatfs/ff.c **** 	if (!clst && dj->fs->fs_type == FS_FAT32)	/* Replace cluster# 0 with root cluster# if in FAT32 */
 1798              		.loc 1 1115 0
 1799 002e FB68     		ldr	r3, [r7, #12]
 1800 0030 002B     		cmp	r3, #0
 1801 0032 08D1     		bne	.L110
 1802              		.loc 1 1115 0 is_stmt 0 discriminator 1
 1803 0034 7B68     		ldr	r3, [r7, #4]
 1804 0036 1B68     		ldr	r3, [r3]
 1805 0038 1B78     		ldrb	r3, [r3]	@ zero_extendqisi2
 1806 003a 032B     		cmp	r3, #3
 1807 003c 03D1     		bne	.L110
1116:../fatfs/ff.c **** 		clst = dj->fs->dirbase;
 1808              		.loc 1 1116 0 is_stmt 1
 1809 003e 7B68     		ldr	r3, [r7, #4]
 1810 0040 1B68     		ldr	r3, [r3]
 1811 0042 DB6A     		ldr	r3, [r3, #44]
 1812 0044 FB60     		str	r3, [r7, #12]
 1813              	.L110:
1117:../fatfs/ff.c **** 
1118:../fatfs/ff.c **** 	if (clst == 0) {	/* Static table (root-dir in FAT12/16) */
 1814              		.loc 1 1118 0
 1815 0046 FB68     		ldr	r3, [r7, #12]
 1816 0048 002B     		cmp	r3, #0
 1817 004a 14D1     		bne	.L111
1119:../fatfs/ff.c **** 		dj->clust = clst;
 1818              		.loc 1 1119 0
 1819 004c 7B68     		ldr	r3, [r7, #4]
 1820 004e FA68     		ldr	r2, [r7, #12]
 1821 0050 DA60     		str	r2, [r3, #12]
1120:../fatfs/ff.c **** 		if (idx >= dj->fs->n_rootdir)		/* Index is out of range */
 1822              		.loc 1 1120 0
 1823 0052 7B68     		ldr	r3, [r7, #4]
 1824 0054 1B68     		ldr	r3, [r3]
 1825 0056 1B89     		ldrh	r3, [r3, #8]
 1826 0058 7A88     		ldrh	r2, [r7, #2]
 1827 005a 9A42     		cmp	r2, r3
 1828 005c 01D3     		bcc	.L112
1121:../fatfs/ff.c **** 			return FR_INT_ERR;
 1829              		.loc 1 1121 0
 1830 005e 0223     		movs	r3, #2
 1831 0060 4BE0     		b	.L109
 1832              	.L112:
1122:../fatfs/ff.c **** 		dj->sect = dj->fs->dirbase + idx / (SS(dj->fatfs) / SZ_DIR);	/* Sector# */
 1833              		.loc 1 1122 0
 1834 0062 7B68     		ldr	r3, [r7, #4]
 1835 0064 1B68     		ldr	r3, [r3]
 1836 0066 DB6A     		ldr	r3, [r3, #44]
 1837 0068 7A88     		ldrh	r2, [r7, #2]
 1838 006a 1209     		lsrs	r2, r2, #4
 1839 006c 92B2     		uxth	r2, r2
 1840 006e 1A44     		add	r2, r2, r3
 1841 0070 7B68     		ldr	r3, [r7, #4]
 1842 0072 1A61     		str	r2, [r3, #16]
 1843 0074 36E0     		b	.L113
 1844              	.L111:
1123:../fatfs/ff.c **** 	}
1124:../fatfs/ff.c **** 	else {				/* Dynamic table (sub-dirs or root-dir in FAT32) */
1125:../fatfs/ff.c **** 		ic = SS(dj->fatfs) / SZ_DIR * dj->fs->csize;	/* Entries per cluster */
 1845              		.loc 1 1125 0
 1846 0076 7B68     		ldr	r3, [r7, #4]
 1847 0078 1B68     		ldr	r3, [r3]
 1848 007a 9B78     		ldrb	r3, [r3, #2]	@ zero_extendqisi2
 1849 007c 9BB2     		uxth	r3, r3
 1850 007e 1B01     		lsls	r3, r3, #4
 1851 0080 7B81     		strh	r3, [r7, #10]	@ movhi
1126:../fatfs/ff.c **** 		while (idx >= ic) {	/* Follow cluster chain */
 1852              		.loc 1 1126 0
 1853 0082 1BE0     		b	.L114
 1854              	.L118:
1127:../fatfs/ff.c **** 			clst = get_fat(dj->fs, clst);				/* Get next cluster */
 1855              		.loc 1 1127 0
 1856 0084 7B68     		ldr	r3, [r7, #4]
 1857 0086 1B68     		ldr	r3, [r3]
 1858 0088 1846     		mov	r0, r3
 1859 008a F968     		ldr	r1, [r7, #12]
 1860 008c FFF7FEFF 		bl	get_fat
 1861 0090 F860     		str	r0, [r7, #12]
1128:../fatfs/ff.c **** 			if (clst == 0xFFFFFFFF) return FR_DISK_ERR;	/* Disk error */
 1862              		.loc 1 1128 0
 1863 0092 FB68     		ldr	r3, [r7, #12]
 1864 0094 B3F1FF3F 		cmp	r3, #-1
 1865 0098 01D1     		bne	.L115
 1866              		.loc 1 1128 0 is_stmt 0 discriminator 1
 1867 009a 0123     		movs	r3, #1
 1868 009c 2DE0     		b	.L109
 1869              	.L115:
1129:../fatfs/ff.c **** 			if (clst < 2 || clst >= dj->fs->n_fatent)	/* Reached to end of table or int error */
 1870              		.loc 1 1129 0 is_stmt 1
 1871 009e FB68     		ldr	r3, [r7, #12]
 1872 00a0 012B     		cmp	r3, #1
 1873 00a2 05D9     		bls	.L116
 1874              		.loc 1 1129 0 is_stmt 0 discriminator 1
 1875 00a4 7B68     		ldr	r3, [r7, #4]
 1876 00a6 1B68     		ldr	r3, [r3]
 1877 00a8 DA69     		ldr	r2, [r3, #28]
 1878 00aa FB68     		ldr	r3, [r7, #12]
 1879 00ac 9A42     		cmp	r2, r3
 1880 00ae 01D8     		bhi	.L117
 1881              	.L116:
1130:../fatfs/ff.c **** 				return FR_INT_ERR;
 1882              		.loc 1 1130 0 is_stmt 1
 1883 00b0 0223     		movs	r3, #2
 1884 00b2 22E0     		b	.L109
 1885              	.L117:
1131:../fatfs/ff.c **** 			idx -= ic;
 1886              		.loc 1 1131 0
 1887 00b4 7A88     		ldrh	r2, [r7, #2]	@ movhi
 1888 00b6 7B89     		ldrh	r3, [r7, #10]	@ movhi
 1889 00b8 D31A     		subs	r3, r2, r3
 1890 00ba 7B80     		strh	r3, [r7, #2]	@ movhi
 1891              	.L114:
1126:../fatfs/ff.c **** 			clst = get_fat(dj->fs, clst);				/* Get next cluster */
 1892              		.loc 1 1126 0
 1893 00bc 7A88     		ldrh	r2, [r7, #2]
 1894 00be 7B89     		ldrh	r3, [r7, #10]
 1895 00c0 9A42     		cmp	r2, r3
 1896 00c2 DFD2     		bcs	.L118
1132:../fatfs/ff.c **** 		}
1133:../fatfs/ff.c **** 		dj->clust = clst;
 1897              		.loc 1 1133 0
 1898 00c4 7B68     		ldr	r3, [r7, #4]
 1899 00c6 FA68     		ldr	r2, [r7, #12]
 1900 00c8 DA60     		str	r2, [r3, #12]
1134:../fatfs/ff.c **** 		dj->sect = clust2sect(dj->fs, clst) + idx / (SS(dj->fatfs) / SZ_DIR);	/* Sector# */
 1901              		.loc 1 1134 0
 1902 00ca 7B68     		ldr	r3, [r7, #4]
 1903 00cc 1B68     		ldr	r3, [r3]
 1904 00ce 1846     		mov	r0, r3
 1905 00d0 F968     		ldr	r1, [r7, #12]
 1906 00d2 FFF7FEFF 		bl	clust2sect
 1907 00d6 0246     		mov	r2, r0
 1908 00d8 7B88     		ldrh	r3, [r7, #2]
 1909 00da 1B09     		lsrs	r3, r3, #4
 1910 00dc 9BB2     		uxth	r3, r3
 1911 00de 1A44     		add	r2, r2, r3
 1912 00e0 7B68     		ldr	r3, [r7, #4]
 1913 00e2 1A61     		str	r2, [r3, #16]
 1914              	.L113:
1135:../fatfs/ff.c **** 	}
1136:../fatfs/ff.c **** 
1137:../fatfs/ff.c **** 	dj->dir = dj->fs->win + (idx % (SS(dj->fatfs) / SZ_DIR)) * SZ_DIR;	/* Ptr to the entry in the sect
 1915              		.loc 1 1137 0
 1916 00e4 7B68     		ldr	r3, [r7, #4]
 1917 00e6 1A68     		ldr	r2, [r3]
 1918 00e8 7B88     		ldrh	r3, [r7, #2]
 1919 00ea 03F00F03 		and	r3, r3, #15
 1920 00ee 5B01     		lsls	r3, r3, #5
 1921 00f0 3833     		adds	r3, r3, #56
 1922 00f2 1A44     		add	r2, r2, r3
 1923 00f4 7B68     		ldr	r3, [r7, #4]
 1924 00f6 5A61     		str	r2, [r3, #20]
1138:../fatfs/ff.c **** 
1139:../fatfs/ff.c **** 	return FR_OK;	/* Seek succeeded */
 1925              		.loc 1 1139 0
 1926 00f8 0023     		movs	r3, #0
 1927              	.L109:
1140:../fatfs/ff.c **** }
 1928              		.loc 1 1140 0
 1929 00fa 1846     		mov	r0, r3
 1930 00fc 1037     		adds	r7, r7, #16
 1931              		.cfi_def_cfa_offset 8
 1932 00fe BD46     		mov	sp, r7
 1933              		.cfi_def_cfa_register 13
 1934              		@ sp needed
 1935 0100 80BD     		pop	{r7, pc}
 1936              		.cfi_endproc
 1937              	.LFE13:
 1939 0102 00BF     		.section	.text.dir_next,"ax",%progbits
 1940              		.align	2
 1941              		.thumb
 1942              		.thumb_func
 1944              	dir_next:
 1945              	.LFB14:
1141:../fatfs/ff.c **** 
1142:../fatfs/ff.c **** 
1143:../fatfs/ff.c **** 
1144:../fatfs/ff.c **** 
1145:../fatfs/ff.c **** /*-----------------------------------------------------------------------*/
1146:../fatfs/ff.c **** /* Directory handling - Move directory table index next                  */
1147:../fatfs/ff.c **** /*-----------------------------------------------------------------------*/
1148:../fatfs/ff.c **** 
1149:../fatfs/ff.c **** static
1150:../fatfs/ff.c **** FRESULT dir_next (	/* FR_OK:Succeeded, FR_NO_FILE:End of table, FR_DENIED:Could not stretch */
1151:../fatfs/ff.c **** 	DIR *dj,		/* Pointer to the directory object */
1152:../fatfs/ff.c **** 	int stretch		/* 0: Do not stretch table, 1: Stretch table if needed */
1153:../fatfs/ff.c **** )
1154:../fatfs/ff.c **** {
 1946              		.loc 1 1154 0
 1947              		.cfi_startproc
 1948              		@ args = 0, pretend = 0, frame = 16
 1949              		@ frame_needed = 1, uses_anonymous_args = 0
 1950 0000 90B5     		push	{r4, r7, lr}
 1951              		.cfi_def_cfa_offset 12
 1952              		.cfi_offset 4, -12
 1953              		.cfi_offset 7, -8
 1954              		.cfi_offset 14, -4
 1955 0002 85B0     		sub	sp, sp, #20
 1956              		.cfi_def_cfa_offset 32
 1957 0004 00AF     		add	r7, sp, #0
 1958              		.cfi_def_cfa_register 7
 1959 0006 7860     		str	r0, [r7, #4]
 1960 0008 3960     		str	r1, [r7]
1155:../fatfs/ff.c **** 	DWORD clst;
1156:../fatfs/ff.c **** 	WORD i;
1157:../fatfs/ff.c **** 	//int  istretch;
1158:../fatfs/ff.c **** 
1159:../fatfs/ff.c **** 
1160:../fatfs/ff.c **** 	//stretch = stretch;		/* To suppress warning on read-only cfg. */
1161:../fatfs/ff.c **** 	i = dj->index + 1;
 1961              		.loc 1 1161 0
 1962 000a 7B68     		ldr	r3, [r7, #4]
 1963 000c DB88     		ldrh	r3, [r3, #6]
 1964 000e 0133     		adds	r3, r3, #1
 1965 0010 3B81     		strh	r3, [r7, #8]	@ movhi
1162:../fatfs/ff.c **** 	if (!i || !dj->sect)	/* Report EOT when index has reached 65535 */
 1966              		.loc 1 1162 0
 1967 0012 3B89     		ldrh	r3, [r7, #8]
 1968 0014 002B     		cmp	r3, #0
 1969 0016 03D0     		beq	.L120
 1970              		.loc 1 1162 0 is_stmt 0 discriminator 1
 1971 0018 7B68     		ldr	r3, [r7, #4]
 1972 001a 1B69     		ldr	r3, [r3, #16]
 1973 001c 002B     		cmp	r3, #0
 1974 001e 01D1     		bne	.L121
 1975              	.L120:
1163:../fatfs/ff.c **** 		return FR_NO_FILE;
 1976              		.loc 1 1163 0 is_stmt 1
 1977 0020 0423     		movs	r3, #4
 1978 0022 BAE0     		b	.L122
 1979              	.L121:
1164:../fatfs/ff.c **** 
1165:../fatfs/ff.c **** 	if (!(i % (SS(dj->fatfs) / SZ_DIR))) {	/* Sector changed? */
 1980              		.loc 1 1165 0
 1981 0024 3B89     		ldrh	r3, [r7, #8]	@ movhi
 1982 0026 03F00F03 		and	r3, r3, #15
 1983 002a 9BB2     		uxth	r3, r3
 1984 002c 002B     		cmp	r3, #0
 1985 002e 40F0A680 		bne	.L123
1166:../fatfs/ff.c **** 		dj->sect++;					/* Next sector */
 1986              		.loc 1 1166 0
 1987 0032 7B68     		ldr	r3, [r7, #4]
 1988 0034 1B69     		ldr	r3, [r3, #16]
 1989 0036 5A1C     		adds	r2, r3, #1
 1990 0038 7B68     		ldr	r3, [r7, #4]
 1991 003a 1A61     		str	r2, [r3, #16]
1167:../fatfs/ff.c **** 
1168:../fatfs/ff.c **** 		if (dj->clust == 0) {	/* Static table */
 1992              		.loc 1 1168 0
 1993 003c 7B68     		ldr	r3, [r7, #4]
 1994 003e DB68     		ldr	r3, [r3, #12]
 1995 0040 002B     		cmp	r3, #0
 1996 0042 08D1     		bne	.L124
1169:../fatfs/ff.c **** 			if (i >= dj->fs->n_rootdir)	/* Report EOT when end of table */
 1997              		.loc 1 1169 0
 1998 0044 7B68     		ldr	r3, [r7, #4]
 1999 0046 1B68     		ldr	r3, [r3]
 2000 0048 1B89     		ldrh	r3, [r3, #8]
 2001 004a 3A89     		ldrh	r2, [r7, #8]
 2002 004c 9A42     		cmp	r2, r3
 2003 004e C0F09680 		bcc	.L123
1170:../fatfs/ff.c **** 				return FR_NO_FILE;
 2004              		.loc 1 1170 0
 2005 0052 0423     		movs	r3, #4
 2006 0054 A1E0     		b	.L122
 2007              	.L124:
1171:../fatfs/ff.c **** 		}
1172:../fatfs/ff.c **** 		else {					/* Dynamic table */
1173:../fatfs/ff.c **** 			if (((i / (SS(dj->fatfs) / SZ_DIR)) & (dj->fs->csize - 1)) == 0) {	/* Cluster changed? */
 2008              		.loc 1 1173 0
 2009 0056 3B89     		ldrh	r3, [r7, #8]
 2010 0058 1B09     		lsrs	r3, r3, #4
 2011 005a 9BB2     		uxth	r3, r3
 2012 005c 1A46     		mov	r2, r3
 2013 005e 7B68     		ldr	r3, [r7, #4]
 2014 0060 1B68     		ldr	r3, [r3]
 2015 0062 9B78     		ldrb	r3, [r3, #2]	@ zero_extendqisi2
 2016 0064 013B     		subs	r3, r3, #1
 2017 0066 1340     		ands	r3, r3, r2
 2018 0068 002B     		cmp	r3, #0
 2019 006a 40F08880 		bne	.L123
1174:../fatfs/ff.c **** 				clst = get_fat(dj->fs, dj->clust);				/* Get next cluster */
 2020              		.loc 1 1174 0
 2021 006e 7B68     		ldr	r3, [r7, #4]
 2022 0070 1A68     		ldr	r2, [r3]
 2023 0072 7B68     		ldr	r3, [r7, #4]
 2024 0074 DB68     		ldr	r3, [r3, #12]
 2025 0076 1046     		mov	r0, r2
 2026 0078 1946     		mov	r1, r3
 2027 007a FFF7FEFF 		bl	get_fat
 2028 007e F860     		str	r0, [r7, #12]
1175:../fatfs/ff.c **** 				if (clst <= 1) return FR_INT_ERR;
 2029              		.loc 1 1175 0
 2030 0080 FB68     		ldr	r3, [r7, #12]
 2031 0082 012B     		cmp	r3, #1
 2032 0084 01D8     		bhi	.L125
 2033              		.loc 1 1175 0 is_stmt 0 discriminator 1
 2034 0086 0223     		movs	r3, #2
 2035 0088 87E0     		b	.L122
 2036              	.L125:
1176:../fatfs/ff.c **** 				if (clst == 0xFFFFFFFF) return FR_DISK_ERR;
 2037              		.loc 1 1176 0 is_stmt 1
 2038 008a FB68     		ldr	r3, [r7, #12]
 2039 008c B3F1FF3F 		cmp	r3, #-1
 2040 0090 01D1     		bne	.L126
 2041              		.loc 1 1176 0 is_stmt 0 discriminator 1
 2042 0092 0123     		movs	r3, #1
 2043 0094 81E0     		b	.L122
 2044              	.L126:
1177:../fatfs/ff.c **** 				if (clst >= dj->fs->n_fatent) {					/* When it reached end of dynamic table */
 2045              		.loc 1 1177 0 is_stmt 1
 2046 0096 7B68     		ldr	r3, [r7, #4]
 2047 0098 1B68     		ldr	r3, [r3]
 2048 009a DA69     		ldr	r2, [r3, #28]
 2049 009c FB68     		ldr	r3, [r7, #12]
 2050 009e 9A42     		cmp	r2, r3
 2051 00a0 61D8     		bhi	.L127
 2052              	.LBB2:
1178:../fatfs/ff.c **** #if !_FS_READONLY
1179:../fatfs/ff.c **** 					BYTE c;
1180:../fatfs/ff.c **** 					if (!stretch) return FR_NO_FILE;			/* When do not stretch, report EOT */
 2053              		.loc 1 1180 0
 2054 00a2 3B68     		ldr	r3, [r7]
 2055 00a4 002B     		cmp	r3, #0
 2056 00a6 01D1     		bne	.L128
 2057              		.loc 1 1180 0 is_stmt 0 discriminator 1
 2058 00a8 0423     		movs	r3, #4
 2059 00aa 76E0     		b	.L122
 2060              	.L128:
1181:../fatfs/ff.c **** 					clst = create_chain(dj->fs, dj->clust);		/* Stretch cluster chain */
 2061              		.loc 1 1181 0 is_stmt 1
 2062 00ac 7B68     		ldr	r3, [r7, #4]
 2063 00ae 1A68     		ldr	r2, [r3]
 2064 00b0 7B68     		ldr	r3, [r7, #4]
 2065 00b2 DB68     		ldr	r3, [r3, #12]
 2066 00b4 1046     		mov	r0, r2
 2067 00b6 1946     		mov	r1, r3
 2068 00b8 FFF7FEFF 		bl	create_chain
 2069 00bc F860     		str	r0, [r7, #12]
1182:../fatfs/ff.c **** 					if (clst == 0) return FR_DENIED;			/* No free cluster */
 2070              		.loc 1 1182 0
 2071 00be FB68     		ldr	r3, [r7, #12]
 2072 00c0 002B     		cmp	r3, #0
 2073 00c2 01D1     		bne	.L129
 2074              		.loc 1 1182 0 is_stmt 0 discriminator 1
 2075 00c4 0723     		movs	r3, #7
 2076 00c6 68E0     		b	.L122
 2077              	.L129:
1183:../fatfs/ff.c **** 					if (clst == 1) return FR_INT_ERR;
 2078              		.loc 1 1183 0 is_stmt 1
 2079 00c8 FB68     		ldr	r3, [r7, #12]
 2080 00ca 012B     		cmp	r3, #1
 2081 00cc 01D1     		bne	.L130
 2082              		.loc 1 1183 0 is_stmt 0 discriminator 1
 2083 00ce 0223     		movs	r3, #2
 2084 00d0 63E0     		b	.L122
 2085              	.L130:
1184:../fatfs/ff.c **** 					if (clst == 0xFFFFFFFF) return FR_DISK_ERR;
 2086              		.loc 1 1184 0 is_stmt 1
 2087 00d2 FB68     		ldr	r3, [r7, #12]
 2088 00d4 B3F1FF3F 		cmp	r3, #-1
 2089 00d8 01D1     		bne	.L131
 2090              		.loc 1 1184 0 is_stmt 0 discriminator 1
 2091 00da 0123     		movs	r3, #1
 2092 00dc 5DE0     		b	.L122
 2093              	.L131:
1185:../fatfs/ff.c **** 					/* Clean-up stretched table */
1186:../fatfs/ff.c **** 					if (sync_window(dj->fs)) return FR_DISK_ERR;	/* Flush active window */
 2094              		.loc 1 1186 0 is_stmt 1
 2095 00de 7B68     		ldr	r3, [r7, #4]
 2096 00e0 1B68     		ldr	r3, [r3]
 2097 00e2 1846     		mov	r0, r3
 2098 00e4 FFF7FEFF 		bl	sync_window
 2099 00e8 0346     		mov	r3, r0
 2100 00ea 002B     		cmp	r3, #0
 2101 00ec 01D0     		beq	.L132
 2102              		.loc 1 1186 0 is_stmt 0 discriminator 1
 2103 00ee 0123     		movs	r3, #1
 2104 00f0 53E0     		b	.L122
 2105              	.L132:
1187:../fatfs/ff.c **** 					mem_set(dj->fs->win, 0, SS(dj->fatfs));			/* Clear window buffer */
 2106              		.loc 1 1187 0 is_stmt 1
 2107 00f2 7B68     		ldr	r3, [r7, #4]
 2108 00f4 1B68     		ldr	r3, [r3]
 2109 00f6 3833     		adds	r3, r3, #56
 2110 00f8 1846     		mov	r0, r3
 2111 00fa 0021     		movs	r1, #0
 2112 00fc 4FF40072 		mov	r2, #512
 2113 0100 FFF7FEFF 		bl	mem_set
1188:../fatfs/ff.c **** 					dj->fs->winsect = clust2sect(dj->fs, clst);	/* Cluster start sector */
 2114              		.loc 1 1188 0
 2115 0104 7B68     		ldr	r3, [r7, #4]
 2116 0106 1C68     		ldr	r4, [r3]
 2117 0108 7B68     		ldr	r3, [r7, #4]
 2118 010a 1B68     		ldr	r3, [r3]
 2119 010c 1846     		mov	r0, r3
 2120 010e F968     		ldr	r1, [r7, #12]
 2121 0110 FFF7FEFF 		bl	clust2sect
 2122 0114 0346     		mov	r3, r0
 2123 0116 6363     		str	r3, [r4, #52]
1189:../fatfs/ff.c **** 					for (c = 0; c < dj->fs->csize; c++) {		/* Fill the new cluster with 0 */
 2124              		.loc 1 1189 0
 2125 0118 0023     		movs	r3, #0
 2126 011a FB72     		strb	r3, [r7, #11]
 2127 011c 15E0     		b	.L133
 2128              	.L135:
1190:../fatfs/ff.c **** 						dj->fs->wflag = 1;
 2129              		.loc 1 1190 0
 2130 011e 7B68     		ldr	r3, [r7, #4]
 2131 0120 1B68     		ldr	r3, [r3]
 2132 0122 0122     		movs	r2, #1
 2133 0124 1A71     		strb	r2, [r3, #4]
1191:../fatfs/ff.c **** 						if (sync_window(dj->fs)) return FR_DISK_ERR;
 2134              		.loc 1 1191 0
 2135 0126 7B68     		ldr	r3, [r7, #4]
 2136 0128 1B68     		ldr	r3, [r3]
 2137 012a 1846     		mov	r0, r3
 2138 012c FFF7FEFF 		bl	sync_window
 2139 0130 0346     		mov	r3, r0
 2140 0132 002B     		cmp	r3, #0
 2141 0134 01D0     		beq	.L134
 2142              		.loc 1 1191 0 is_stmt 0 discriminator 1
 2143 0136 0123     		movs	r3, #1
 2144 0138 2FE0     		b	.L122
 2145              	.L134:
1192:../fatfs/ff.c **** 						dj->fs->winsect++;
 2146              		.loc 1 1192 0 is_stmt 1 discriminator 2
 2147 013a 7B68     		ldr	r3, [r7, #4]
 2148 013c 1B68     		ldr	r3, [r3]
 2149 013e 5A6B     		ldr	r2, [r3, #52]
 2150 0140 0132     		adds	r2, r2, #1
 2151 0142 5A63     		str	r2, [r3, #52]
1189:../fatfs/ff.c **** 						dj->fs->wflag = 1;
 2152              		.loc 1 1189 0 discriminator 2
 2153 0144 FB7A     		ldrb	r3, [r7, #11]	@ zero_extendqisi2
 2154 0146 0133     		adds	r3, r3, #1
 2155 0148 FB72     		strb	r3, [r7, #11]
 2156              	.L133:
1189:../fatfs/ff.c **** 						dj->fs->wflag = 1;
 2157              		.loc 1 1189 0 is_stmt 0 discriminator 1
 2158 014a 7B68     		ldr	r3, [r7, #4]
 2159 014c 1B68     		ldr	r3, [r3]
 2160 014e 9B78     		ldrb	r3, [r3, #2]	@ zero_extendqisi2
 2161 0150 FA7A     		ldrb	r2, [r7, #11]	@ zero_extendqisi2
 2162 0152 9A42     		cmp	r2, r3
 2163 0154 E3D3     		bcc	.L135
1193:../fatfs/ff.c **** 					}
1194:../fatfs/ff.c **** 					dj->fs->winsect -= c;						/* Rewind window address */
 2164              		.loc 1 1194 0 is_stmt 1
 2165 0156 7B68     		ldr	r3, [r7, #4]
 2166 0158 1B68     		ldr	r3, [r3]
 2167 015a 7A68     		ldr	r2, [r7, #4]
 2168 015c 1268     		ldr	r2, [r2]
 2169 015e 516B     		ldr	r1, [r2, #52]
 2170 0160 FA7A     		ldrb	r2, [r7, #11]	@ zero_extendqisi2
 2171 0162 8A1A     		subs	r2, r1, r2
 2172 0164 5A63     		str	r2, [r3, #52]
 2173              	.L127:
 2174              	.LBE2:
1195:../fatfs/ff.c **** #else
1196:../fatfs/ff.c **** 					return FR_NO_FILE;			/* Report EOT */
1197:../fatfs/ff.c **** #endif
1198:../fatfs/ff.c **** 				}
1199:../fatfs/ff.c **** 				dj->clust = clst;				/* Initialize data for new cluster */
 2175              		.loc 1 1199 0
 2176 0166 7B68     		ldr	r3, [r7, #4]
 2177 0168 FA68     		ldr	r2, [r7, #12]
 2178 016a DA60     		str	r2, [r3, #12]
1200:../fatfs/ff.c **** 				dj->sect = clust2sect(dj->fs, clst);
 2179              		.loc 1 1200 0
 2180 016c 7B68     		ldr	r3, [r7, #4]
 2181 016e 1B68     		ldr	r3, [r3]
 2182 0170 1846     		mov	r0, r3
 2183 0172 F968     		ldr	r1, [r7, #12]
 2184 0174 FFF7FEFF 		bl	clust2sect
 2185 0178 0246     		mov	r2, r0
 2186 017a 7B68     		ldr	r3, [r7, #4]
 2187 017c 1A61     		str	r2, [r3, #16]
 2188              	.L123:
1201:../fatfs/ff.c **** 			}
1202:../fatfs/ff.c **** 		}
1203:../fatfs/ff.c **** 	}
1204:../fatfs/ff.c **** 
1205:../fatfs/ff.c **** 	dj->index = i;
 2189              		.loc 1 1205 0
 2190 017e 7B68     		ldr	r3, [r7, #4]
 2191 0180 3A89     		ldrh	r2, [r7, #8]	@ movhi
 2192 0182 DA80     		strh	r2, [r3, #6]	@ movhi
1206:../fatfs/ff.c **** 	dj->dir = dj->fs->win + (i % (SS(dj->fatfs) / SZ_DIR)) * SZ_DIR;
 2193              		.loc 1 1206 0
 2194 0184 7B68     		ldr	r3, [r7, #4]
 2195 0186 1A68     		ldr	r2, [r3]
 2196 0188 3B89     		ldrh	r3, [r7, #8]
 2197 018a 03F00F03 		and	r3, r3, #15
 2198 018e 5B01     		lsls	r3, r3, #5
 2199 0190 3833     		adds	r3, r3, #56
 2200 0192 1A44     		add	r2, r2, r3
 2201 0194 7B68     		ldr	r3, [r7, #4]
 2202 0196 5A61     		str	r2, [r3, #20]
1207:../fatfs/ff.c **** 
1208:../fatfs/ff.c **** 	return FR_OK;
 2203              		.loc 1 1208 0
 2204 0198 0023     		movs	r3, #0
 2205              	.L122:
1209:../fatfs/ff.c **** }
 2206              		.loc 1 1209 0
 2207 019a 1846     		mov	r0, r3
 2208 019c 1437     		adds	r7, r7, #20
 2209              		.cfi_def_cfa_offset 12
 2210 019e BD46     		mov	sp, r7
 2211              		.cfi_def_cfa_register 13
 2212              		@ sp needed
 2213 01a0 90BD     		pop	{r4, r7, pc}
 2214              		.cfi_endproc
 2215              	.LFE14:
 2217 01a2 00BF     		.section	.text.dir_alloc,"ax",%progbits
 2218              		.align	2
 2219              		.thumb
 2220              		.thumb_func
 2222              	dir_alloc:
 2223              	.LFB15:
1210:../fatfs/ff.c **** 
1211:../fatfs/ff.c **** 
1212:../fatfs/ff.c **** 
1213:../fatfs/ff.c **** 
1214:../fatfs/ff.c **** /*-----------------------------------------------------------------------*/
1215:../fatfs/ff.c **** /* Directory handling - Reserve directory entry                          */
1216:../fatfs/ff.c **** /*-----------------------------------------------------------------------*/
1217:../fatfs/ff.c **** 
1218:../fatfs/ff.c **** #if !_FS_READONLY
1219:../fatfs/ff.c **** static
1220:../fatfs/ff.c **** FRESULT dir_alloc (
1221:../fatfs/ff.c **** 	DIR* dj,	/* Pointer to the directory object */
1222:../fatfs/ff.c **** 	UINT nent	/* Number of contiguous entries to allocate (1-21) */
1223:../fatfs/ff.c **** )
1224:../fatfs/ff.c **** {
 2224              		.loc 1 1224 0
 2225              		.cfi_startproc
 2226              		@ args = 0, pretend = 0, frame = 16
 2227              		@ frame_needed = 1, uses_anonymous_args = 0
 2228 0000 80B5     		push	{r7, lr}
 2229              		.cfi_def_cfa_offset 8
 2230              		.cfi_offset 7, -8
 2231              		.cfi_offset 14, -4
 2232 0002 84B0     		sub	sp, sp, #16
 2233              		.cfi_def_cfa_offset 24
 2234 0004 00AF     		add	r7, sp, #0
 2235              		.cfi_def_cfa_register 7
 2236 0006 7860     		str	r0, [r7, #4]
 2237 0008 3960     		str	r1, [r7]
1225:../fatfs/ff.c **** 	FRESULT res;
1226:../fatfs/ff.c **** 	UINT n;
1227:../fatfs/ff.c **** 
1228:../fatfs/ff.c **** 
1229:../fatfs/ff.c **** 	res = dir_sdi(dj, 0);
 2238              		.loc 1 1229 0
 2239 000a 7868     		ldr	r0, [r7, #4]
 2240 000c 0021     		movs	r1, #0
 2241 000e FFF7FEFF 		bl	dir_sdi
 2242 0012 0346     		mov	r3, r0
 2243 0014 FB73     		strb	r3, [r7, #15]
1230:../fatfs/ff.c **** 	if (res == FR_OK) {
 2244              		.loc 1 1230 0
 2245 0016 FB7B     		ldrb	r3, [r7, #15]	@ zero_extendqisi2
 2246 0018 002B     		cmp	r3, #0
 2247 001a 2DD1     		bne	.L137
1231:../fatfs/ff.c **** 		n = 0;
 2248              		.loc 1 1231 0
 2249 001c 0023     		movs	r3, #0
 2250 001e BB60     		str	r3, [r7, #8]
 2251              	.L143:
1232:../fatfs/ff.c **** 		do {
1233:../fatfs/ff.c **** 			res = move_window(dj->fs, dj->sect);
 2252              		.loc 1 1233 0
 2253 0020 7B68     		ldr	r3, [r7, #4]
 2254 0022 1A68     		ldr	r2, [r3]
 2255 0024 7B68     		ldr	r3, [r7, #4]
 2256 0026 1B69     		ldr	r3, [r3, #16]
 2257 0028 1046     		mov	r0, r2
 2258 002a 1946     		mov	r1, r3
 2259 002c FFF7FEFF 		bl	move_window
 2260 0030 0346     		mov	r3, r0
 2261 0032 FB73     		strb	r3, [r7, #15]
1234:../fatfs/ff.c **** 			if (res != FR_OK) break;
 2262              		.loc 1 1234 0
 2263 0034 FB7B     		ldrb	r3, [r7, #15]	@ zero_extendqisi2
 2264 0036 002B     		cmp	r3, #0
 2265 0038 00D0     		beq	.L138
 2266 003a 1DE0     		b	.L137
 2267              	.L138:
1235:../fatfs/ff.c **** 			if (dj->dir[0] == DDE || dj->dir[0] == 0) {	/* Is it a blank entry? */
 2268              		.loc 1 1235 0
 2269 003c 7B68     		ldr	r3, [r7, #4]
 2270 003e 5B69     		ldr	r3, [r3, #20]
 2271 0040 1B78     		ldrb	r3, [r3]	@ zero_extendqisi2
 2272 0042 E52B     		cmp	r3, #229
 2273 0044 04D0     		beq	.L139
 2274              		.loc 1 1235 0 is_stmt 0 discriminator 1
 2275 0046 7B68     		ldr	r3, [r7, #4]
 2276 0048 5B69     		ldr	r3, [r3, #20]
 2277 004a 1B78     		ldrb	r3, [r3]	@ zero_extendqisi2
 2278 004c 002B     		cmp	r3, #0
 2279 004e 08D1     		bne	.L140
 2280              	.L139:
1236:../fatfs/ff.c **** 				if (++n == nent) break;	/* A block of contiguous entry is found */
 2281              		.loc 1 1236 0 is_stmt 1
 2282 0050 BB68     		ldr	r3, [r7, #8]
 2283 0052 0133     		adds	r3, r3, #1
 2284 0054 BB60     		str	r3, [r7, #8]
 2285 0056 BA68     		ldr	r2, [r7, #8]
 2286 0058 3B68     		ldr	r3, [r7]
 2287 005a 9A42     		cmp	r2, r3
 2288 005c 00D1     		bne	.L141
 2289 005e 0BE0     		b	.L137
 2290              	.L141:
 2291 0060 01E0     		b	.L142
 2292              	.L140:
1237:../fatfs/ff.c **** 			} else {
1238:../fatfs/ff.c **** 				n = 0;					/* Not a blank entry. Restart to search */
 2293              		.loc 1 1238 0
 2294 0062 0023     		movs	r3, #0
 2295 0064 BB60     		str	r3, [r7, #8]
 2296              	.L142:
1239:../fatfs/ff.c **** 			}
1240:../fatfs/ff.c **** 			res = dir_next(dj, 1);		/* Next entry with table stretch enabled */
 2297              		.loc 1 1240 0
 2298 0066 7868     		ldr	r0, [r7, #4]
 2299 0068 0121     		movs	r1, #1
 2300 006a FFF7FEFF 		bl	dir_next
 2301 006e 0346     		mov	r3, r0
 2302 0070 FB73     		strb	r3, [r7, #15]
1241:../fatfs/ff.c **** 		} while (res == FR_OK);
 2303              		.loc 1 1241 0
 2304 0072 FB7B     		ldrb	r3, [r7, #15]	@ zero_extendqisi2
 2305 0074 002B     		cmp	r3, #0
 2306 0076 D3D0     		beq	.L143
 2307              	.L137:
1242:../fatfs/ff.c **** 	}
1243:../fatfs/ff.c **** 	if (res == FR_NO_FILE) res = FR_DENIED;		//Patches for FatFs R0.09b come from official web site
 2308              		.loc 1 1243 0
 2309 0078 FB7B     		ldrb	r3, [r7, #15]	@ zero_extendqisi2
 2310 007a 042B     		cmp	r3, #4
 2311 007c 01D1     		bne	.L144
 2312              		.loc 1 1243 0 is_stmt 0 discriminator 1
 2313 007e 0723     		movs	r3, #7
 2314 0080 FB73     		strb	r3, [r7, #15]
 2315              	.L144:
1244:../fatfs/ff.c **** 	return res;
 2316              		.loc 1 1244 0 is_stmt 1
 2317 0082 FB7B     		ldrb	r3, [r7, #15]	@ zero_extendqisi2
1245:../fatfs/ff.c **** }
 2318              		.loc 1 1245 0
 2319 0084 1846     		mov	r0, r3
 2320 0086 1037     		adds	r7, r7, #16
 2321              		.cfi_def_cfa_offset 8
 2322 0088 BD46     		mov	sp, r7
 2323              		.cfi_def_cfa_register 13
 2324              		@ sp needed
 2325 008a 80BD     		pop	{r7, pc}
 2326              		.cfi_endproc
 2327              	.LFE15:
 2329              		.section	.text.ld_clust,"ax",%progbits
 2330              		.align	2
 2331              		.thumb
 2332              		.thumb_func
 2334              	ld_clust:
 2335              	.LFB16:
1246:../fatfs/ff.c **** #endif
1247:../fatfs/ff.c **** 
1248:../fatfs/ff.c **** 
1249:../fatfs/ff.c **** 
1250:../fatfs/ff.c **** /*-----------------------------------------------------------------------*/
1251:../fatfs/ff.c **** /* Directory handling - Load/Store start cluster number                  */
1252:../fatfs/ff.c **** /*-----------------------------------------------------------------------*/
1253:../fatfs/ff.c **** 
1254:../fatfs/ff.c **** static
1255:../fatfs/ff.c **** DWORD ld_clust (
1256:../fatfs/ff.c **** 	FATFS *fs,	/* Pointer to the fs object */
1257:../fatfs/ff.c **** 	BYTE *dir	/* Pointer to the directory entry */
1258:../fatfs/ff.c **** )
1259:../fatfs/ff.c **** {
 2336              		.loc 1 1259 0
 2337              		.cfi_startproc
 2338              		@ args = 0, pretend = 0, frame = 16
 2339              		@ frame_needed = 1, uses_anonymous_args = 0
 2340              		@ link register save eliminated.
 2341 0000 80B4     		push	{r7}
 2342              		.cfi_def_cfa_offset 4
 2343              		.cfi_offset 7, -4
 2344 0002 85B0     		sub	sp, sp, #20
 2345              		.cfi_def_cfa_offset 24
 2346 0004 00AF     		add	r7, sp, #0
 2347              		.cfi_def_cfa_register 7
 2348 0006 7860     		str	r0, [r7, #4]
 2349 0008 3960     		str	r1, [r7]
1260:../fatfs/ff.c **** 	DWORD cl;
1261:../fatfs/ff.c **** 
1262:../fatfs/ff.c **** 	cl = LD_WORD(dir+DIR_FstClusLO);
 2350              		.loc 1 1262 0
 2351 000a 3B68     		ldr	r3, [r7]
 2352 000c 1B33     		adds	r3, r3, #27
 2353 000e 1B78     		ldrb	r3, [r3]	@ zero_extendqisi2
 2354 0010 1B02     		lsls	r3, r3, #8
 2355 0012 9AB2     		uxth	r2, r3
 2356 0014 3B68     		ldr	r3, [r7]
 2357 0016 1A33     		adds	r3, r3, #26
 2358 0018 1B78     		ldrb	r3, [r3]	@ zero_extendqisi2
 2359 001a 9BB2     		uxth	r3, r3
 2360 001c 1343     		orrs	r3, r3, r2
 2361 001e 9BB2     		uxth	r3, r3
 2362 0020 9BB2     		uxth	r3, r3
 2363 0022 FB60     		str	r3, [r7, #12]
1263:../fatfs/ff.c **** 	if (fs->fs_type == FS_FAT32)
 2364              		.loc 1 1263 0
 2365 0024 7B68     		ldr	r3, [r7, #4]
 2366 0026 1B78     		ldrb	r3, [r3]	@ zero_extendqisi2
 2367 0028 032B     		cmp	r3, #3
 2368 002a 0FD1     		bne	.L147
1264:../fatfs/ff.c **** 		cl |= (DWORD)LD_WORD(dir+DIR_FstClusHI) << 16;
 2369              		.loc 1 1264 0
 2370 002c 3B68     		ldr	r3, [r7]
 2371 002e 1533     		adds	r3, r3, #21
 2372 0030 1B78     		ldrb	r3, [r3]	@ zero_extendqisi2
 2373 0032 1B02     		lsls	r3, r3, #8
 2374 0034 9AB2     		uxth	r2, r3
 2375 0036 3B68     		ldr	r3, [r7]
 2376 0038 1433     		adds	r3, r3, #20
 2377 003a 1B78     		ldrb	r3, [r3]	@ zero_extendqisi2
 2378 003c 9BB2     		uxth	r3, r3
 2379 003e 1343     		orrs	r3, r3, r2
 2380 0040 9BB2     		uxth	r3, r3
 2381 0042 9BB2     		uxth	r3, r3
 2382 0044 1B04     		lsls	r3, r3, #16
 2383 0046 FA68     		ldr	r2, [r7, #12]
 2384 0048 1343     		orrs	r3, r3, r2
 2385 004a FB60     		str	r3, [r7, #12]
 2386              	.L147:
1265:../fatfs/ff.c **** 
1266:../fatfs/ff.c **** 	return cl;
 2387              		.loc 1 1266 0
 2388 004c FB68     		ldr	r3, [r7, #12]
1267:../fatfs/ff.c **** }
 2389              		.loc 1 1267 0
 2390 004e 1846     		mov	r0, r3
 2391 0050 1437     		adds	r7, r7, #20
 2392              		.cfi_def_cfa_offset 4
 2393 0052 BD46     		mov	sp, r7
 2394              		.cfi_def_cfa_register 13
 2395              		@ sp needed
 2396 0054 5DF8047B 		ldr	r7, [sp], #4
 2397              		.cfi_restore 7
 2398              		.cfi_def_cfa_offset 0
 2399 0058 7047     		bx	lr
 2400              		.cfi_endproc
 2401              	.LFE16:
 2403 005a 00BF     		.section	.text.st_clust,"ax",%progbits
 2404              		.align	2
 2405              		.thumb
 2406              		.thumb_func
 2408              	st_clust:
 2409              	.LFB17:
1268:../fatfs/ff.c **** 
1269:../fatfs/ff.c **** 
1270:../fatfs/ff.c **** #if !_FS_READONLY
1271:../fatfs/ff.c **** static
1272:../fatfs/ff.c **** void st_clust (
1273:../fatfs/ff.c **** 	BYTE *dir,	/* Pointer to the directory entry */
1274:../fatfs/ff.c **** 	DWORD cl	/* Value to be set */
1275:../fatfs/ff.c **** )
1276:../fatfs/ff.c **** {
 2410              		.loc 1 1276 0
 2411              		.cfi_startproc
 2412              		@ args = 0, pretend = 0, frame = 8
 2413              		@ frame_needed = 1, uses_anonymous_args = 0
 2414              		@ link register save eliminated.
 2415 0000 80B4     		push	{r7}
 2416              		.cfi_def_cfa_offset 4
 2417              		.cfi_offset 7, -4
 2418 0002 83B0     		sub	sp, sp, #12
 2419              		.cfi_def_cfa_offset 16
 2420 0004 00AF     		add	r7, sp, #0
 2421              		.cfi_def_cfa_register 7
 2422 0006 7860     		str	r0, [r7, #4]
 2423 0008 3960     		str	r1, [r7]
1277:../fatfs/ff.c **** 	ST_WORD(dir+DIR_FstClusLO, cl);
 2424              		.loc 1 1277 0
 2425 000a 7B68     		ldr	r3, [r7, #4]
 2426 000c 1A33     		adds	r3, r3, #26
 2427 000e 3A68     		ldr	r2, [r7]
 2428 0010 D2B2     		uxtb	r2, r2
 2429 0012 1A70     		strb	r2, [r3]
 2430 0014 7B68     		ldr	r3, [r7, #4]
 2431 0016 1B33     		adds	r3, r3, #27
 2432 0018 3A68     		ldr	r2, [r7]
 2433 001a 92B2     		uxth	r2, r2
 2434 001c 120A     		lsrs	r2, r2, #8
 2435 001e 92B2     		uxth	r2, r2
 2436 0020 D2B2     		uxtb	r2, r2
 2437 0022 1A70     		strb	r2, [r3]
1278:../fatfs/ff.c **** 	ST_WORD(dir+DIR_FstClusHI, cl >> 16);
 2438              		.loc 1 1278 0
 2439 0024 7B68     		ldr	r3, [r7, #4]
 2440 0026 1433     		adds	r3, r3, #20
 2441 0028 3A68     		ldr	r2, [r7]
 2442 002a 120C     		lsrs	r2, r2, #16
 2443 002c D2B2     		uxtb	r2, r2
 2444 002e 1A70     		strb	r2, [r3]
 2445 0030 7B68     		ldr	r3, [r7, #4]
 2446 0032 1533     		adds	r3, r3, #21
 2447 0034 3A68     		ldr	r2, [r7]
 2448 0036 120C     		lsrs	r2, r2, #16
 2449 0038 92B2     		uxth	r2, r2
 2450 003a 120A     		lsrs	r2, r2, #8
 2451 003c 92B2     		uxth	r2, r2
 2452 003e D2B2     		uxtb	r2, r2
 2453 0040 1A70     		strb	r2, [r3]
1279:../fatfs/ff.c **** }
 2454              		.loc 1 1279 0
 2455 0042 0C37     		adds	r7, r7, #12
 2456              		.cfi_def_cfa_offset 4
 2457 0044 BD46     		mov	sp, r7
 2458              		.cfi_def_cfa_register 13
 2459              		@ sp needed
 2460 0046 5DF8047B 		ldr	r7, [sp], #4
 2461              		.cfi_restore 7
 2462              		.cfi_def_cfa_offset 0
 2463 004a 7047     		bx	lr
 2464              		.cfi_endproc
 2465              	.LFE17:
 2467              		.section	.rodata.LfnOfs,"a",%progbits
 2468              		.align	2
 2471              	LfnOfs:
 2472 0000 01       		.byte	1
 2473 0001 03       		.byte	3
 2474 0002 05       		.byte	5
 2475 0003 07       		.byte	7
 2476 0004 09       		.byte	9
 2477 0005 0E       		.byte	14
 2478 0006 10       		.byte	16
 2479 0007 12       		.byte	18
 2480 0008 14       		.byte	20
 2481 0009 16       		.byte	22
 2482 000a 18       		.byte	24
 2483 000b 1C       		.byte	28
 2484 000c 1E       		.byte	30
 2485              		.section	.text.cmp_lfn,"ax",%progbits
 2486              		.align	2
 2487              		.thumb
 2488              		.thumb_func
 2490              	cmp_lfn:
 2491              	.LFB18:
1280:../fatfs/ff.c **** #endif
1281:../fatfs/ff.c **** 
1282:../fatfs/ff.c **** 
1283:../fatfs/ff.c **** 
1284:../fatfs/ff.c **** /*-----------------------------------------------------------------------*/
1285:../fatfs/ff.c **** /* LFN handling - Test/Pick/Fit an LFN segment from/to directory entry   */
1286:../fatfs/ff.c **** /*-----------------------------------------------------------------------*/
1287:../fatfs/ff.c **** #if _USE_LFN
1288:../fatfs/ff.c **** static
1289:../fatfs/ff.c **** const BYTE LfnOfs[] = {1,3,5,7,9,14,16,18,20,22,24,28,30};	/* Offset of LFN chars in the directory 
1290:../fatfs/ff.c **** 
1291:../fatfs/ff.c **** 
1292:../fatfs/ff.c **** static
1293:../fatfs/ff.c **** int cmp_lfn (			/* 1:Matched, 0:Not matched */
1294:../fatfs/ff.c **** 	WCHAR *lfnbuf,		/* Pointer to the LFN to be compared */
1295:../fatfs/ff.c **** 	BYTE *dir			/* Pointer to the directory entry containing a part of LFN */
1296:../fatfs/ff.c **** )
1297:../fatfs/ff.c **** {
 2492              		.loc 1 1297 0
 2493              		.cfi_startproc
 2494              		@ args = 0, pretend = 0, frame = 24
 2495              		@ frame_needed = 1, uses_anonymous_args = 0
 2496 0000 80B5     		push	{r7, lr}
 2497              		.cfi_def_cfa_offset 8
 2498              		.cfi_offset 7, -8
 2499              		.cfi_offset 14, -4
 2500 0002 86B0     		sub	sp, sp, #24
 2501              		.cfi_def_cfa_offset 32
 2502 0004 00AF     		add	r7, sp, #0
 2503              		.cfi_def_cfa_register 7
 2504 0006 7860     		str	r0, [r7, #4]
 2505 0008 3960     		str	r1, [r7]
1298:../fatfs/ff.c **** 	UINT i, s;
1299:../fatfs/ff.c **** 	WCHAR wc, uc;
1300:../fatfs/ff.c **** 
1301:../fatfs/ff.c **** 
1302:../fatfs/ff.c **** 	i = ((dir[LDIR_Ord] & ~LLE) - 1) * 13;	/* Get offset in the LFN buffer */
 2506              		.loc 1 1302 0
 2507 000a 3B68     		ldr	r3, [r7]
 2508 000c 1B78     		ldrb	r3, [r3]	@ zero_extendqisi2
 2509 000e 23F04003 		bic	r3, r3, #64
 2510 0012 5A1E     		subs	r2, r3, #1
 2511 0014 1346     		mov	r3, r2
 2512 0016 5B00     		lsls	r3, r3, #1
 2513 0018 1344     		add	r3, r3, r2
 2514 001a 9B00     		lsls	r3, r3, #2
 2515 001c 1344     		add	r3, r3, r2
 2516 001e 7B61     		str	r3, [r7, #20]
1303:../fatfs/ff.c **** 	s = 0; wc = 1;
 2517              		.loc 1 1303 0
 2518 0020 0023     		movs	r3, #0
 2519 0022 3B61     		str	r3, [r7, #16]
 2520 0024 0123     		movs	r3, #1
 2521 0026 FB81     		strh	r3, [r7, #14]	@ movhi
 2522              	.L155:
1304:../fatfs/ff.c **** 	do {
1305:../fatfs/ff.c **** 		uc = LD_WORD(dir+LfnOfs[s]);	/* Pick an LFN character from the entry */
 2523              		.loc 1 1305 0
 2524 0028 2B4A     		ldr	r2, .L157
 2525 002a 3B69     		ldr	r3, [r7, #16]
 2526 002c 1344     		add	r3, r3, r2
 2527 002e 1B78     		ldrb	r3, [r3]	@ zero_extendqisi2
 2528 0030 0133     		adds	r3, r3, #1
 2529 0032 3A68     		ldr	r2, [r7]
 2530 0034 1344     		add	r3, r3, r2
 2531 0036 1B78     		ldrb	r3, [r3]	@ zero_extendqisi2
 2532 0038 1B02     		lsls	r3, r3, #8
 2533 003a 99B2     		uxth	r1, r3
 2534 003c 264A     		ldr	r2, .L157
 2535 003e 3B69     		ldr	r3, [r7, #16]
 2536 0040 1344     		add	r3, r3, r2
 2537 0042 1B78     		ldrb	r3, [r3]	@ zero_extendqisi2
 2538 0044 1A46     		mov	r2, r3
 2539 0046 3B68     		ldr	r3, [r7]
 2540 0048 1344     		add	r3, r3, r2
 2541 004a 1B78     		ldrb	r3, [r3]	@ zero_extendqisi2
 2542 004c 9BB2     		uxth	r3, r3
 2543 004e 0A46     		mov	r2, r1	@ movhi
 2544 0050 1343     		orrs	r3, r3, r2
 2545 0052 9BB2     		uxth	r3, r3
 2546 0054 BB81     		strh	r3, [r7, #12]	@ movhi
1306:../fatfs/ff.c **** 		if (wc) {	/* Last char has not been processed */
 2547              		.loc 1 1306 0
 2548 0056 FB89     		ldrh	r3, [r7, #14]
 2549 0058 002B     		cmp	r3, #0
 2550 005a 19D0     		beq	.L151
1307:../fatfs/ff.c **** 			wc = ff_wtoupper(uc);		/* Convert it to upper case */
 2551              		.loc 1 1307 0
 2552 005c BB89     		ldrh	r3, [r7, #12]
 2553 005e 1846     		mov	r0, r3
 2554 0060 FFF7FEFF 		bl	ff_wtoupper
 2555 0064 0346     		mov	r3, r0
 2556 0066 FB81     		strh	r3, [r7, #14]	@ movhi
1308:../fatfs/ff.c **** 			if (i >= _MAX_LFN || wc != ff_wtoupper(lfnbuf[i++]))	/* Compare it */
 2557              		.loc 1 1308 0
 2558 0068 7B69     		ldr	r3, [r7, #20]
 2559 006a FE2B     		cmp	r3, #254
 2560 006c 0ED8     		bhi	.L152
 2561              		.loc 1 1308 0 is_stmt 0 discriminator 1
 2562 006e 7B69     		ldr	r3, [r7, #20]
 2563 0070 5A1C     		adds	r2, r3, #1
 2564 0072 7A61     		str	r2, [r7, #20]
 2565 0074 5B00     		lsls	r3, r3, #1
 2566 0076 7A68     		ldr	r2, [r7, #4]
 2567 0078 1344     		add	r3, r3, r2
 2568 007a 1B88     		ldrh	r3, [r3]
 2569 007c 1846     		mov	r0, r3
 2570 007e FFF7FEFF 		bl	ff_wtoupper
 2571 0082 0346     		mov	r3, r0
 2572 0084 1A46     		mov	r2, r3
 2573 0086 FB89     		ldrh	r3, [r7, #14]
 2574 0088 9342     		cmp	r3, r2
 2575 008a 08D0     		beq	.L153
 2576              	.L152:
1309:../fatfs/ff.c **** 				return 0;				/* Not matched */
 2577              		.loc 1 1309 0 is_stmt 1
 2578 008c 0023     		movs	r3, #0
 2579 008e 1FE0     		b	.L154
 2580              	.L151:
1310:../fatfs/ff.c **** 		} else {
1311:../fatfs/ff.c **** 			if (uc != 0xFFFF) return 0;	/* Check filler */
 2581              		.loc 1 1311 0
 2582 0090 BB89     		ldrh	r3, [r7, #12]
 2583 0092 4FF6FF72 		movw	r2, #65535
 2584 0096 9342     		cmp	r3, r2
 2585 0098 01D0     		beq	.L153
 2586              		.loc 1 1311 0 is_stmt 0 discriminator 1
 2587 009a 0023     		movs	r3, #0
 2588 009c 18E0     		b	.L154
 2589              	.L153:
1312:../fatfs/ff.c **** 		}
1313:../fatfs/ff.c **** 	} while (++s < 13);				/* Repeat until all chars in the entry are checked */
 2590              		.loc 1 1313 0 is_stmt 1
 2591 009e 3B69     		ldr	r3, [r7, #16]
 2592 00a0 0133     		adds	r3, r3, #1
 2593 00a2 3B61     		str	r3, [r7, #16]
 2594 00a4 3B69     		ldr	r3, [r7, #16]
 2595 00a6 0C2B     		cmp	r3, #12
 2596 00a8 BED9     		bls	.L155
1314:../fatfs/ff.c **** 
1315:../fatfs/ff.c **** 	if ((dir[LDIR_Ord] & LLE) && wc && lfnbuf[i])	/* Last segment matched but different length */
 2597              		.loc 1 1315 0
 2598 00aa 3B68     		ldr	r3, [r7]
 2599 00ac 1B78     		ldrb	r3, [r3]	@ zero_extendqisi2
 2600 00ae 03F04003 		and	r3, r3, #64
 2601 00b2 002B     		cmp	r3, #0
 2602 00b4 0BD0     		beq	.L156
 2603              		.loc 1 1315 0 is_stmt 0 discriminator 1
 2604 00b6 FB89     		ldrh	r3, [r7, #14]
 2605 00b8 002B     		cmp	r3, #0
 2606 00ba 08D0     		beq	.L156
 2607              		.loc 1 1315 0 discriminator 2
 2608 00bc 7B69     		ldr	r3, [r7, #20]
 2609 00be 5B00     		lsls	r3, r3, #1
 2610 00c0 7A68     		ldr	r2, [r7, #4]
 2611 00c2 1344     		add	r3, r3, r2
 2612 00c4 1B88     		ldrh	r3, [r3]
 2613 00c6 002B     		cmp	r3, #0
 2614 00c8 01D0     		beq	.L156
1316:../fatfs/ff.c **** 		return 0;
 2615              		.loc 1 1316 0 is_stmt 1
 2616 00ca 0023     		movs	r3, #0
 2617 00cc 00E0     		b	.L154
 2618              	.L156:
1317:../fatfs/ff.c **** 
1318:../fatfs/ff.c **** 	return 1;						/* The part of LFN matched */
 2619              		.loc 1 1318 0
 2620 00ce 0123     		movs	r3, #1
 2621              	.L154:
1319:../fatfs/ff.c **** }
 2622              		.loc 1 1319 0
 2623 00d0 1846     		mov	r0, r3
 2624 00d2 1837     		adds	r7, r7, #24
 2625              		.cfi_def_cfa_offset 8
 2626 00d4 BD46     		mov	sp, r7
 2627              		.cfi_def_cfa_register 13
 2628              		@ sp needed
 2629 00d6 80BD     		pop	{r7, pc}
 2630              	.L158:
 2631              		.align	2
 2632              	.L157:
 2633 00d8 00000000 		.word	LfnOfs
 2634              		.cfi_endproc
 2635              	.LFE18:
 2637              		.section	.text.pick_lfn,"ax",%progbits
 2638              		.align	2
 2639              		.thumb
 2640              		.thumb_func
 2642              	pick_lfn:
 2643              	.LFB19:
1320:../fatfs/ff.c **** 
1321:../fatfs/ff.c **** 
1322:../fatfs/ff.c **** 
1323:../fatfs/ff.c **** static
1324:../fatfs/ff.c **** int pick_lfn (			/* 1:Succeeded, 0:Buffer overflow */
1325:../fatfs/ff.c **** 	WCHAR *lfnbuf,		/* Pointer to the Unicode-LFN buffer */
1326:../fatfs/ff.c **** 	BYTE *dir			/* Pointer to the directory entry */
1327:../fatfs/ff.c **** )
1328:../fatfs/ff.c **** {
 2644              		.loc 1 1328 0
 2645              		.cfi_startproc
 2646              		@ args = 0, pretend = 0, frame = 24
 2647              		@ frame_needed = 1, uses_anonymous_args = 0
 2648              		@ link register save eliminated.
 2649 0000 80B4     		push	{r7}
 2650              		.cfi_def_cfa_offset 4
 2651              		.cfi_offset 7, -4
 2652 0002 87B0     		sub	sp, sp, #28
 2653              		.cfi_def_cfa_offset 32
 2654 0004 00AF     		add	r7, sp, #0
 2655              		.cfi_def_cfa_register 7
 2656 0006 7860     		str	r0, [r7, #4]
 2657 0008 3960     		str	r1, [r7]
1329:../fatfs/ff.c **** 	UINT i, s;
1330:../fatfs/ff.c **** 	WCHAR wc, uc;
1331:../fatfs/ff.c **** 
1332:../fatfs/ff.c **** 
1333:../fatfs/ff.c **** 	i = ((dir[LDIR_Ord] & 0x3F) - 1) * 13;	/* Offset in the LFN buffer */
 2658              		.loc 1 1333 0
 2659 000a 3B68     		ldr	r3, [r7]
 2660 000c 1B78     		ldrb	r3, [r3]	@ zero_extendqisi2
 2661 000e 03F03F03 		and	r3, r3, #63
 2662 0012 5A1E     		subs	r2, r3, #1
 2663 0014 1346     		mov	r3, r2
 2664 0016 5B00     		lsls	r3, r3, #1
 2665 0018 1344     		add	r3, r3, r2
 2666 001a 9B00     		lsls	r3, r3, #2
 2667 001c 1344     		add	r3, r3, r2
 2668 001e 7B61     		str	r3, [r7, #20]
1334:../fatfs/ff.c **** 
1335:../fatfs/ff.c **** 	s = 0; wc = 1;
 2669              		.loc 1 1335 0
 2670 0020 0023     		movs	r3, #0
 2671 0022 3B61     		str	r3, [r7, #16]
 2672 0024 0123     		movs	r3, #1
 2673 0026 FB81     		strh	r3, [r7, #14]	@ movhi
 2674              	.L164:
1336:../fatfs/ff.c **** 	do {
1337:../fatfs/ff.c **** 		uc = LD_WORD(dir+LfnOfs[s]);		/* Pick an LFN character from the entry */
 2675              		.loc 1 1337 0
 2676 0028 274A     		ldr	r2, .L167
 2677 002a 3B69     		ldr	r3, [r7, #16]
 2678 002c 1344     		add	r3, r3, r2
 2679 002e 1B78     		ldrb	r3, [r3]	@ zero_extendqisi2
 2680 0030 0133     		adds	r3, r3, #1
 2681 0032 3A68     		ldr	r2, [r7]
 2682 0034 1344     		add	r3, r3, r2
 2683 0036 1B78     		ldrb	r3, [r3]	@ zero_extendqisi2
 2684 0038 1B02     		lsls	r3, r3, #8
 2685 003a 99B2     		uxth	r1, r3
 2686 003c 224A     		ldr	r2, .L167
 2687 003e 3B69     		ldr	r3, [r7, #16]
 2688 0040 1344     		add	r3, r3, r2
 2689 0042 1B78     		ldrb	r3, [r3]	@ zero_extendqisi2
 2690 0044 1A46     		mov	r2, r3
 2691 0046 3B68     		ldr	r3, [r7]
 2692 0048 1344     		add	r3, r3, r2
 2693 004a 1B78     		ldrb	r3, [r3]	@ zero_extendqisi2
 2694 004c 9BB2     		uxth	r3, r3
 2695 004e 0A46     		mov	r2, r1	@ movhi
 2696 0050 1343     		orrs	r3, r3, r2
 2697 0052 9BB2     		uxth	r3, r3
 2698 0054 BB81     		strh	r3, [r7, #12]	@ movhi
1338:../fatfs/ff.c **** 		if (wc) {	/* Last char has not been processed */
 2699              		.loc 1 1338 0
 2700 0056 FB89     		ldrh	r3, [r7, #14]
 2701 0058 002B     		cmp	r3, #0
 2702 005a 0FD0     		beq	.L160
1339:../fatfs/ff.c **** 			if (i >= _MAX_LFN) return 0;	/* Buffer overflow? */
 2703              		.loc 1 1339 0
 2704 005c 7B69     		ldr	r3, [r7, #20]
 2705 005e FE2B     		cmp	r3, #254
 2706 0060 01D9     		bls	.L161
 2707              		.loc 1 1339 0 is_stmt 0 discriminator 1
 2708 0062 0023     		movs	r3, #0
 2709 0064 29E0     		b	.L162
 2710              	.L161:
1340:../fatfs/ff.c **** 			lfnbuf[i++] = wc = uc;			/* Store it */
 2711              		.loc 1 1340 0 is_stmt 1
 2712 0066 7B69     		ldr	r3, [r7, #20]
 2713 0068 5A1C     		adds	r2, r3, #1
 2714 006a 7A61     		str	r2, [r7, #20]
 2715 006c 5B00     		lsls	r3, r3, #1
 2716 006e 7A68     		ldr	r2, [r7, #4]
 2717 0070 1344     		add	r3, r3, r2
 2718 0072 BA89     		ldrh	r2, [r7, #12]	@ movhi
 2719 0074 FA81     		strh	r2, [r7, #14]	@ movhi
 2720 0076 FA89     		ldrh	r2, [r7, #14]	@ movhi
 2721 0078 1A80     		strh	r2, [r3]	@ movhi
 2722 007a 06E0     		b	.L163
 2723              	.L160:
1341:../fatfs/ff.c **** 		} else {
1342:../fatfs/ff.c **** 			if (uc != 0xFFFF) return 0;		/* Check filler */
 2724              		.loc 1 1342 0
 2725 007c BB89     		ldrh	r3, [r7, #12]
 2726 007e 4FF6FF72 		movw	r2, #65535
 2727 0082 9342     		cmp	r3, r2
 2728 0084 01D0     		beq	.L163
 2729              		.loc 1 1342 0 is_stmt 0 discriminator 1
 2730 0086 0023     		movs	r3, #0
 2731 0088 17E0     		b	.L162
 2732              	.L163:
1343:../fatfs/ff.c **** 		}
1344:../fatfs/ff.c **** 	} while (++s < 13);						/* Read all character in the entry */
 2733              		.loc 1 1344 0 is_stmt 1
 2734 008a 3B69     		ldr	r3, [r7, #16]
 2735 008c 0133     		adds	r3, r3, #1
 2736 008e 3B61     		str	r3, [r7, #16]
 2737 0090 3B69     		ldr	r3, [r7, #16]
 2738 0092 0C2B     		cmp	r3, #12
 2739 0094 C8D9     		bls	.L164
1345:../fatfs/ff.c **** 
1346:../fatfs/ff.c **** 	if (dir[LDIR_Ord] & LLE) {				/* Put terminator if it is the last LFN part */
 2740              		.loc 1 1346 0
 2741 0096 3B68     		ldr	r3, [r7]
 2742 0098 1B78     		ldrb	r3, [r3]	@ zero_extendqisi2
 2743 009a 03F04003 		and	r3, r3, #64
 2744 009e 002B     		cmp	r3, #0
 2745 00a0 0AD0     		beq	.L165
1347:../fatfs/ff.c **** 		if (i >= _MAX_LFN) return 0;		/* Buffer overflow? */
 2746              		.loc 1 1347 0
 2747 00a2 7B69     		ldr	r3, [r7, #20]
 2748 00a4 FE2B     		cmp	r3, #254
 2749 00a6 01D9     		bls	.L166
 2750              		.loc 1 1347 0 is_stmt 0 discriminator 1
 2751 00a8 0023     		movs	r3, #0
 2752 00aa 06E0     		b	.L162
 2753              	.L166:
1348:../fatfs/ff.c **** 		lfnbuf[i] = 0;
 2754              		.loc 1 1348 0 is_stmt 1
 2755 00ac 7B69     		ldr	r3, [r7, #20]
 2756 00ae 5B00     		lsls	r3, r3, #1
 2757 00b0 7A68     		ldr	r2, [r7, #4]
 2758 00b2 1344     		add	r3, r3, r2
 2759 00b4 0022     		movs	r2, #0
 2760 00b6 1A80     		strh	r2, [r3]	@ movhi
 2761              	.L165:
1349:../fatfs/ff.c **** 	}
1350:../fatfs/ff.c **** 
1351:../fatfs/ff.c **** 	return 1;
 2762              		.loc 1 1351 0
 2763 00b8 0123     		movs	r3, #1
 2764              	.L162:
1352:../fatfs/ff.c **** }
 2765              		.loc 1 1352 0
 2766 00ba 1846     		mov	r0, r3
 2767 00bc 1C37     		adds	r7, r7, #28
 2768              		.cfi_def_cfa_offset 4
 2769 00be BD46     		mov	sp, r7
 2770              		.cfi_def_cfa_register 13
 2771              		@ sp needed
 2772 00c0 5DF8047B 		ldr	r7, [sp], #4
 2773              		.cfi_restore 7
 2774              		.cfi_def_cfa_offset 0
 2775 00c4 7047     		bx	lr
 2776              	.L168:
 2777 00c6 00BF     		.align	2
 2778              	.L167:
 2779 00c8 00000000 		.word	LfnOfs
 2780              		.cfi_endproc
 2781              	.LFE19:
 2783              		.section	.text.fit_lfn,"ax",%progbits
 2784              		.align	2
 2785              		.thumb
 2786              		.thumb_func
 2788              	fit_lfn:
 2789              	.LFB20:
1353:../fatfs/ff.c **** 
1354:../fatfs/ff.c **** 
1355:../fatfs/ff.c **** #if !_FS_READONLY
1356:../fatfs/ff.c **** static
1357:../fatfs/ff.c **** void fit_lfn (
1358:../fatfs/ff.c **** 	const WCHAR *lfnbuf,	/* Pointer to the LFN buffer */
1359:../fatfs/ff.c **** 	BYTE *dir,				/* Pointer to the directory entry */
1360:../fatfs/ff.c **** 	BYTE ord,				/* LFN order (1-20) */
1361:../fatfs/ff.c **** 	BYTE sum				/* SFN sum */
1362:../fatfs/ff.c **** )
1363:../fatfs/ff.c **** {
 2790              		.loc 1 1363 0
 2791              		.cfi_startproc
 2792              		@ args = 0, pretend = 0, frame = 32
 2793              		@ frame_needed = 1, uses_anonymous_args = 0
 2794              		@ link register save eliminated.
 2795 0000 80B4     		push	{r7}
 2796              		.cfi_def_cfa_offset 4
 2797              		.cfi_offset 7, -4
 2798 0002 89B0     		sub	sp, sp, #36
 2799              		.cfi_def_cfa_offset 40
 2800 0004 00AF     		add	r7, sp, #0
 2801              		.cfi_def_cfa_register 7
 2802 0006 F860     		str	r0, [r7, #12]
 2803 0008 B960     		str	r1, [r7, #8]
 2804 000a 1146     		mov	r1, r2
 2805 000c 1A46     		mov	r2, r3
 2806 000e 0B46     		mov	r3, r1
 2807 0010 FB71     		strb	r3, [r7, #7]
 2808 0012 1346     		mov	r3, r2
 2809 0014 BB71     		strb	r3, [r7, #6]
1364:../fatfs/ff.c **** 	UINT i, s;
1365:../fatfs/ff.c **** 	WCHAR wc;
1366:../fatfs/ff.c **** 
1367:../fatfs/ff.c **** 
1368:../fatfs/ff.c **** 	dir[LDIR_Chksum] = sum;			/* Set check sum */
 2810              		.loc 1 1368 0
 2811 0016 BB68     		ldr	r3, [r7, #8]
 2812 0018 0D33     		adds	r3, r3, #13
 2813 001a BA79     		ldrb	r2, [r7, #6]
 2814 001c 1A70     		strb	r2, [r3]
1369:../fatfs/ff.c **** 	dir[LDIR_Attr] = AM_LFN;		/* Set attribute. LFN entry */
 2815              		.loc 1 1369 0
 2816 001e BB68     		ldr	r3, [r7, #8]
 2817 0020 0B33     		adds	r3, r3, #11
 2818 0022 0F22     		movs	r2, #15
 2819 0024 1A70     		strb	r2, [r3]
1370:../fatfs/ff.c **** 	dir[LDIR_Type] = 0;
 2820              		.loc 1 1370 0
 2821 0026 BB68     		ldr	r3, [r7, #8]
 2822 0028 0C33     		adds	r3, r3, #12
 2823 002a 0022     		movs	r2, #0
 2824 002c 1A70     		strb	r2, [r3]
1371:../fatfs/ff.c **** 	ST_WORD(dir+LDIR_FstClusLO, 0);
 2825              		.loc 1 1371 0
 2826 002e BB68     		ldr	r3, [r7, #8]
 2827 0030 1A33     		adds	r3, r3, #26
 2828 0032 0022     		movs	r2, #0
 2829 0034 1A70     		strb	r2, [r3]
 2830 0036 BB68     		ldr	r3, [r7, #8]
 2831 0038 1B33     		adds	r3, r3, #27
 2832 003a 0022     		movs	r2, #0
 2833 003c 1A70     		strb	r2, [r3]
1372:../fatfs/ff.c **** 
1373:../fatfs/ff.c **** 	i = (ord - 1) * 13;				/* Get offset in the LFN buffer */
 2834              		.loc 1 1373 0
 2835 003e FB79     		ldrb	r3, [r7, #7]	@ zero_extendqisi2
 2836 0040 5A1E     		subs	r2, r3, #1
 2837 0042 1346     		mov	r3, r2
 2838 0044 5B00     		lsls	r3, r3, #1
 2839 0046 1344     		add	r3, r3, r2
 2840 0048 9B00     		lsls	r3, r3, #2
 2841 004a 1344     		add	r3, r3, r2
 2842 004c FB61     		str	r3, [r7, #28]
1374:../fatfs/ff.c **** 	s = wc = 0;
 2843              		.loc 1 1374 0
 2844 004e 0023     		movs	r3, #0
 2845 0050 FB82     		strh	r3, [r7, #22]	@ movhi
 2846 0052 0023     		movs	r3, #0
 2847 0054 BB61     		str	r3, [r7, #24]
 2848              	.L172:
1375:../fatfs/ff.c **** 	do {
1376:../fatfs/ff.c **** 		if (wc != 0xFFFF) wc = lfnbuf[i++];	/* Get an effective char */
 2849              		.loc 1 1376 0
 2850 0056 FB8A     		ldrh	r3, [r7, #22]
 2851 0058 4FF6FF72 		movw	r2, #65535
 2852 005c 9342     		cmp	r3, r2
 2853 005e 07D0     		beq	.L170
 2854              		.loc 1 1376 0 is_stmt 0 discriminator 1
 2855 0060 FB69     		ldr	r3, [r7, #28]
 2856 0062 5A1C     		adds	r2, r3, #1
 2857 0064 FA61     		str	r2, [r7, #28]
 2858 0066 5B00     		lsls	r3, r3, #1
 2859 0068 FA68     		ldr	r2, [r7, #12]
 2860 006a 1344     		add	r3, r3, r2
 2861 006c 1B88     		ldrh	r3, [r3]	@ movhi
 2862 006e FB82     		strh	r3, [r7, #22]	@ movhi
 2863              	.L170:
1377:../fatfs/ff.c **** 		ST_WORD(dir+LfnOfs[s], wc);	/* Put it */
 2864              		.loc 1 1377 0 is_stmt 1
 2865 0070 1C4A     		ldr	r2, .L175
 2866 0072 BB69     		ldr	r3, [r7, #24]
 2867 0074 1344     		add	r3, r3, r2
 2868 0076 1B78     		ldrb	r3, [r3]	@ zero_extendqisi2
 2869 0078 1A46     		mov	r2, r3
 2870 007a BB68     		ldr	r3, [r7, #8]
 2871 007c 1344     		add	r3, r3, r2
 2872 007e FA8A     		ldrh	r2, [r7, #22]	@ movhi
 2873 0080 D2B2     		uxtb	r2, r2
 2874 0082 1A70     		strb	r2, [r3]
 2875 0084 174A     		ldr	r2, .L175
 2876 0086 BB69     		ldr	r3, [r7, #24]
 2877 0088 1344     		add	r3, r3, r2
 2878 008a 1B78     		ldrb	r3, [r3]	@ zero_extendqisi2
 2879 008c 0133     		adds	r3, r3, #1
 2880 008e BA68     		ldr	r2, [r7, #8]
 2881 0090 1344     		add	r3, r3, r2
 2882 0092 FA8A     		ldrh	r2, [r7, #22]
 2883 0094 120A     		lsrs	r2, r2, #8
 2884 0096 92B2     		uxth	r2, r2
 2885 0098 D2B2     		uxtb	r2, r2
 2886 009a 1A70     		strb	r2, [r3]
1378:../fatfs/ff.c **** 		if (!wc) wc = 0xFFFF;		/* Padding chars following last char */
 2887              		.loc 1 1378 0
 2888 009c FB8A     		ldrh	r3, [r7, #22]
 2889 009e 002B     		cmp	r3, #0
 2890 00a0 02D1     		bne	.L171
 2891              		.loc 1 1378 0 is_stmt 0 discriminator 1
 2892 00a2 4FF6FF73 		movw	r3, #65535
 2893 00a6 FB82     		strh	r3, [r7, #22]	@ movhi
 2894              	.L171:
1379:../fatfs/ff.c **** 	} while (++s < 13);
 2895              		.loc 1 1379 0 is_stmt 1
 2896 00a8 BB69     		ldr	r3, [r7, #24]
 2897 00aa 0133     		adds	r3, r3, #1
 2898 00ac BB61     		str	r3, [r7, #24]
 2899 00ae BB69     		ldr	r3, [r7, #24]
 2900 00b0 0C2B     		cmp	r3, #12
 2901 00b2 D0D9     		bls	.L172
1380:../fatfs/ff.c **** 	if (wc == 0xFFFF || !lfnbuf[i]) ord |= LLE;	/* Bottom LFN part is the start of LFN sequence */
 2902              		.loc 1 1380 0
 2903 00b4 FB8A     		ldrh	r3, [r7, #22]
 2904 00b6 4FF6FF72 		movw	r2, #65535
 2905 00ba 9342     		cmp	r3, r2
 2906 00bc 06D0     		beq	.L173
 2907              		.loc 1 1380 0 is_stmt 0 discriminator 2
 2908 00be FB69     		ldr	r3, [r7, #28]
 2909 00c0 5B00     		lsls	r3, r3, #1
 2910 00c2 FA68     		ldr	r2, [r7, #12]
 2911 00c4 1344     		add	r3, r3, r2
 2912 00c6 1B88     		ldrh	r3, [r3]
 2913 00c8 002B     		cmp	r3, #0
 2914 00ca 03D1     		bne	.L174
 2915              	.L173:
 2916              		.loc 1 1380 0 discriminator 3
 2917 00cc FB79     		ldrb	r3, [r7, #7]
 2918 00ce 43F04003 		orr	r3, r3, #64
 2919 00d2 FB71     		strb	r3, [r7, #7]
 2920              	.L174:
1381:../fatfs/ff.c **** 	dir[LDIR_Ord] = ord;			/* Set the LFN order */
 2921              		.loc 1 1381 0 is_stmt 1
 2922 00d4 BB68     		ldr	r3, [r7, #8]
 2923 00d6 FA79     		ldrb	r2, [r7, #7]
 2924 00d8 1A70     		strb	r2, [r3]
1382:../fatfs/ff.c **** }
 2925              		.loc 1 1382 0
 2926 00da 2437     		adds	r7, r7, #36
 2927              		.cfi_def_cfa_offset 4
 2928 00dc BD46     		mov	sp, r7
 2929              		.cfi_def_cfa_register 13
 2930              		@ sp needed
 2931 00de 5DF8047B 		ldr	r7, [sp], #4
 2932              		.cfi_restore 7
 2933              		.cfi_def_cfa_offset 0
 2934 00e2 7047     		bx	lr
 2935              	.L176:
 2936              		.align	2
 2937              	.L175:
 2938 00e4 00000000 		.word	LfnOfs
 2939              		.cfi_endproc
 2940              	.LFE20:
 2942              		.section	.text.gen_numname,"ax",%progbits
 2943              		.align	2
 2944              		.global	gen_numname
 2945              		.thumb
 2946              		.thumb_func
 2948              	gen_numname:
 2949              	.LFB21:
1383:../fatfs/ff.c **** 
1384:../fatfs/ff.c **** #endif
1385:../fatfs/ff.c **** #endif
1386:../fatfs/ff.c **** 
1387:../fatfs/ff.c **** 
1388:../fatfs/ff.c **** 
1389:../fatfs/ff.c **** /*-----------------------------------------------------------------------*/
1390:../fatfs/ff.c **** /* Create numbered name                                                  */
1391:../fatfs/ff.c **** /*-----------------------------------------------------------------------*/
1392:../fatfs/ff.c **** #if _USE_LFN
1393:../fatfs/ff.c **** void gen_numname (
1394:../fatfs/ff.c **** 	BYTE *dst,			/* Pointer to generated SFN */
1395:../fatfs/ff.c **** 	const BYTE *src,	/* Pointer to source SFN to be modified */
1396:../fatfs/ff.c **** 	const WCHAR *lfn,	/* Pointer to LFN */
1397:../fatfs/ff.c **** 	WORD seq			/* Sequence number */
1398:../fatfs/ff.c **** )
1399:../fatfs/ff.c **** {
 2950              		.loc 1 1399 0
 2951              		.cfi_startproc
 2952              		@ args = 0, pretend = 0, frame = 40
 2953              		@ frame_needed = 1, uses_anonymous_args = 0
 2954 0000 80B5     		push	{r7, lr}
 2955              		.cfi_def_cfa_offset 8
 2956              		.cfi_offset 7, -8
 2957              		.cfi_offset 14, -4
 2958 0002 8AB0     		sub	sp, sp, #40
 2959              		.cfi_def_cfa_offset 48
 2960 0004 00AF     		add	r7, sp, #0
 2961              		.cfi_def_cfa_register 7
 2962 0006 F860     		str	r0, [r7, #12]
 2963 0008 B960     		str	r1, [r7, #8]
 2964 000a 7A60     		str	r2, [r7, #4]
 2965 000c 7B80     		strh	r3, [r7, #2]	@ movhi
1400:../fatfs/ff.c **** 	BYTE ns[8], c;
1401:../fatfs/ff.c **** 	UINT i, j;
1402:../fatfs/ff.c **** 
1403:../fatfs/ff.c **** 
1404:../fatfs/ff.c **** 	mem_cpy(dst, src, 11);
 2966              		.loc 1 1404 0
 2967 000e F868     		ldr	r0, [r7, #12]
 2968 0010 B968     		ldr	r1, [r7, #8]
 2969 0012 0B22     		movs	r2, #11
 2970 0014 FFF7FEFF 		bl	mem_cpy
1405:../fatfs/ff.c **** 
1406:../fatfs/ff.c **** 	if (seq > 5) {	/* On many collisions, generate a hash number instead of sequential number */
 2971              		.loc 1 1406 0
 2972 0018 7B88     		ldrh	r3, [r7, #2]
 2973 001a 052B     		cmp	r3, #5
 2974 001c 0FD9     		bls	.L178
 2975              	.L179:
1407:../fatfs/ff.c **** 		do seq = (seq >> 1) + (seq << 15) + (WORD)*lfn++; while (*lfn);
 2976              		.loc 1 1407 0 discriminator 1
 2977 001e 7B88     		ldrh	r3, [r7, #2]	@ movhi
 2978 0020 9AB2     		uxth	r2, r3
 2979 0022 5208     		lsrs	r2, r2, #1
 2980 0024 DB03     		lsls	r3, r3, #15
 2981 0026 1343     		orrs	r3, r3, r2
 2982 0028 9AB2     		uxth	r2, r3
 2983 002a 7B68     		ldr	r3, [r7, #4]
 2984 002c 991C     		adds	r1, r3, #2
 2985 002e 7960     		str	r1, [r7, #4]
 2986 0030 1B88     		ldrh	r3, [r3]
 2987 0032 1344     		add	r3, r3, r2
 2988 0034 7B80     		strh	r3, [r7, #2]	@ movhi
 2989 0036 7B68     		ldr	r3, [r7, #4]
 2990 0038 1B88     		ldrh	r3, [r3]
 2991 003a 002B     		cmp	r3, #0
 2992 003c EFD1     		bne	.L179
 2993              	.L178:
1408:../fatfs/ff.c **** 	}
1409:../fatfs/ff.c **** 
1410:../fatfs/ff.c **** 	/* itoa (hexdecimal) */
1411:../fatfs/ff.c **** 	i = 7;
 2994              		.loc 1 1411 0
 2995 003e 0723     		movs	r3, #7
 2996 0040 3B62     		str	r3, [r7, #32]
 2997              	.L181:
1412:../fatfs/ff.c **** 	do {
1413:../fatfs/ff.c **** 		c = (seq % 16) + '0';
 2998              		.loc 1 1413 0
 2999 0042 7B88     		ldrh	r3, [r7, #2]	@ movhi
 3000 0044 DBB2     		uxtb	r3, r3
 3001 0046 03F00F03 		and	r3, r3, #15
 3002 004a DBB2     		uxtb	r3, r3
 3003 004c 3033     		adds	r3, r3, #48
 3004 004e 87F82730 		strb	r3, [r7, #39]
1414:../fatfs/ff.c **** 		if (c > '9') c += 7;
 3005              		.loc 1 1414 0
 3006 0052 97F82730 		ldrb	r3, [r7, #39]	@ zero_extendqisi2
 3007 0056 392B     		cmp	r3, #57
 3008 0058 04D9     		bls	.L180
 3009              		.loc 1 1414 0 is_stmt 0 discriminator 1
 3010 005a 97F82730 		ldrb	r3, [r7, #39]
 3011 005e 0733     		adds	r3, r3, #7
 3012 0060 87F82730 		strb	r3, [r7, #39]
 3013              	.L180:
1415:../fatfs/ff.c **** 		ns[i--] = c;
 3014              		.loc 1 1415 0 is_stmt 1
 3015 0064 3B6A     		ldr	r3, [r7, #32]
 3016 0066 5A1E     		subs	r2, r3, #1
 3017 0068 3A62     		str	r2, [r7, #32]
 3018 006a 07F12802 		add	r2, r7, #40
 3019 006e 1344     		add	r3, r3, r2
 3020 0070 97F82720 		ldrb	r2, [r7, #39]
 3021 0074 03F8142C 		strb	r2, [r3, #-20]
1416:../fatfs/ff.c **** 		seq /= 16;
 3022              		.loc 1 1416 0
 3023 0078 7B88     		ldrh	r3, [r7, #2]
 3024 007a 1B09     		lsrs	r3, r3, #4
 3025 007c 7B80     		strh	r3, [r7, #2]	@ movhi
1417:../fatfs/ff.c **** 	} while (seq);
 3026              		.loc 1 1417 0
 3027 007e 7B88     		ldrh	r3, [r7, #2]
 3028 0080 002B     		cmp	r3, #0
 3029 0082 DED1     		bne	.L181
1418:../fatfs/ff.c **** 	ns[i] = '~';
 3030              		.loc 1 1418 0
 3031 0084 07F11402 		add	r2, r7, #20
 3032 0088 3B6A     		ldr	r3, [r7, #32]
 3033 008a 1344     		add	r3, r3, r2
 3034 008c 7E22     		movs	r2, #126
 3035 008e 1A70     		strb	r2, [r3]
1419:../fatfs/ff.c **** 
1420:../fatfs/ff.c **** 	/* Append the number */
1421:../fatfs/ff.c **** 	for (j = 0; j < i && dst[j] != ' '; j++) {
 3036              		.loc 1 1421 0
 3037 0090 0023     		movs	r3, #0
 3038 0092 FB61     		str	r3, [r7, #28]
 3039 0094 02E0     		b	.L182
 3040              	.L184:
 3041              		.loc 1 1421 0 is_stmt 0 discriminator 2
 3042 0096 FB69     		ldr	r3, [r7, #28]
 3043 0098 0133     		adds	r3, r3, #1
 3044 009a FB61     		str	r3, [r7, #28]
 3045              	.L182:
 3046              		.loc 1 1421 0 discriminator 1
 3047 009c FA69     		ldr	r2, [r7, #28]
 3048 009e 3B6A     		ldr	r3, [r7, #32]
 3049 00a0 9A42     		cmp	r2, r3
 3050 00a2 05D2     		bcs	.L183
 3051              		.loc 1 1421 0 discriminator 3
 3052 00a4 FA68     		ldr	r2, [r7, #12]
 3053 00a6 FB69     		ldr	r3, [r7, #28]
 3054 00a8 1344     		add	r3, r3, r2
 3055 00aa 1B78     		ldrb	r3, [r3]	@ zero_extendqisi2
 3056 00ac 202B     		cmp	r3, #32
 3057 00ae F2D1     		bne	.L184
 3058              	.L183:
1422:../fatfs/ff.c **** 		if (IsDBCS1(dst[j])) {
1423:../fatfs/ff.c **** 			if (j == i - 1) break;
1424:../fatfs/ff.c **** 			j++;
1425:../fatfs/ff.c **** 		}
1426:../fatfs/ff.c **** 	}
1427:../fatfs/ff.c **** 	do {
1428:../fatfs/ff.c **** 		dst[j++] = (i < 8) ? ns[i++] : ' ';
 3059              		.loc 1 1428 0 is_stmt 1
 3060 00b0 FB69     		ldr	r3, [r7, #28]
 3061 00b2 5A1C     		adds	r2, r3, #1
 3062 00b4 FA61     		str	r2, [r7, #28]
 3063 00b6 FA68     		ldr	r2, [r7, #12]
 3064 00b8 1A44     		add	r2, r2, r3
 3065 00ba 3B6A     		ldr	r3, [r7, #32]
 3066 00bc 072B     		cmp	r3, #7
 3067 00be 08D8     		bhi	.L185
 3068              		.loc 1 1428 0 is_stmt 0 discriminator 1
 3069 00c0 3B6A     		ldr	r3, [r7, #32]
 3070 00c2 591C     		adds	r1, r3, #1
 3071 00c4 3962     		str	r1, [r7, #32]
 3072 00c6 07F12801 		add	r1, r7, #40
 3073 00ca 0B44     		add	r3, r3, r1
 3074 00cc 13F8143C 		ldrb	r3, [r3, #-20]	@ zero_extendqisi2
 3075 00d0 00E0     		b	.L186
 3076              	.L185:
 3077              		.loc 1 1428 0 discriminator 2
 3078 00d2 2023     		movs	r3, #32
 3079              	.L186:
 3080              		.loc 1 1428 0 discriminator 4
 3081 00d4 1370     		strb	r3, [r2]
1429:../fatfs/ff.c **** 	} while (j < 8);
 3082              		.loc 1 1429 0 is_stmt 1 discriminator 4
 3083 00d6 FB69     		ldr	r3, [r7, #28]
 3084 00d8 072B     		cmp	r3, #7
 3085 00da E9D9     		bls	.L183
1430:../fatfs/ff.c **** }
 3086              		.loc 1 1430 0
 3087 00dc 2837     		adds	r7, r7, #40
 3088              		.cfi_def_cfa_offset 8
 3089 00de BD46     		mov	sp, r7
 3090              		.cfi_def_cfa_register 13
 3091              		@ sp needed
 3092 00e0 80BD     		pop	{r7, pc}
 3093              		.cfi_endproc
 3094              	.LFE21:
 3096 00e2 00BF     		.section	.text.sum_sfn,"ax",%progbits
 3097              		.align	2
 3098              		.thumb
 3099              		.thumb_func
 3101              	sum_sfn:
 3102              	.LFB22:
1431:../fatfs/ff.c **** #endif
1432:../fatfs/ff.c **** 
1433:../fatfs/ff.c **** 
1434:../fatfs/ff.c **** 
1435:../fatfs/ff.c **** 
1436:../fatfs/ff.c **** /*-----------------------------------------------------------------------*/
1437:../fatfs/ff.c **** /* Calculate sum of an SFN                                               */
1438:../fatfs/ff.c **** /*-----------------------------------------------------------------------*/
1439:../fatfs/ff.c **** #if _USE_LFN
1440:../fatfs/ff.c **** static
1441:../fatfs/ff.c **** BYTE sum_sfn (
1442:../fatfs/ff.c **** 	const BYTE *dir		/* Ptr to directory entry */
1443:../fatfs/ff.c **** )
1444:../fatfs/ff.c **** {
 3103              		.loc 1 1444 0
 3104              		.cfi_startproc
 3105              		@ args = 0, pretend = 0, frame = 16
 3106              		@ frame_needed = 1, uses_anonymous_args = 0
 3107              		@ link register save eliminated.
 3108 0000 80B4     		push	{r7}
 3109              		.cfi_def_cfa_offset 4
 3110              		.cfi_offset 7, -4
 3111 0002 85B0     		sub	sp, sp, #20
 3112              		.cfi_def_cfa_offset 24
 3113 0004 00AF     		add	r7, sp, #0
 3114              		.cfi_def_cfa_register 7
 3115 0006 7860     		str	r0, [r7, #4]
1445:../fatfs/ff.c **** 	BYTE sum = 0;
 3116              		.loc 1 1445 0
 3117 0008 0023     		movs	r3, #0
 3118 000a FB73     		strb	r3, [r7, #15]
1446:../fatfs/ff.c **** 	UINT n = 11;
 3119              		.loc 1 1446 0
 3120 000c 0B23     		movs	r3, #11
 3121 000e BB60     		str	r3, [r7, #8]
 3122              	.L188:
1447:../fatfs/ff.c **** 
1448:../fatfs/ff.c **** 	do sum = (sum >> 1) + (sum << 7) + *dir++; while (--n);
 3123              		.loc 1 1448 0 discriminator 1
 3124 0010 FB7B     		ldrb	r3, [r7, #15]
 3125 0012 DAB2     		uxtb	r2, r3
 3126 0014 5208     		lsrs	r2, r2, #1
 3127 0016 DB01     		lsls	r3, r3, #7
 3128 0018 1343     		orrs	r3, r3, r2
 3129 001a DAB2     		uxtb	r2, r3
 3130 001c 7B68     		ldr	r3, [r7, #4]
 3131 001e 591C     		adds	r1, r3, #1
 3132 0020 7960     		str	r1, [r7, #4]
 3133 0022 1B78     		ldrb	r3, [r3]	@ zero_extendqisi2
 3134 0024 1344     		add	r3, r3, r2
 3135 0026 FB73     		strb	r3, [r7, #15]
 3136 0028 BB68     		ldr	r3, [r7, #8]
 3137 002a 013B     		subs	r3, r3, #1
 3138 002c BB60     		str	r3, [r7, #8]
 3139 002e BB68     		ldr	r3, [r7, #8]
 3140 0030 002B     		cmp	r3, #0
 3141 0032 EDD1     		bne	.L188
1449:../fatfs/ff.c **** 	return sum;
 3142              		.loc 1 1449 0
 3143 0034 FB7B     		ldrb	r3, [r7, #15]	@ zero_extendqisi2
1450:../fatfs/ff.c **** }
 3144              		.loc 1 1450 0
 3145 0036 1846     		mov	r0, r3
 3146 0038 1437     		adds	r7, r7, #20
 3147              		.cfi_def_cfa_offset 4
 3148 003a BD46     		mov	sp, r7
 3149              		.cfi_def_cfa_register 13
 3150              		@ sp needed
 3151 003c 5DF8047B 		ldr	r7, [sp], #4
 3152              		.cfi_restore 7
 3153              		.cfi_def_cfa_offset 0
 3154 0040 7047     		bx	lr
 3155              		.cfi_endproc
 3156              	.LFE22:
 3158 0042 00BF     		.section	.text.dir_find,"ax",%progbits
 3159              		.align	2
 3160              		.thumb
 3161              		.thumb_func
 3163              	dir_find:
 3164              	.LFB23:
1451:../fatfs/ff.c **** #endif
1452:../fatfs/ff.c **** 
1453:../fatfs/ff.c **** 
1454:../fatfs/ff.c **** 
1455:../fatfs/ff.c **** 
1456:../fatfs/ff.c **** /*-----------------------------------------------------------------------*/
1457:../fatfs/ff.c **** /* Directory handling - Find an object in the directory                  */
1458:../fatfs/ff.c **** /*-----------------------------------------------------------------------*/
1459:../fatfs/ff.c **** 
1460:../fatfs/ff.c **** static
1461:../fatfs/ff.c **** FRESULT dir_find (
1462:../fatfs/ff.c **** 	DIR *dj			/* Pointer to the directory object linked to the file name */
1463:../fatfs/ff.c **** )
1464:../fatfs/ff.c **** {
 3165              		.loc 1 1464 0
 3166              		.cfi_startproc
 3167              		@ args = 0, pretend = 0, frame = 24
 3168              		@ frame_needed = 1, uses_anonymous_args = 0
 3169 0000 80B5     		push	{r7, lr}
 3170              		.cfi_def_cfa_offset 8
 3171              		.cfi_offset 7, -8
 3172              		.cfi_offset 14, -4
 3173 0002 86B0     		sub	sp, sp, #24
 3174              		.cfi_def_cfa_offset 32
 3175 0004 00AF     		add	r7, sp, #0
 3176              		.cfi_def_cfa_register 7
 3177 0006 7860     		str	r0, [r7, #4]
1465:../fatfs/ff.c **** 	FRESULT res;
1466:../fatfs/ff.c **** 	BYTE c, *dir;
1467:../fatfs/ff.c **** #if _USE_LFN
1468:../fatfs/ff.c **** 	BYTE a, ord, sum;
1469:../fatfs/ff.c **** #endif
1470:../fatfs/ff.c **** 
1471:../fatfs/ff.c **** 	res = dir_sdi(dj, 0);			/* Rewind directory object */
 3178              		.loc 1 1471 0
 3179 0008 7868     		ldr	r0, [r7, #4]
 3180 000a 0021     		movs	r1, #0
 3181 000c FFF7FEFF 		bl	dir_sdi
 3182 0010 0346     		mov	r3, r0
 3183 0012 FB75     		strb	r3, [r7, #23]
1472:../fatfs/ff.c **** 	if (res != FR_OK) return res;
 3184              		.loc 1 1472 0
 3185 0014 FB7D     		ldrb	r3, [r7, #23]	@ zero_extendqisi2
 3186 0016 002B     		cmp	r3, #0
 3187 0018 01D0     		beq	.L191
 3188              		.loc 1 1472 0 is_stmt 0 discriminator 1
 3189 001a FB7D     		ldrb	r3, [r7, #23]	@ zero_extendqisi2
 3190 001c 94E0     		b	.L192
 3191              	.L191:
1473:../fatfs/ff.c **** 
1474:../fatfs/ff.c **** #if _USE_LFN
1475:../fatfs/ff.c **** 	ord = sum = 0xFF;
 3192              		.loc 1 1475 0 is_stmt 1
 3193 001e FF23     		movs	r3, #255
 3194 0020 3B75     		strb	r3, [r7, #20]
 3195 0022 3B7D     		ldrb	r3, [r7, #20]
 3196 0024 7B75     		strb	r3, [r7, #21]
 3197              	.L205:
1476:../fatfs/ff.c **** #endif
1477:../fatfs/ff.c **** 	do {
1478:../fatfs/ff.c **** 		res = move_window(dj->fs, dj->sect);
 3198              		.loc 1 1478 0
 3199 0026 7B68     		ldr	r3, [r7, #4]
 3200 0028 1A68     		ldr	r2, [r3]
 3201 002a 7B68     		ldr	r3, [r7, #4]
 3202 002c 1B69     		ldr	r3, [r3, #16]
 3203 002e 1046     		mov	r0, r2
 3204 0030 1946     		mov	r1, r3
 3205 0032 FFF7FEFF 		bl	move_window
 3206 0036 0346     		mov	r3, r0
 3207 0038 FB75     		strb	r3, [r7, #23]
1479:../fatfs/ff.c **** 		if (res != FR_OK) break;
 3208              		.loc 1 1479 0
 3209 003a FB7D     		ldrb	r3, [r7, #23]	@ zero_extendqisi2
 3210 003c 002B     		cmp	r3, #0
 3211 003e 00D0     		beq	.L193
 3212 0040 81E0     		b	.L194
 3213              	.L193:
1480:../fatfs/ff.c **** 		dir = dj->dir;					/* Ptr to the directory entry of current index */
 3214              		.loc 1 1480 0
 3215 0042 7B68     		ldr	r3, [r7, #4]
 3216 0044 5B69     		ldr	r3, [r3, #20]
 3217 0046 3B61     		str	r3, [r7, #16]
1481:../fatfs/ff.c **** 		c = dir[DIR_Name];
 3218              		.loc 1 1481 0
 3219 0048 3B69     		ldr	r3, [r7, #16]
 3220 004a 1B78     		ldrb	r3, [r3]
 3221 004c BB75     		strb	r3, [r7, #22]
1482:../fatfs/ff.c **** 		if (c == 0) { res = FR_NO_FILE; break; }	/* Reached to end of table */
 3222              		.loc 1 1482 0
 3223 004e BB7D     		ldrb	r3, [r7, #22]	@ zero_extendqisi2
 3224 0050 002B     		cmp	r3, #0
 3225 0052 02D1     		bne	.L195
 3226              		.loc 1 1482 0 is_stmt 0 discriminator 1
 3227 0054 0423     		movs	r3, #4
 3228 0056 FB75     		strb	r3, [r7, #23]
 3229 0058 75E0     		b	.L194
 3230              	.L195:
1483:../fatfs/ff.c **** #if _USE_LFN	/* LFN configuration */
1484:../fatfs/ff.c **** 		a = dir[DIR_Attr] & AM_MASK;
 3231              		.loc 1 1484 0 is_stmt 1
 3232 005a 3B69     		ldr	r3, [r7, #16]
 3233 005c 0B33     		adds	r3, r3, #11
 3234 005e 1B78     		ldrb	r3, [r3]	@ zero_extendqisi2
 3235 0060 03F03F03 		and	r3, r3, #63
 3236 0064 FB73     		strb	r3, [r7, #15]
1485:../fatfs/ff.c **** 		if (c == DDE || ((a & AM_VOL) && a != AM_LFN)) {	/* An entry without valid data */
 3237              		.loc 1 1485 0
 3238 0066 BB7D     		ldrb	r3, [r7, #22]	@ zero_extendqisi2
 3239 0068 E52B     		cmp	r3, #229
 3240 006a 07D0     		beq	.L196
 3241              		.loc 1 1485 0 is_stmt 0 discriminator 1
 3242 006c FB7B     		ldrb	r3, [r7, #15]	@ zero_extendqisi2
 3243 006e 03F00803 		and	r3, r3, #8
 3244 0072 002B     		cmp	r3, #0
 3245 0074 05D0     		beq	.L197
 3246              		.loc 1 1485 0 discriminator 2
 3247 0076 FB7B     		ldrb	r3, [r7, #15]	@ zero_extendqisi2
 3248 0078 0F2B     		cmp	r3, #15
 3249 007a 02D0     		beq	.L197
 3250              	.L196:
1486:../fatfs/ff.c **** 			ord = 0xFF;
 3251              		.loc 1 1486 0 is_stmt 1
 3252 007c FF23     		movs	r3, #255
 3253 007e 7B75     		strb	r3, [r7, #21]
 3254 0080 57E0     		b	.L198
 3255              	.L197:
1487:../fatfs/ff.c **** 		} else {
1488:../fatfs/ff.c **** 			if (a == AM_LFN) {			/* An LFN entry is found */
 3256              		.loc 1 1488 0
 3257 0082 FB7B     		ldrb	r3, [r7, #15]	@ zero_extendqisi2
 3258 0084 0F2B     		cmp	r3, #15
 3259 0086 2FD1     		bne	.L199
1489:../fatfs/ff.c **** 				if (dj->lfn) {
 3260              		.loc 1 1489 0
 3261 0088 7B68     		ldr	r3, [r7, #4]
 3262 008a DB69     		ldr	r3, [r3, #28]
 3263 008c 002B     		cmp	r3, #0
 3264 008e 50D0     		beq	.L198
1490:../fatfs/ff.c **** 					if (c & LLE) {		/* Is it start of LFN sequence? */
 3265              		.loc 1 1490 0
 3266 0090 BB7D     		ldrb	r3, [r7, #22]	@ zero_extendqisi2
 3267 0092 03F04003 		and	r3, r3, #64
 3268 0096 002B     		cmp	r3, #0
 3269 0098 0CD0     		beq	.L201
1491:../fatfs/ff.c **** 						sum = dir[LDIR_Chksum];
 3270              		.loc 1 1491 0
 3271 009a 3B69     		ldr	r3, [r7, #16]
 3272 009c 5B7B     		ldrb	r3, [r3, #13]
 3273 009e 3B75     		strb	r3, [r7, #20]
1492:../fatfs/ff.c **** 						c &= ~LLE; ord = c;	/* LFN start order */
 3274              		.loc 1 1492 0
 3275 00a0 BB7D     		ldrb	r3, [r7, #22]
 3276 00a2 23F04003 		bic	r3, r3, #64
 3277 00a6 BB75     		strb	r3, [r7, #22]
 3278 00a8 BB7D     		ldrb	r3, [r7, #22]
 3279 00aa 7B75     		strb	r3, [r7, #21]
1493:../fatfs/ff.c **** 						dj->lfn_idx = dj->index;
 3280              		.loc 1 1493 0
 3281 00ac 7B68     		ldr	r3, [r7, #4]
 3282 00ae DA88     		ldrh	r2, [r3, #6]
 3283 00b0 7B68     		ldr	r3, [r7, #4]
 3284 00b2 1A84     		strh	r2, [r3, #32]	@ movhi
 3285              	.L201:
1494:../fatfs/ff.c **** 					}
1495:../fatfs/ff.c **** 					/* Check validity of the LFN entry and compare it with given name */
1496:../fatfs/ff.c **** 					ord = (c == ord && sum == dir[LDIR_Chksum] && cmp_lfn(dj->lfn, dir)) ? ord - 1 : 0xFF;
 3286              		.loc 1 1496 0
 3287 00b4 BA7D     		ldrb	r2, [r7, #22]	@ zero_extendqisi2
 3288 00b6 7B7D     		ldrb	r3, [r7, #21]	@ zero_extendqisi2
 3289 00b8 9A42     		cmp	r2, r3
 3290 00ba 12D1     		bne	.L202
 3291              		.loc 1 1496 0 is_stmt 0 discriminator 1
 3292 00bc 3B69     		ldr	r3, [r7, #16]
 3293 00be 0D33     		adds	r3, r3, #13
 3294 00c0 1B78     		ldrb	r3, [r3]	@ zero_extendqisi2
 3295 00c2 3A7D     		ldrb	r2, [r7, #20]	@ zero_extendqisi2
 3296 00c4 9A42     		cmp	r2, r3
 3297 00c6 0CD1     		bne	.L202
 3298              		.loc 1 1496 0 discriminator 3
 3299 00c8 7B68     		ldr	r3, [r7, #4]
 3300 00ca DB69     		ldr	r3, [r3, #28]
 3301 00cc 1846     		mov	r0, r3
 3302 00ce 3969     		ldr	r1, [r7, #16]
 3303 00d0 FFF7FEFF 		bl	cmp_lfn
 3304 00d4 0346     		mov	r3, r0
 3305 00d6 002B     		cmp	r3, #0
 3306 00d8 03D0     		beq	.L202
 3307              		.loc 1 1496 0 discriminator 5
 3308 00da 7B7D     		ldrb	r3, [r7, #21]
 3309 00dc 013B     		subs	r3, r3, #1
 3310 00de DBB2     		uxtb	r3, r3
 3311 00e0 00E0     		b	.L203
 3312              	.L202:
 3313              		.loc 1 1496 0 discriminator 6
 3314 00e2 FF23     		movs	r3, #255
 3315              	.L203:
 3316              		.loc 1 1496 0 discriminator 8
 3317 00e4 7B75     		strb	r3, [r7, #21]
 3318 00e6 24E0     		b	.L198
 3319              	.L199:
1497:../fatfs/ff.c **** 				}
1498:../fatfs/ff.c **** 			} else {					/* An SFN entry is found */
1499:../fatfs/ff.c **** 				if (!ord && sum == sum_sfn(dir)) break;	/* LFN matched? */
 3320              		.loc 1 1499 0 is_stmt 1
 3321 00e8 7B7D     		ldrb	r3, [r7, #21]	@ zero_extendqisi2
 3322 00ea 002B     		cmp	r3, #0
 3323 00ec 08D1     		bne	.L204
 3324              		.loc 1 1499 0 is_stmt 0 discriminator 1
 3325 00ee 3869     		ldr	r0, [r7, #16]
 3326 00f0 FFF7FEFF 		bl	sum_sfn
 3327 00f4 0346     		mov	r3, r0
 3328 00f6 1A46     		mov	r2, r3
 3329 00f8 3B7D     		ldrb	r3, [r7, #20]	@ zero_extendqisi2
 3330 00fa 9342     		cmp	r3, r2
 3331 00fc 00D1     		bne	.L204
 3332              		.loc 1 1499 0
 3333 00fe 22E0     		b	.L194
 3334              	.L204:
1500:../fatfs/ff.c **** 				ord = 0xFF; dj->lfn_idx = 0xFFFF;	/* Reset LFN sequence */
 3335              		.loc 1 1500 0 is_stmt 1
 3336 0100 FF23     		movs	r3, #255
 3337 0102 7B75     		strb	r3, [r7, #21]
 3338 0104 7B68     		ldr	r3, [r7, #4]
 3339 0106 4FF6FF72 		movw	r2, #65535
 3340 010a 1A84     		strh	r2, [r3, #32]	@ movhi
1501:../fatfs/ff.c **** 				if (!(dj->fn[NS] & NS_LOSS) && !mem_cmp(dir, dj->fn, 11)) break;	/* SFN matched? */
 3341              		.loc 1 1501 0
 3342 010c 7B68     		ldr	r3, [r7, #4]
 3343 010e 9B69     		ldr	r3, [r3, #24]
 3344 0110 0B33     		adds	r3, r3, #11
 3345 0112 1B78     		ldrb	r3, [r3]	@ zero_extendqisi2
 3346 0114 03F00103 		and	r3, r3, #1
 3347 0118 002B     		cmp	r3, #0
 3348 011a 0AD1     		bne	.L198
 3349              		.loc 1 1501 0 is_stmt 0 discriminator 1
 3350 011c 7B68     		ldr	r3, [r7, #4]
 3351 011e 9B69     		ldr	r3, [r3, #24]
 3352 0120 3869     		ldr	r0, [r7, #16]
 3353 0122 1946     		mov	r1, r3
 3354 0124 0B22     		movs	r2, #11
 3355 0126 FFF7FEFF 		bl	mem_cmp
 3356 012a 0346     		mov	r3, r0
 3357 012c 002B     		cmp	r3, #0
 3358 012e 00D1     		bne	.L198
 3359              		.loc 1 1501 0
 3360 0130 09E0     		b	.L194
 3361              	.L198:
1502:../fatfs/ff.c **** 			}
1503:../fatfs/ff.c **** 		}
1504:../fatfs/ff.c **** #else		/* Non LFN configuration */
1505:../fatfs/ff.c **** 		if (!(dir[DIR_Attr] & AM_VOL) && !mem_cmp(dir, dj->fn, 11)) /* Is it a valid entry? */
1506:../fatfs/ff.c **** 			break;
1507:../fatfs/ff.c **** #endif
1508:../fatfs/ff.c **** 		res = dir_next(dj, 0);		/* Next entry */
 3362              		.loc 1 1508 0 is_stmt 1
 3363 0132 7868     		ldr	r0, [r7, #4]
 3364 0134 0021     		movs	r1, #0
 3365 0136 FFF7FEFF 		bl	dir_next
 3366 013a 0346     		mov	r3, r0
 3367 013c FB75     		strb	r3, [r7, #23]
1509:../fatfs/ff.c **** 	} while (res == FR_OK);
 3368              		.loc 1 1509 0
 3369 013e FB7D     		ldrb	r3, [r7, #23]	@ zero_extendqisi2
 3370 0140 002B     		cmp	r3, #0
 3371 0142 3FF470AF 		beq	.L205
 3372              	.L194:
1510:../fatfs/ff.c **** 
1511:../fatfs/ff.c **** 	return res;
 3373              		.loc 1 1511 0
 3374 0146 FB7D     		ldrb	r3, [r7, #23]	@ zero_extendqisi2
 3375              	.L192:
1512:../fatfs/ff.c **** }
 3376              		.loc 1 1512 0
 3377 0148 1846     		mov	r0, r3
 3378 014a 1837     		adds	r7, r7, #24
 3379              		.cfi_def_cfa_offset 8
 3380 014c BD46     		mov	sp, r7
 3381              		.cfi_def_cfa_register 13
 3382              		@ sp needed
 3383 014e 80BD     		pop	{r7, pc}
 3384              		.cfi_endproc
 3385              	.LFE23:
 3387              		.section	.text.dir_read,"ax",%progbits
 3388              		.align	2
 3389              		.thumb
 3390              		.thumb_func
 3392              	dir_read:
 3393              	.LFB24:
1513:../fatfs/ff.c **** 
1514:../fatfs/ff.c **** 
1515:../fatfs/ff.c **** 
1516:../fatfs/ff.c **** 
1517:../fatfs/ff.c **** /*-----------------------------------------------------------------------*/
1518:../fatfs/ff.c **** /* Read an object from the directory                                     */
1519:../fatfs/ff.c **** /*-----------------------------------------------------------------------*/
1520:../fatfs/ff.c **** #if _FS_MINIMIZE <= 1 || _USE_LABEL || _FS_RPATH >= 2
1521:../fatfs/ff.c **** static
1522:../fatfs/ff.c **** FRESULT dir_read (
1523:../fatfs/ff.c **** 	DIR *dj,		/* Pointer to the directory object */
1524:../fatfs/ff.c **** 	int vol			/* Filtered by 0:file/dir or 1:volume label */
1525:../fatfs/ff.c **** )
1526:../fatfs/ff.c **** {
 3394              		.loc 1 1526 0
 3395              		.cfi_startproc
 3396              		@ args = 0, pretend = 0, frame = 24
 3397              		@ frame_needed = 1, uses_anonymous_args = 0
 3398 0000 80B5     		push	{r7, lr}
 3399              		.cfi_def_cfa_offset 8
 3400              		.cfi_offset 7, -8
 3401              		.cfi_offset 14, -4
 3402 0002 86B0     		sub	sp, sp, #24
 3403              		.cfi_def_cfa_offset 32
 3404 0004 00AF     		add	r7, sp, #0
 3405              		.cfi_def_cfa_register 7
 3406 0006 7860     		str	r0, [r7, #4]
 3407 0008 3960     		str	r1, [r7]
1527:../fatfs/ff.c **** 	FRESULT res;
1528:../fatfs/ff.c **** 	BYTE a, c, *dir;
1529:../fatfs/ff.c **** #if _USE_LFN
1530:../fatfs/ff.c **** 	BYTE ord = 0xFF, sum = 0xFF;
 3408              		.loc 1 1530 0
 3409 000a FF23     		movs	r3, #255
 3410 000c 7B75     		strb	r3, [r7, #21]
 3411 000e FF23     		movs	r3, #255
 3412 0010 3B75     		strb	r3, [r7, #20]
1531:../fatfs/ff.c **** #endif
1532:../fatfs/ff.c **** 
1533:../fatfs/ff.c **** 	res = FR_NO_FILE;
 3413              		.loc 1 1533 0
 3414 0012 0423     		movs	r3, #4
 3415 0014 FB75     		strb	r3, [r7, #23]
1534:../fatfs/ff.c **** 	while (dj->sect) {
 3416              		.loc 1 1534 0
 3417 0016 79E0     		b	.L207
 3418              	.L220:
1535:../fatfs/ff.c **** 		res = move_window(dj->fs, dj->sect);
 3419              		.loc 1 1535 0
 3420 0018 7B68     		ldr	r3, [r7, #4]
 3421 001a 1A68     		ldr	r2, [r3]
 3422 001c 7B68     		ldr	r3, [r7, #4]
 3423 001e 1B69     		ldr	r3, [r3, #16]
 3424 0020 1046     		mov	r0, r2
 3425 0022 1946     		mov	r1, r3
 3426 0024 FFF7FEFF 		bl	move_window
 3427 0028 0346     		mov	r3, r0
 3428 002a FB75     		strb	r3, [r7, #23]
1536:../fatfs/ff.c **** 		if (res != FR_OK) break;
 3429              		.loc 1 1536 0
 3430 002c FB7D     		ldrb	r3, [r7, #23]	@ zero_extendqisi2
 3431 002e 002B     		cmp	r3, #0
 3432 0030 00D0     		beq	.L208
 3433 0032 6FE0     		b	.L209
 3434              	.L208:
1537:../fatfs/ff.c **** 		dir = dj->dir;					/* Ptr to the directory entry of current index */
 3435              		.loc 1 1537 0
 3436 0034 7B68     		ldr	r3, [r7, #4]
 3437 0036 5B69     		ldr	r3, [r3, #20]
 3438 0038 3B61     		str	r3, [r7, #16]
1538:../fatfs/ff.c **** 		c = dir[DIR_Name];
 3439              		.loc 1 1538 0
 3440 003a 3B69     		ldr	r3, [r7, #16]
 3441 003c 1B78     		ldrb	r3, [r3]
 3442 003e BB75     		strb	r3, [r7, #22]
1539:../fatfs/ff.c **** 		if (c == 0) { res = FR_NO_FILE; break; }	/* Reached to end of table */
 3443              		.loc 1 1539 0
 3444 0040 BB7D     		ldrb	r3, [r7, #22]	@ zero_extendqisi2
 3445 0042 002B     		cmp	r3, #0
 3446 0044 02D1     		bne	.L210
 3447              		.loc 1 1539 0 is_stmt 0 discriminator 1
 3448 0046 0423     		movs	r3, #4
 3449 0048 FB75     		strb	r3, [r7, #23]
 3450 004a 63E0     		b	.L209
 3451              	.L210:
1540:../fatfs/ff.c **** 		a = dir[DIR_Attr] & AM_MASK;
 3452              		.loc 1 1540 0 is_stmt 1
 3453 004c 3B69     		ldr	r3, [r7, #16]
 3454 004e 0B33     		adds	r3, r3, #11
 3455 0050 1B78     		ldrb	r3, [r3]	@ zero_extendqisi2
 3456 0052 03F03F03 		and	r3, r3, #63
 3457 0056 FB73     		strb	r3, [r7, #15]
1541:../fatfs/ff.c **** #if _USE_LFN	/* LFN configuration */
1542:../fatfs/ff.c **** 		if (c == DDE || (!_FS_RPATH && c == '.') || (a == AM_VOL) != vol) {	/* An entry without valid dat
 3458              		.loc 1 1542 0
 3459 0058 BB7D     		ldrb	r3, [r7, #22]	@ zero_extendqisi2
 3460 005a E52B     		cmp	r3, #229
 3461 005c 09D0     		beq	.L211
 3462              		.loc 1 1542 0 is_stmt 0 discriminator 1
 3463 005e FB7B     		ldrb	r3, [r7, #15]	@ zero_extendqisi2
 3464 0060 082B     		cmp	r3, #8
 3465 0062 0CBF     		ite	eq
 3466 0064 0123     		moveq	r3, #1
 3467 0066 0023     		movne	r3, #0
 3468 0068 DBB2     		uxtb	r3, r3
 3469 006a 1A46     		mov	r2, r3
 3470 006c 3B68     		ldr	r3, [r7]
 3471 006e 9A42     		cmp	r2, r3
 3472 0070 02D0     		beq	.L212
 3473              	.L211:
1543:../fatfs/ff.c **** 			ord = 0xFF;
 3474              		.loc 1 1543 0 is_stmt 1
 3475 0072 FF23     		movs	r3, #255
 3476 0074 7B75     		strb	r3, [r7, #21]
 3477 0076 3FE0     		b	.L213
 3478              	.L212:
1544:../fatfs/ff.c **** 		} else {
1545:../fatfs/ff.c **** 			if (a == AM_LFN) {			/* An LFN entry is found */
 3479              		.loc 1 1545 0
 3480 0078 FB7B     		ldrb	r3, [r7, #15]	@ zero_extendqisi2
 3481 007a 0F2B     		cmp	r3, #15
 3482 007c 2BD1     		bne	.L214
1546:../fatfs/ff.c **** 				if (c & LLE) {			/* Is it start of LFN sequence? */
 3483              		.loc 1 1546 0
 3484 007e BB7D     		ldrb	r3, [r7, #22]	@ zero_extendqisi2
 3485 0080 03F04003 		and	r3, r3, #64
 3486 0084 002B     		cmp	r3, #0
 3487 0086 0CD0     		beq	.L215
1547:../fatfs/ff.c **** 					sum = dir[LDIR_Chksum];
 3488              		.loc 1 1547 0
 3489 0088 3B69     		ldr	r3, [r7, #16]
 3490 008a 5B7B     		ldrb	r3, [r3, #13]
 3491 008c 3B75     		strb	r3, [r7, #20]
1548:../fatfs/ff.c **** 					c &= ~LLE; ord = c;
 3492              		.loc 1 1548 0
 3493 008e BB7D     		ldrb	r3, [r7, #22]
 3494 0090 23F04003 		bic	r3, r3, #64
 3495 0094 BB75     		strb	r3, [r7, #22]
 3496 0096 BB7D     		ldrb	r3, [r7, #22]
 3497 0098 7B75     		strb	r3, [r7, #21]
1549:../fatfs/ff.c **** 					dj->lfn_idx = dj->index;
 3498              		.loc 1 1549 0
 3499 009a 7B68     		ldr	r3, [r7, #4]
 3500 009c DA88     		ldrh	r2, [r3, #6]
 3501 009e 7B68     		ldr	r3, [r7, #4]
 3502 00a0 1A84     		strh	r2, [r3, #32]	@ movhi
 3503              	.L215:
1550:../fatfs/ff.c **** 				}
1551:../fatfs/ff.c **** 				/* Check LFN validity and capture it */
1552:../fatfs/ff.c **** 				ord = (c == ord && sum == dir[LDIR_Chksum] && pick_lfn(dj->lfn, dir)) ? ord - 1 : 0xFF;
 3504              		.loc 1 1552 0
 3505 00a2 BA7D     		ldrb	r2, [r7, #22]	@ zero_extendqisi2
 3506 00a4 7B7D     		ldrb	r3, [r7, #21]	@ zero_extendqisi2
 3507 00a6 9A42     		cmp	r2, r3
 3508 00a8 12D1     		bne	.L216
 3509              		.loc 1 1552 0 is_stmt 0 discriminator 1
 3510 00aa 3B69     		ldr	r3, [r7, #16]
 3511 00ac 0D33     		adds	r3, r3, #13
 3512 00ae 1B78     		ldrb	r3, [r3]	@ zero_extendqisi2
 3513 00b0 3A7D     		ldrb	r2, [r7, #20]	@ zero_extendqisi2
 3514 00b2 9A42     		cmp	r2, r3
 3515 00b4 0CD1     		bne	.L216
 3516              		.loc 1 1552 0 discriminator 3
 3517 00b6 7B68     		ldr	r3, [r7, #4]
 3518 00b8 DB69     		ldr	r3, [r3, #28]
 3519 00ba 1846     		mov	r0, r3
 3520 00bc 3969     		ldr	r1, [r7, #16]
 3521 00be FFF7FEFF 		bl	pick_lfn
 3522 00c2 0346     		mov	r3, r0
 3523 00c4 002B     		cmp	r3, #0
 3524 00c6 03D0     		beq	.L216
 3525              		.loc 1 1552 0 discriminator 5
 3526 00c8 7B7D     		ldrb	r3, [r7, #21]
 3527 00ca 013B     		subs	r3, r3, #1
 3528 00cc DBB2     		uxtb	r3, r3
 3529 00ce 00E0     		b	.L217
 3530              	.L216:
 3531              		.loc 1 1552 0 discriminator 6
 3532 00d0 FF23     		movs	r3, #255
 3533              	.L217:
 3534              		.loc 1 1552 0 discriminator 8
 3535 00d2 7B75     		strb	r3, [r7, #21]
 3536 00d4 10E0     		b	.L213
 3537              	.L214:
1553:../fatfs/ff.c **** 			} else {					/* An SFN entry is found */
1554:../fatfs/ff.c **** 				if (ord || sum != sum_sfn(dir))	/* Is there a valid LFN? */
 3538              		.loc 1 1554 0 is_stmt 1
 3539 00d6 7B7D     		ldrb	r3, [r7, #21]	@ zero_extendqisi2
 3540 00d8 002B     		cmp	r3, #0
 3541 00da 07D1     		bne	.L218
 3542              		.loc 1 1554 0 is_stmt 0 discriminator 1
 3543 00dc 3869     		ldr	r0, [r7, #16]
 3544 00de FFF7FEFF 		bl	sum_sfn
 3545 00e2 0346     		mov	r3, r0
 3546 00e4 1A46     		mov	r2, r3
 3547 00e6 3B7D     		ldrb	r3, [r7, #20]	@ zero_extendqisi2
 3548 00e8 9342     		cmp	r3, r2
 3549 00ea 04D0     		beq	.L219
 3550              	.L218:
1555:../fatfs/ff.c **** 					dj->lfn_idx = 0xFFFF;		/* It has no LFN. */
 3551              		.loc 1 1555 0 is_stmt 1
 3552 00ec 7B68     		ldr	r3, [r7, #4]
 3553 00ee 4FF6FF72 		movw	r2, #65535
 3554 00f2 1A84     		strh	r2, [r3, #32]	@ movhi
1556:../fatfs/ff.c **** 				break;
 3555              		.loc 1 1556 0
 3556 00f4 0EE0     		b	.L209
 3557              	.L219:
 3558 00f6 0DE0     		b	.L209
 3559              	.L213:
1557:../fatfs/ff.c **** 			}
1558:../fatfs/ff.c **** 		}
1559:../fatfs/ff.c **** #else		/* Non LFN configuration */
1560:../fatfs/ff.c **** 		if (c != DDE && (_FS_RPATH || c != '.') && a != AM_LFN && (a == AM_VOL) == vol)	/* Is it a valid 
1561:../fatfs/ff.c **** 			break;
1562:../fatfs/ff.c **** #endif
1563:../fatfs/ff.c **** 		res = dir_next(dj, 0);				/* Next entry */
 3560              		.loc 1 1563 0
 3561 00f8 7868     		ldr	r0, [r7, #4]
 3562 00fa 0021     		movs	r1, #0
 3563 00fc FFF7FEFF 		bl	dir_next
 3564 0100 0346     		mov	r3, r0
 3565 0102 FB75     		strb	r3, [r7, #23]
1564:../fatfs/ff.c **** 		if (res != FR_OK) break;
 3566              		.loc 1 1564 0
 3567 0104 FB7D     		ldrb	r3, [r7, #23]	@ zero_extendqisi2
 3568 0106 002B     		cmp	r3, #0
 3569 0108 00D0     		beq	.L207
 3570 010a 03E0     		b	.L209
 3571              	.L207:
1534:../fatfs/ff.c **** 		res = move_window(dj->fs, dj->sect);
 3572              		.loc 1 1534 0
 3573 010c 7B68     		ldr	r3, [r7, #4]
 3574 010e 1B69     		ldr	r3, [r3, #16]
 3575 0110 002B     		cmp	r3, #0
 3576 0112 81D1     		bne	.L220
 3577              	.L209:
1565:../fatfs/ff.c **** 	}
1566:../fatfs/ff.c **** 
1567:../fatfs/ff.c **** 	if (res != FR_OK) dj->sect = 0;
 3578              		.loc 1 1567 0
 3579 0114 FB7D     		ldrb	r3, [r7, #23]	@ zero_extendqisi2
 3580 0116 002B     		cmp	r3, #0
 3581 0118 02D0     		beq	.L221
 3582              		.loc 1 1567 0 is_stmt 0 discriminator 1
 3583 011a 7B68     		ldr	r3, [r7, #4]
 3584 011c 0022     		movs	r2, #0
 3585 011e 1A61     		str	r2, [r3, #16]
 3586              	.L221:
1568:../fatfs/ff.c **** 
1569:../fatfs/ff.c **** 	return res;
 3587              		.loc 1 1569 0 is_stmt 1
 3588 0120 FB7D     		ldrb	r3, [r7, #23]	@ zero_extendqisi2
1570:../fatfs/ff.c **** }
 3589              		.loc 1 1570 0
 3590 0122 1846     		mov	r0, r3
 3591 0124 1837     		adds	r7, r7, #24
 3592              		.cfi_def_cfa_offset 8
 3593 0126 BD46     		mov	sp, r7
 3594              		.cfi_def_cfa_register 13
 3595              		@ sp needed
 3596 0128 80BD     		pop	{r7, pc}
 3597              		.cfi_endproc
 3598              	.LFE24:
 3600 012a 00BF     		.section	.text.dir_register,"ax",%progbits
 3601              		.align	2
 3602              		.thumb
 3603              		.thumb_func
 3605              	dir_register:
 3606              	.LFB25:
1571:../fatfs/ff.c **** #endif	/* _FS_MINIMIZE <= 1 || _USE_LABEL || _FS_RPATH >= 2 */
1572:../fatfs/ff.c **** 
1573:../fatfs/ff.c **** 
1574:../fatfs/ff.c **** 
1575:../fatfs/ff.c **** /*-----------------------------------------------------------------------*/
1576:../fatfs/ff.c **** /* Register an object to the directory                                   */
1577:../fatfs/ff.c **** /*-----------------------------------------------------------------------*/
1578:../fatfs/ff.c **** #if !_FS_READONLY
1579:../fatfs/ff.c **** static
1580:../fatfs/ff.c **** FRESULT dir_register (	/* FR_OK:Successful, FR_DENIED:No free entry or too many SFN collision, FR_D
1581:../fatfs/ff.c **** 	DIR *dj				/* Target directory with object name to be created */
1582:../fatfs/ff.c **** )
1583:../fatfs/ff.c **** {
 3607              		.loc 1 1583 0
 3608              		.cfi_startproc
 3609              		@ args = 0, pretend = 0, frame = 40
 3610              		@ frame_needed = 1, uses_anonymous_args = 0
 3611 0000 80B5     		push	{r7, lr}
 3612              		.cfi_def_cfa_offset 8
 3613              		.cfi_offset 7, -8
 3614              		.cfi_offset 14, -4
 3615 0002 8AB0     		sub	sp, sp, #40
 3616              		.cfi_def_cfa_offset 48
 3617 0004 00AF     		add	r7, sp, #0
 3618              		.cfi_def_cfa_register 7
 3619 0006 7860     		str	r0, [r7, #4]
1584:../fatfs/ff.c **** 	FRESULT res;
1585:../fatfs/ff.c **** #if _USE_LFN	/* LFN configuration */
1586:../fatfs/ff.c **** 	WORD n, ne;
1587:../fatfs/ff.c **** 	BYTE sn[12], *fn, sum;
1588:../fatfs/ff.c **** 	WCHAR *lfn;
1589:../fatfs/ff.c **** 
1590:../fatfs/ff.c **** 
1591:../fatfs/ff.c **** 	fn = dj->fn; lfn = dj->lfn;
 3620              		.loc 1 1591 0
 3621 0008 7B68     		ldr	r3, [r7, #4]
 3622 000a 9B69     		ldr	r3, [r3, #24]
 3623 000c FB61     		str	r3, [r7, #28]
 3624 000e 7B68     		ldr	r3, [r7, #4]
 3625 0010 DB69     		ldr	r3, [r3, #28]
 3626 0012 BB61     		str	r3, [r7, #24]
1592:../fatfs/ff.c **** 	mem_cpy(sn, fn, 12);
 3627              		.loc 1 1592 0
 3628 0014 07F10803 		add	r3, r7, #8
 3629 0018 1846     		mov	r0, r3
 3630 001a F969     		ldr	r1, [r7, #28]
 3631 001c 0C22     		movs	r2, #12
 3632 001e FFF7FEFF 		bl	mem_cpy
1593:../fatfs/ff.c **** 
1594:../fatfs/ff.c **** 	if (_FS_RPATH && (sn[NS] & NS_DOT))		/* Cannot create dot entry */
 3633              		.loc 1 1594 0
 3634 0022 FB7C     		ldrb	r3, [r7, #19]	@ zero_extendqisi2
 3635 0024 03F02003 		and	r3, r3, #32
 3636 0028 002B     		cmp	r3, #0
 3637 002a 01D0     		beq	.L224
1595:../fatfs/ff.c **** 		return FR_INVALID_NAME;
 3638              		.loc 1 1595 0
 3639 002c 0623     		movs	r3, #6
 3640 002e E3E0     		b	.L241
 3641              	.L224:
1596:../fatfs/ff.c **** 
1597:../fatfs/ff.c **** 	if (sn[NS] & NS_LOSS) {			/* When LFN is out of 8.3 format, generate a numbered name */
 3642              		.loc 1 1597 0
 3643 0030 FB7C     		ldrb	r3, [r7, #19]	@ zero_extendqisi2
 3644 0032 03F00103 		and	r3, r3, #1
 3645 0036 002B     		cmp	r3, #0
 3646 0038 35D0     		beq	.L226
1598:../fatfs/ff.c **** 		fn[NS] = 0; dj->lfn = 0;			/* Find only SFN */
 3647              		.loc 1 1598 0
 3648 003a FB69     		ldr	r3, [r7, #28]
 3649 003c 0B33     		adds	r3, r3, #11
 3650 003e 0022     		movs	r2, #0
 3651 0040 1A70     		strb	r2, [r3]
 3652 0042 7B68     		ldr	r3, [r7, #4]
 3653 0044 0022     		movs	r2, #0
 3654 0046 DA61     		str	r2, [r3, #28]
1599:../fatfs/ff.c **** 		for (n = 1; n < 100; n++) {
 3655              		.loc 1 1599 0
 3656 0048 0123     		movs	r3, #1
 3657 004a BB84     		strh	r3, [r7, #36]	@ movhi
 3658 004c 15E0     		b	.L227
 3659              	.L230:
1600:../fatfs/ff.c **** 			gen_numname(fn, sn, lfn, n);	/* Generate a numbered name */
 3660              		.loc 1 1600 0
 3661 004e 07F10802 		add	r2, r7, #8
 3662 0052 BB8C     		ldrh	r3, [r7, #36]
 3663 0054 F869     		ldr	r0, [r7, #28]
 3664 0056 1146     		mov	r1, r2
 3665 0058 BA69     		ldr	r2, [r7, #24]
 3666 005a FFF7FEFF 		bl	gen_numname
1601:../fatfs/ff.c **** 			res = dir_find(dj);				/* Check if the name collides with existing SFN */
 3667              		.loc 1 1601 0
 3668 005e 7868     		ldr	r0, [r7, #4]
 3669 0060 FFF7FEFF 		bl	dir_find
 3670 0064 0346     		mov	r3, r0
 3671 0066 87F82730 		strb	r3, [r7, #39]
1602:../fatfs/ff.c **** 			if (res != FR_OK) break;
 3672              		.loc 1 1602 0
 3673 006a 97F82730 		ldrb	r3, [r7, #39]	@ zero_extendqisi2
 3674 006e 002B     		cmp	r3, #0
 3675 0070 00D0     		beq	.L228
 3676 0072 05E0     		b	.L229
 3677              	.L228:
1599:../fatfs/ff.c **** 			gen_numname(fn, sn, lfn, n);	/* Generate a numbered name */
 3678              		.loc 1 1599 0 discriminator 2
 3679 0074 BB8C     		ldrh	r3, [r7, #36]
 3680 0076 0133     		adds	r3, r3, #1
 3681 0078 BB84     		strh	r3, [r7, #36]	@ movhi
 3682              	.L227:
1599:../fatfs/ff.c **** 			gen_numname(fn, sn, lfn, n);	/* Generate a numbered name */
 3683              		.loc 1 1599 0 is_stmt 0 discriminator 1
 3684 007a BB8C     		ldrh	r3, [r7, #36]
 3685 007c 632B     		cmp	r3, #99
 3686 007e E6D9     		bls	.L230
 3687              	.L229:
1603:../fatfs/ff.c **** 		}
1604:../fatfs/ff.c **** 		if (n == 100) return FR_DENIED;		/* Abort if too many collisions */
 3688              		.loc 1 1604 0 is_stmt 1
 3689 0080 BB8C     		ldrh	r3, [r7, #36]
 3690 0082 642B     		cmp	r3, #100
 3691 0084 01D1     		bne	.L231
 3692              		.loc 1 1604 0 is_stmt 0 discriminator 1
 3693 0086 0723     		movs	r3, #7
 3694 0088 B6E0     		b	.L241
 3695              	.L231:
1605:../fatfs/ff.c **** 		if (res != FR_NO_FILE) return res;	/* Abort if the result is other than 'not collided' */
 3696              		.loc 1 1605 0 is_stmt 1
 3697 008a 97F82730 		ldrb	r3, [r7, #39]	@ zero_extendqisi2
 3698 008e 042B     		cmp	r3, #4
 3699 0090 02D0     		beq	.L232
 3700              		.loc 1 1605 0 is_stmt 0 discriminator 1
 3701 0092 97F82730 		ldrb	r3, [r7, #39]	@ zero_extendqisi2
 3702 0096 AFE0     		b	.L241
 3703              	.L232:
1606:../fatfs/ff.c **** 		fn[NS] = sn[NS]; dj->lfn = lfn;
 3704              		.loc 1 1606 0 is_stmt 1
 3705 0098 FB69     		ldr	r3, [r7, #28]
 3706 009a 0B33     		adds	r3, r3, #11
 3707 009c FA7C     		ldrb	r2, [r7, #19]	@ zero_extendqisi2
 3708 009e 1A70     		strb	r2, [r3]
 3709 00a0 7B68     		ldr	r3, [r7, #4]
 3710 00a2 BA69     		ldr	r2, [r7, #24]
 3711 00a4 DA61     		str	r2, [r3, #28]
 3712              	.L226:
1607:../fatfs/ff.c **** 	}
1608:../fatfs/ff.c **** 
1609:../fatfs/ff.c **** 	if (sn[NS] & NS_LFN) {			/* When LFN is to be created, allocate entries for an SFN + LFNs. */
 3713              		.loc 1 1609 0
 3714 00a6 FB7C     		ldrb	r3, [r7, #19]	@ zero_extendqisi2
 3715 00a8 03F00203 		and	r3, r3, #2
 3716 00ac 002B     		cmp	r3, #0
 3717 00ae 16D0     		beq	.L233
1610:../fatfs/ff.c **** 		for (n = 0; lfn[n]; n++) ;
 3718              		.loc 1 1610 0
 3719 00b0 0023     		movs	r3, #0
 3720 00b2 BB84     		strh	r3, [r7, #36]	@ movhi
 3721 00b4 02E0     		b	.L234
 3722              	.L235:
 3723              		.loc 1 1610 0 is_stmt 0 discriminator 3
 3724 00b6 BB8C     		ldrh	r3, [r7, #36]
 3725 00b8 0133     		adds	r3, r3, #1
 3726 00ba BB84     		strh	r3, [r7, #36]	@ movhi
 3727              	.L234:
 3728              		.loc 1 1610 0 discriminator 1
 3729 00bc BB8C     		ldrh	r3, [r7, #36]
 3730 00be 5B00     		lsls	r3, r3, #1
 3731 00c0 BA69     		ldr	r2, [r7, #24]
 3732 00c2 1344     		add	r3, r3, r2
 3733 00c4 1B88     		ldrh	r3, [r3]
 3734 00c6 002B     		cmp	r3, #0
 3735 00c8 F5D1     		bne	.L235
1611:../fatfs/ff.c **** 		ne = (n + 25) / 13;
 3736              		.loc 1 1611 0 is_stmt 1
 3737 00ca BB8C     		ldrh	r3, [r7, #36]
 3738 00cc 1933     		adds	r3, r3, #25
 3739 00ce 4C4A     		ldr	r2, .L242
 3740 00d0 82FB0312 		smull	r1, r2, r2, r3
 3741 00d4 9210     		asrs	r2, r2, #2
 3742 00d6 DB17     		asrs	r3, r3, #31
 3743 00d8 D31A     		subs	r3, r2, r3
 3744 00da 7B84     		strh	r3, [r7, #34]	@ movhi
 3745 00dc 01E0     		b	.L236
 3746              	.L233:
1612:../fatfs/ff.c **** 	} else {						/* Otherwise allocate an entry for an SFN  */
1613:../fatfs/ff.c **** 		ne = 1;
 3747              		.loc 1 1613 0
 3748 00de 0123     		movs	r3, #1
 3749 00e0 7B84     		strh	r3, [r7, #34]	@ movhi
 3750              	.L236:
1614:../fatfs/ff.c **** 	}
1615:../fatfs/ff.c **** 	res = dir_alloc(dj, ne);		/* Allocate entries */
 3751              		.loc 1 1615 0
 3752 00e2 7B8C     		ldrh	r3, [r7, #34]
 3753 00e4 7868     		ldr	r0, [r7, #4]
 3754 00e6 1946     		mov	r1, r3
 3755 00e8 FFF7FEFF 		bl	dir_alloc
 3756 00ec 0346     		mov	r3, r0
 3757 00ee 87F82730 		strb	r3, [r7, #39]
1616:../fatfs/ff.c **** 
1617:../fatfs/ff.c **** 	if (res == FR_OK && --ne) {		/* Set LFN entry if needed */
 3758              		.loc 1 1617 0
 3759 00f2 97F82730 		ldrb	r3, [r7, #39]	@ zero_extendqisi2
 3760 00f6 002B     		cmp	r3, #0
 3761 00f8 4AD1     		bne	.L237
 3762              		.loc 1 1617 0 is_stmt 0 discriminator 1
 3763 00fa 7B8C     		ldrh	r3, [r7, #34]	@ movhi
 3764 00fc 013B     		subs	r3, r3, #1
 3765 00fe 7B84     		strh	r3, [r7, #34]	@ movhi
 3766 0100 7B8C     		ldrh	r3, [r7, #34]
 3767 0102 002B     		cmp	r3, #0
 3768 0104 44D0     		beq	.L237
1618:../fatfs/ff.c **** 		res = dir_sdi(dj, (WORD)(dj->index - ne));
 3769              		.loc 1 1618 0 is_stmt 1
 3770 0106 7B68     		ldr	r3, [r7, #4]
 3771 0108 DA88     		ldrh	r2, [r3, #6]
 3772 010a 7B8C     		ldrh	r3, [r7, #34]	@ movhi
 3773 010c D31A     		subs	r3, r2, r3
 3774 010e 9BB2     		uxth	r3, r3
 3775 0110 7868     		ldr	r0, [r7, #4]
 3776 0112 1946     		mov	r1, r3
 3777 0114 FFF7FEFF 		bl	dir_sdi
 3778 0118 0346     		mov	r3, r0
 3779 011a 87F82730 		strb	r3, [r7, #39]
1619:../fatfs/ff.c **** 		if (res == FR_OK) {
 3780              		.loc 1 1619 0
 3781 011e 97F82730 		ldrb	r3, [r7, #39]	@ zero_extendqisi2
 3782 0122 002B     		cmp	r3, #0
 3783 0124 34D1     		bne	.L237
1620:../fatfs/ff.c **** 			sum = sum_sfn(dj->fn);	/* Sum value of the SFN tied to the LFN */
 3784              		.loc 1 1620 0
 3785 0126 7B68     		ldr	r3, [r7, #4]
 3786 0128 9B69     		ldr	r3, [r3, #24]
 3787 012a 1846     		mov	r0, r3
 3788 012c FFF7FEFF 		bl	sum_sfn
 3789 0130 0346     		mov	r3, r0
 3790 0132 FB75     		strb	r3, [r7, #23]
 3791              	.L239:
1621:../fatfs/ff.c **** 			do {					/* Store LFN entries in bottom first */
1622:../fatfs/ff.c **** 				res = move_window(dj->fs, dj->sect);
 3792              		.loc 1 1622 0
 3793 0134 7B68     		ldr	r3, [r7, #4]
 3794 0136 1A68     		ldr	r2, [r3]
 3795 0138 7B68     		ldr	r3, [r7, #4]
 3796 013a 1B69     		ldr	r3, [r3, #16]
 3797 013c 1046     		mov	r0, r2
 3798 013e 1946     		mov	r1, r3
 3799 0140 FFF7FEFF 		bl	move_window
 3800 0144 0346     		mov	r3, r0
 3801 0146 87F82730 		strb	r3, [r7, #39]
1623:../fatfs/ff.c **** 				if (res != FR_OK) break;
 3802              		.loc 1 1623 0
 3803 014a 97F82730 		ldrb	r3, [r7, #39]	@ zero_extendqisi2
 3804 014e 002B     		cmp	r3, #0
 3805 0150 00D0     		beq	.L238
 3806 0152 1DE0     		b	.L237
 3807              	.L238:
1624:../fatfs/ff.c **** 				fit_lfn(dj->lfn, dj->dir, (BYTE)ne, sum);
 3808              		.loc 1 1624 0
 3809 0154 7B68     		ldr	r3, [r7, #4]
 3810 0156 D869     		ldr	r0, [r3, #28]
 3811 0158 7B68     		ldr	r3, [r7, #4]
 3812 015a 5969     		ldr	r1, [r3, #20]
 3813 015c 7B8C     		ldrh	r3, [r7, #34]	@ movhi
 3814 015e DAB2     		uxtb	r2, r3
 3815 0160 FB7D     		ldrb	r3, [r7, #23]	@ zero_extendqisi2
 3816 0162 FFF7FEFF 		bl	fit_lfn
1625:../fatfs/ff.c **** 				dj->fs->wflag = 1;
 3817              		.loc 1 1625 0
 3818 0166 7B68     		ldr	r3, [r7, #4]
 3819 0168 1B68     		ldr	r3, [r3]
 3820 016a 0122     		movs	r2, #1
 3821 016c 1A71     		strb	r2, [r3, #4]
1626:../fatfs/ff.c **** 				res = dir_next(dj, 0);	/* Next entry */
 3822              		.loc 1 1626 0
 3823 016e 7868     		ldr	r0, [r7, #4]
 3824 0170 0021     		movs	r1, #0
 3825 0172 FFF7FEFF 		bl	dir_next
 3826 0176 0346     		mov	r3, r0
 3827 0178 87F82730 		strb	r3, [r7, #39]
1627:../fatfs/ff.c **** 			} while (res == FR_OK && --ne);
 3828              		.loc 1 1627 0
 3829 017c 97F82730 		ldrb	r3, [r7, #39]	@ zero_extendqisi2
 3830 0180 002B     		cmp	r3, #0
 3831 0182 05D1     		bne	.L237
 3832              		.loc 1 1627 0 is_stmt 0 discriminator 1
 3833 0184 7B8C     		ldrh	r3, [r7, #34]	@ movhi
 3834 0186 013B     		subs	r3, r3, #1
 3835 0188 7B84     		strh	r3, [r7, #34]	@ movhi
 3836 018a 7B8C     		ldrh	r3, [r7, #34]
 3837 018c 002B     		cmp	r3, #0
 3838 018e D1D1     		bne	.L239
 3839              	.L237:
1628:../fatfs/ff.c **** 		}
1629:../fatfs/ff.c **** 	}
1630:../fatfs/ff.c **** #else	/* Non LFN configuration */
1631:../fatfs/ff.c **** 	res = dir_alloc(dj, 1);		/* Allocate an entry for SFN */
1632:../fatfs/ff.c **** #endif
1633:../fatfs/ff.c **** 
1634:../fatfs/ff.c **** 	if (res == FR_OK) {				/* Set SFN entry */
 3840              		.loc 1 1634 0 is_stmt 1
 3841 0190 97F82730 		ldrb	r3, [r7, #39]	@ zero_extendqisi2
 3842 0194 002B     		cmp	r3, #0
 3843 0196 2DD1     		bne	.L240
1635:../fatfs/ff.c **** 		res = move_window(dj->fs, dj->sect);
 3844              		.loc 1 1635 0
 3845 0198 7B68     		ldr	r3, [r7, #4]
 3846 019a 1A68     		ldr	r2, [r3]
 3847 019c 7B68     		ldr	r3, [r7, #4]
 3848 019e 1B69     		ldr	r3, [r3, #16]
 3849 01a0 1046     		mov	r0, r2
 3850 01a2 1946     		mov	r1, r3
 3851 01a4 FFF7FEFF 		bl	move_window
 3852 01a8 0346     		mov	r3, r0
 3853 01aa 87F82730 		strb	r3, [r7, #39]
1636:../fatfs/ff.c **** 		if (res == FR_OK) {
 3854              		.loc 1 1636 0
 3855 01ae 97F82730 		ldrb	r3, [r7, #39]	@ zero_extendqisi2
 3856 01b2 002B     		cmp	r3, #0
 3857 01b4 1ED1     		bne	.L240
1637:../fatfs/ff.c **** 			mem_set(dj->dir, 0, SZ_DIR);	/* Clean the entry */
 3858              		.loc 1 1637 0
 3859 01b6 7B68     		ldr	r3, [r7, #4]
 3860 01b8 5B69     		ldr	r3, [r3, #20]
 3861 01ba 1846     		mov	r0, r3
 3862 01bc 0021     		movs	r1, #0
 3863 01be 2022     		movs	r2, #32
 3864 01c0 FFF7FEFF 		bl	mem_set
1638:../fatfs/ff.c **** 			mem_cpy(dj->dir, dj->fn, 11);	/* Put SFN */
 3865              		.loc 1 1638 0
 3866 01c4 7B68     		ldr	r3, [r7, #4]
 3867 01c6 5A69     		ldr	r2, [r3, #20]
 3868 01c8 7B68     		ldr	r3, [r7, #4]
 3869 01ca 9B69     		ldr	r3, [r3, #24]
 3870 01cc 1046     		mov	r0, r2
 3871 01ce 1946     		mov	r1, r3
 3872 01d0 0B22     		movs	r2, #11
 3873 01d2 FFF7FEFF 		bl	mem_cpy
1639:../fatfs/ff.c **** #if _USE_LFN
1640:../fatfs/ff.c **** 			dj->dir[DIR_NTres] = *(dj->fn+NS) & (NS_BODY | NS_EXT);	/* Put NT flag */
 3874              		.loc 1 1640 0
 3875 01d6 7B68     		ldr	r3, [r7, #4]
 3876 01d8 5B69     		ldr	r3, [r3, #20]
 3877 01da 0C33     		adds	r3, r3, #12
 3878 01dc 7A68     		ldr	r2, [r7, #4]
 3879 01de 9269     		ldr	r2, [r2, #24]
 3880 01e0 0B32     		adds	r2, r2, #11
 3881 01e2 1278     		ldrb	r2, [r2]	@ zero_extendqisi2
 3882 01e4 02F01802 		and	r2, r2, #24
 3883 01e8 D2B2     		uxtb	r2, r2
 3884 01ea 1A70     		strb	r2, [r3]
1641:../fatfs/ff.c **** #endif
1642:../fatfs/ff.c **** 			dj->fs->wflag = 1;
 3885              		.loc 1 1642 0
 3886 01ec 7B68     		ldr	r3, [r7, #4]
 3887 01ee 1B68     		ldr	r3, [r3]
 3888 01f0 0122     		movs	r2, #1
 3889 01f2 1A71     		strb	r2, [r3, #4]
 3890              	.L240:
1643:../fatfs/ff.c **** 		}
1644:../fatfs/ff.c **** 	}
1645:../fatfs/ff.c **** 
1646:../fatfs/ff.c **** 	return res;
 3891              		.loc 1 1646 0
 3892 01f4 97F82730 		ldrb	r3, [r7, #39]	@ zero_extendqisi2
 3893              	.L241:
1647:../fatfs/ff.c **** }
 3894              		.loc 1 1647 0 discriminator 1
 3895 01f8 1846     		mov	r0, r3
 3896 01fa 2837     		adds	r7, r7, #40
 3897              		.cfi_def_cfa_offset 8
 3898 01fc BD46     		mov	sp, r7
 3899              		.cfi_def_cfa_register 13
 3900              		@ sp needed
 3901 01fe 80BD     		pop	{r7, pc}
 3902              	.L243:
 3903              		.align	2
 3904              	.L242:
 3905 0200 4FECC44E 		.word	1321528399
 3906              		.cfi_endproc
 3907              	.LFE25:
 3909              		.section	.text.dir_remove,"ax",%progbits
 3910              		.align	2
 3911              		.thumb
 3912              		.thumb_func
 3914              	dir_remove:
 3915              	.LFB26:
1648:../fatfs/ff.c **** #endif /* !_FS_READONLY */
1649:../fatfs/ff.c **** 
1650:../fatfs/ff.c **** 
1651:../fatfs/ff.c **** 
1652:../fatfs/ff.c **** 
1653:../fatfs/ff.c **** /*-----------------------------------------------------------------------*/
1654:../fatfs/ff.c **** /* Remove an object from the directory                                   */
1655:../fatfs/ff.c **** /*-----------------------------------------------------------------------*/
1656:../fatfs/ff.c **** #if !_FS_READONLY && !_FS_MINIMIZE
1657:../fatfs/ff.c **** static
1658:../fatfs/ff.c **** FRESULT dir_remove (	/* FR_OK: Successful, FR_DISK_ERR: A disk error */
1659:../fatfs/ff.c **** 	DIR *dj				/* Directory object pointing the entry to be removed */
1660:../fatfs/ff.c **** )
1661:../fatfs/ff.c **** {
 3916              		.loc 1 1661 0
 3917              		.cfi_startproc
 3918              		@ args = 0, pretend = 0, frame = 16
 3919              		@ frame_needed = 1, uses_anonymous_args = 0
 3920 0000 80B5     		push	{r7, lr}
 3921              		.cfi_def_cfa_offset 8
 3922              		.cfi_offset 7, -8
 3923              		.cfi_offset 14, -4
 3924 0002 84B0     		sub	sp, sp, #16
 3925              		.cfi_def_cfa_offset 24
 3926 0004 00AF     		add	r7, sp, #0
 3927              		.cfi_def_cfa_register 7
 3928 0006 7860     		str	r0, [r7, #4]
1662:../fatfs/ff.c **** 	FRESULT res;
1663:../fatfs/ff.c **** #if _USE_LFN	/* LFN configuration */
1664:../fatfs/ff.c **** 	WORD i;
1665:../fatfs/ff.c **** 
1666:../fatfs/ff.c **** 	i = dj->index;	/* SFN index */
 3929              		.loc 1 1666 0
 3930 0008 7B68     		ldr	r3, [r7, #4]
 3931 000a DB88     		ldrh	r3, [r3, #6]	@ movhi
 3932 000c BB81     		strh	r3, [r7, #12]	@ movhi
1667:../fatfs/ff.c **** 	res = dir_sdi(dj, (WORD)((dj->lfn_idx == 0xFFFF) ? i : dj->lfn_idx));	/* Goto the SFN or top of th
 3933              		.loc 1 1667 0
 3934 000e 7B68     		ldr	r3, [r7, #4]
 3935 0010 1B8C     		ldrh	r3, [r3, #32]
 3936 0012 4FF6FF72 		movw	r2, #65535
 3937 0016 9342     		cmp	r3, r2
 3938 0018 02D0     		beq	.L245
 3939              		.loc 1 1667 0 is_stmt 0 discriminator 1
 3940 001a 7B68     		ldr	r3, [r7, #4]
 3941 001c 1B8C     		ldrh	r3, [r3, #32]
 3942 001e 00E0     		b	.L246
 3943              	.L245:
 3944              		.loc 1 1667 0 discriminator 2
 3945 0020 BB89     		ldrh	r3, [r7, #12]
 3946              	.L246:
 3947              		.loc 1 1667 0 discriminator 4
 3948 0022 7868     		ldr	r0, [r7, #4]
 3949 0024 1946     		mov	r1, r3
 3950 0026 FFF7FEFF 		bl	dir_sdi
 3951 002a 0346     		mov	r3, r0
 3952 002c FB73     		strb	r3, [r7, #15]
1668:../fatfs/ff.c **** 	if (res == FR_OK) {
 3953              		.loc 1 1668 0 is_stmt 1 discriminator 4
 3954 002e FB7B     		ldrb	r3, [r7, #15]	@ zero_extendqisi2
 3955 0030 002B     		cmp	r3, #0
 3956 0032 29D1     		bne	.L247
 3957              	.L251:
1669:../fatfs/ff.c **** 		do {
1670:../fatfs/ff.c **** 			res = move_window(dj->fs, dj->sect);
 3958              		.loc 1 1670 0
 3959 0034 7B68     		ldr	r3, [r7, #4]
 3960 0036 1A68     		ldr	r2, [r3]
 3961 0038 7B68     		ldr	r3, [r7, #4]
 3962 003a 1B69     		ldr	r3, [r3, #16]
 3963 003c 1046     		mov	r0, r2
 3964 003e 1946     		mov	r1, r3
 3965 0040 FFF7FEFF 		bl	move_window
 3966 0044 0346     		mov	r3, r0
 3967 0046 FB73     		strb	r3, [r7, #15]
1671:../fatfs/ff.c **** 			if (res != FR_OK) break;
 3968              		.loc 1 1671 0
 3969 0048 FB7B     		ldrb	r3, [r7, #15]	@ zero_extendqisi2
 3970 004a 002B     		cmp	r3, #0
 3971 004c 00D0     		beq	.L248
 3972 004e 16E0     		b	.L249
 3973              	.L248:
1672:../fatfs/ff.c **** 			*dj->dir = DDE;			/* Mark the entry "deleted" */
 3974              		.loc 1 1672 0
 3975 0050 7B68     		ldr	r3, [r7, #4]
 3976 0052 5B69     		ldr	r3, [r3, #20]
 3977 0054 E522     		movs	r2, #229
 3978 0056 1A70     		strb	r2, [r3]
1673:../fatfs/ff.c **** 			dj->fs->wflag = 1;
 3979              		.loc 1 1673 0
 3980 0058 7B68     		ldr	r3, [r7, #4]
 3981 005a 1B68     		ldr	r3, [r3]
 3982 005c 0122     		movs	r2, #1
 3983 005e 1A71     		strb	r2, [r3, #4]
1674:../fatfs/ff.c **** 			if (dj->index >= i) break;	/* When reached SFN, all entries of the object has been deleted. */
 3984              		.loc 1 1674 0
 3985 0060 7B68     		ldr	r3, [r7, #4]
 3986 0062 DB88     		ldrh	r3, [r3, #6]
 3987 0064 BA89     		ldrh	r2, [r7, #12]
 3988 0066 9A42     		cmp	r2, r3
 3989 0068 00D8     		bhi	.L250
 3990 006a 08E0     		b	.L249
 3991              	.L250:
1675:../fatfs/ff.c **** 			res = dir_next(dj, 0);		/* Next entry */
 3992              		.loc 1 1675 0
 3993 006c 7868     		ldr	r0, [r7, #4]
 3994 006e 0021     		movs	r1, #0
 3995 0070 FFF7FEFF 		bl	dir_next
 3996 0074 0346     		mov	r3, r0
 3997 0076 FB73     		strb	r3, [r7, #15]
1676:../fatfs/ff.c **** 		} while (res == FR_OK);
 3998              		.loc 1 1676 0
 3999 0078 FB7B     		ldrb	r3, [r7, #15]	@ zero_extendqisi2
 4000 007a 002B     		cmp	r3, #0
 4001 007c DAD0     		beq	.L251
 4002              	.L249:
1677:../fatfs/ff.c **** 		if (res == FR_NO_FILE) res = FR_INT_ERR;
 4003              		.loc 1 1677 0
 4004 007e FB7B     		ldrb	r3, [r7, #15]	@ zero_extendqisi2
 4005 0080 042B     		cmp	r3, #4
 4006 0082 01D1     		bne	.L247
 4007              		.loc 1 1677 0 is_stmt 0 discriminator 1
 4008 0084 0223     		movs	r3, #2
 4009 0086 FB73     		strb	r3, [r7, #15]
 4010              	.L247:
1678:../fatfs/ff.c **** 	}
1679:../fatfs/ff.c **** 
1680:../fatfs/ff.c **** #else			/* Non LFN configuration */
1681:../fatfs/ff.c **** 	res = dir_sdi(dj, dj->index);
1682:../fatfs/ff.c **** 	if (res == FR_OK) {
1683:../fatfs/ff.c **** 		res = move_window(dj->fatfs, dj->sect);
1684:../fatfs/ff.c **** 		if (res == FR_OK) {
1685:../fatfs/ff.c **** 			*dj->dir = DDE;			/* Mark the entry "deleted" */
1686:../fatfs/ff.c **** 			dj->fatfs->wflag = 1;
1687:../fatfs/ff.c **** 		}
1688:../fatfs/ff.c **** 	}
1689:../fatfs/ff.c **** #endif
1690:../fatfs/ff.c **** 
1691:../fatfs/ff.c **** 	return res;
 4011              		.loc 1 1691 0 is_stmt 1
 4012 0088 FB7B     		ldrb	r3, [r7, #15]	@ zero_extendqisi2
1692:../fatfs/ff.c **** }
 4013              		.loc 1 1692 0
 4014 008a 1846     		mov	r0, r3
 4015 008c 1037     		adds	r7, r7, #16
 4016              		.cfi_def_cfa_offset 8
 4017 008e BD46     		mov	sp, r7
 4018              		.cfi_def_cfa_register 13
 4019              		@ sp needed
 4020 0090 80BD     		pop	{r7, pc}
 4021              		.cfi_endproc
 4022              	.LFE26:
 4024 0092 00BF     		.section	.rodata
 4025              		.align	2
 4026              	.LC0:
 4027 0000 222A3A3C 		.ascii	"\"*:<>?|\177\000"
 4027      3E3F7C7F 
 4027      00
 4028 0009 000000   		.align	2
 4029              	.LC1:
 4030 000c 2B2C3B3D 		.ascii	"+,;=[]\000"
 4030      5B5D00
 4031              		.section	.text.create_name,"ax",%progbits
 4032              		.align	2
 4033              		.thumb
 4034              		.thumb_func
 4036              	create_name:
 4037              	.LFB27:
1693:../fatfs/ff.c **** #endif /* !_FS_READONLY */
1694:../fatfs/ff.c **** 
1695:../fatfs/ff.c **** 
1696:../fatfs/ff.c **** 
1697:../fatfs/ff.c **** 
1698:../fatfs/ff.c **** /*-----------------------------------------------------------------------*/
1699:../fatfs/ff.c **** /* Pick a segment and create the object name in directory form           */
1700:../fatfs/ff.c **** /*-----------------------------------------------------------------------*/
1701:../fatfs/ff.c **** 
1702:../fatfs/ff.c **** static
1703:../fatfs/ff.c **** FRESULT create_name (
1704:../fatfs/ff.c **** 	DIR *dj,			/* Pointer to the directory object */
1705:../fatfs/ff.c **** 	const TCHAR **path	/* Pointer to pointer to the segment in the path string */
1706:../fatfs/ff.c **** )
1707:../fatfs/ff.c **** {
 4038              		.loc 1 1707 0
 4039              		.cfi_startproc
 4040              		@ args = 0, pretend = 0, frame = 40
 4041              		@ frame_needed = 1, uses_anonymous_args = 0
 4042 0000 80B5     		push	{r7, lr}
 4043              		.cfi_def_cfa_offset 8
 4044              		.cfi_offset 7, -8
 4045              		.cfi_offset 14, -4
 4046 0002 8AB0     		sub	sp, sp, #40
 4047              		.cfi_def_cfa_offset 48
 4048 0004 00AF     		add	r7, sp, #0
 4049              		.cfi_def_cfa_register 7
 4050 0006 7860     		str	r0, [r7, #4]
 4051 0008 3960     		str	r1, [r7]
1708:../fatfs/ff.c **** #if _USE_LFN	/* LFN configuration */
1709:../fatfs/ff.c **** 	BYTE b, cf;
1710:../fatfs/ff.c **** 	WCHAR w, *lfn;
1711:../fatfs/ff.c **** 	UINT i, ni, si, di;
1712:../fatfs/ff.c **** 	const TCHAR *p;
1713:../fatfs/ff.c **** 
1714:../fatfs/ff.c **** 	/* Create LFN in Unicode */
1715:../fatfs/ff.c **** 	for (p = *path; *p == '/' || *p == '\\'; p++) ;	/* Strip duplicated separator */
 4052              		.loc 1 1715 0
 4053 000a 3B68     		ldr	r3, [r7]
 4054 000c 1B68     		ldr	r3, [r3]
 4055 000e 3B61     		str	r3, [r7, #16]
 4056 0010 02E0     		b	.L254
 4057              	.L255:
 4058              		.loc 1 1715 0 is_stmt 0 discriminator 5
 4059 0012 3B69     		ldr	r3, [r7, #16]
 4060 0014 0133     		adds	r3, r3, #1
 4061 0016 3B61     		str	r3, [r7, #16]
 4062              	.L254:
 4063              		.loc 1 1715 0 discriminator 1
 4064 0018 3B69     		ldr	r3, [r7, #16]
 4065 001a 1B78     		ldrb	r3, [r3]	@ zero_extendqisi2
 4066 001c 2F2B     		cmp	r3, #47
 4067 001e F8D0     		beq	.L255
 4068              		.loc 1 1715 0 discriminator 4
 4069 0020 3B69     		ldr	r3, [r7, #16]
